 pkcs11

 Timestamp is 5bf3770e (Tue Nov 20 10:53:02 2018)

 Preferred load address is 0000000180000000

 Start         Length     Name                   Class
 0001:00000000 00000000H .text$di                CODE
 0001:00000000 0004e133H .text$mn                CODE
 0001:0004e140 0000cca8H .text$x                 CODE
 0001:0005adf0 00000003H .text$yd                CODE
 0002:00000000 00000238H .idata$5                DATA
 0002:00000238 00000008H .CRT$XCA                DATA
 0002:00000240 00000008H .CRT$XCU                DATA
 0002:00000248 00000008H .CRT$XCZ                DATA
 0002:00000250 00000008H .CRT$XIA                DATA
 0002:00000258 00000020H .CRT$XIC                DATA
 0002:00000278 00000008H .CRT$XIZ                DATA
 0002:00000280 00000008H .CRT$XPA                DATA
 0002:00000288 00000010H .CRT$XPX                DATA
 0002:00000298 00000008H .CRT$XPXA               DATA
 0002:000002a0 00000008H .CRT$XPZ                DATA
 0002:000002a8 00000008H .CRT$XTA                DATA
 0002:000002b0 00000008H .CRT$XTZ                DATA
 0002:000002c0 0000ed90H .rdata                  DATA
 0002:0000f050 0000007cH .rdata$debug            DATA
 0002:0000f0d0 0000037cH .rdata$r                DATA
 0002:0000f450 00000008H .rtc$IAA                DATA
 0002:0000f458 00000008H .rtc$IZZ                DATA
 0002:0000f460 00000008H .rtc$TAA                DATA
 0002:0000f468 00000008H .rtc$TZZ                DATA
 0002:0000f470 0000d894H .xdata                  DATA
 0002:0001cd08 00000264H .xdata$x                DATA
 0002:0001cf6c 00000020H .didat$2                DATA
 0002:0001cf8c 00000020H .didat$3                DATA
 0002:0001cfb0 00000288H .didat$4                DATA
 0002:0001d238 00001560H .didat$6                DATA
 0002:0001e798 00000288H .didat$7                DATA
 0002:0001ea20 00000050H .edata                  DATA
 0002:0001ea70 00000014H .idata$2                DATA
 0002:0001ea84 00000014H .idata$3                DATA
 0002:0001ea98 00000238H .idata$4                DATA
 0002:0001ecd0 00000520H .idata$6                DATA
 0003:00000000 00001878H .data                   DATA
 0003:00001878 00000170H .data$r                 DATA
 0003:000019e8 00000288H .didat$5                DATA
 0003:00001c80 00002508H .bss                    DATA
 0004:00000000 00002ac0H .pdata                  DATA
 0005:00000000 00000058H .rsrc$01                DATA
 0005:00000060 00000180H .rsrc$02                DATA

  Address         Publics by Value              Rva+Base               Lib:Object

 0000:00000000       ___safe_se_handler_table   0000000000000000     <absolute>
 0000:00000000       __guard_fids_table         0000000000000000     <absolute>
 0000:00000000       __guard_fids_count         0000000000000000     <absolute>
 0000:00000000       __guard_flags              0000000000000000     <absolute>
 0000:00000000       ___safe_se_handler_count   0000000000000000     <absolute>
 0000:00000000       __ImageBase                0000000180000000     <linker-defined>
 0001:00000000       ??1HandleScope@Nan@@QEAA@XZ 0000000180001000 f i main.obj
 0001:00000000       ??1EscapableHandleScope@Nan@@QEAA@XZ 0000000180001000 f i async.obj
 0001:00000010       ?init@@YAXV?$Local@VObject@v8@@@v8@@@Z 0000000180001010 f   main.obj
 0001:000000d0       ??0?$basic_string@DU?$char_traits@D@std@@V?$allocator@D@2@@std@@QEAA@PEBD@Z 00000001800010d0 f i main.obj
 0001:00000110       ??1?$basic_string@DU?$char_traits@D@std@@V?$allocator@D@2@@std@@QEAA@XZ 0000000180001110 f i main.obj
 0001:00000150       ?assign@?$basic_string@DU?$char_traits@D@std@@V?$allocator@D@2@@std@@QEAAAEAV12@AEBV12@_K1@Z 0000000180001150 f i main.obj
 0001:00000280       ?assign@?$basic_string@DU?$char_traits@D@std@@V?$allocator@D@2@@std@@QEAAAEAV12@PEBD_K@Z 0000000180001280 f i main.obj
 0001:000003c0       ?erase@?$basic_string@DU?$char_traits@D@std@@V?$allocator@D@2@@std@@QEAAAEAV12@_K0@Z 00000001800013c0 f i main.obj
 0001:00000490       ?_Grow@?$basic_string@DU?$char_traits@D@std@@V?$allocator@D@2@@std@@QEAA_N_K_N@Z 0000000180001490 f i main.obj
 0001:00000560       ?_Copy@?$basic_string@DU?$char_traits@D@std@@V?$allocator@D@2@@std@@QEAAX_K0@Z 0000000180001560 f i main.obj
 0001:00000720       dlopen                     0000000180001720 f   dl.obj
 0001:000007d0       ?DefineOwnProperty@Nan@@YA?AV?$Maybe@_N@v8@@V?$Local@VObject@v8@@@3@V?$Local@VString@v8@@@3@V?$Local@VValue@v8@@@3@W4PropertyAttribute@3@@Z 00000001800017d0 f i const.obj
 0001:00000860       ?declare_attributes@@YAXV?$Local@VObject@v8@@@v8@@@Z 0000000180001860 f   const.obj
 0001:000033a0       ?declare_flags@@YAXV?$Local@VObject@v8@@@v8@@@Z 00000001800043a0 f   const.obj
 0001:00004180       ?declare_objects@@YAXV?$Local@VObject@v8@@@v8@@@Z 0000000180005180 f   const.obj
 0001:000045c0       ?declare_ket_types@@YAXV?$Local@VObject@v8@@@v8@@@Z 00000001800055c0 f   const.obj
 0001:000057b0       ?declare_mechanisms@@YAXV?$Local@VObject@v8@@@v8@@@Z 00000001800067b0 f   const.obj
 0001:0000f350       ?declare_certificates@@YAXV?$Local@VObject@v8@@@v8@@@Z 0000000180010350 f   const.obj
 0001:0000f4c0       ?declare_mgf@@YAXV?$Local@VObject@v8@@@v8@@@Z 00000001800104c0 f   const.obj
 0001:0000f700       ?declare_kdf@@YAXV?$Local@VObject@v8@@@v8@@@Z 0000000180010700 f   const.obj
 0001:0000fae0       ?declare_params@@YAXV?$Local@VObject@v8@@@v8@@@Z 0000000180010ae0 f   const.obj
 0001:0000fdf0       ?declare_initialize_flags@@YAXV?$Local@VObject@v8@@@v8@@@Z 0000000180010df0 f   const.obj
 0001:0000ff00       ?declare_user_types@@YAXV?$Local@VObject@v8@@@v8@@@Z 0000000180010f00 f   const.obj
 0001:00010070       ?to_string@std@@YA?AV?$basic_string@DU?$char_traits@D@std@@V?$allocator@D@2@@1@H@Z 0000000180011070 f i error.obj
 0001:00010110       ?_Get_deleter@_Ref_count_base@std@@UEBAPEAXAEBVtype_info@@@Z 0000000180011110 f i error.obj
 0001:00010120       ??_E?$_Ref_count@UCK_ATTRIBUTE@@@std@@UEAAPEAXI@Z 0000000180011120 f i * CIL library *:* CIL module *
 0001:00010120       ??_G?$_Ref_count@VPKCS11@@@std@@UEAAPEAXI@Z 0000000180011120 f i node.obj
 0001:00010120       ??_G?$_Ref_count@UCK_ATTRIBUTE@@@std@@UEAAPEAXI@Z 0000000180011120 f i template.obj
 0001:00010120       ??_E?$_Ref_count@V?$basic_string@DU?$char_traits@D@std@@V?$allocator@D@2@@std@@@std@@UEAAPEAXI@Z 0000000180011120 f i * CIL library *:* CIL module *
 0001:00010120       ??_G_Ref_count_base@std@@UEAAPEAXI@Z 0000000180011120 f i error.obj
 0001:00010120       ??_G?$_Ref_count_obj@UCK_SESSION_INFO@@@std@@UEAAPEAXI@Z 0000000180011120 f i pkcs11.obj
 0001:00010120       ??_G?$_Ref_count_obj@UKEY_PAIR@@@std@@UEAAPEAXI@Z 0000000180011120 f i pkcs11.obj
 0001:00010120       ??_E?$_Ref_count@VParamAesGCMv240@@@std@@UEAAPEAXI@Z 0000000180011120 f i * CIL library *:* CIL module *
 0001:00010120       ??_G?$_Ref_count_obj@UCK_INFO@@@std@@UEAAPEAXI@Z 0000000180011120 f i pkcs11.obj
 0001:00010120       ??_E?$_Ref_count@VPKCS11@@@std@@UEAAPEAXI@Z 0000000180011120 f i * CIL library *:* CIL module *
 0001:00010120       ??_G?$_Ref_count_obj@UCK_MECHANISM_INFO@@@std@@UEAAPEAXI@Z 0000000180011120 f i pkcs11.obj
 0001:00010120       ??_G?$_Ref_count@VParamAesCCM@@@std@@UEAAPEAXI@Z 0000000180011120 f i mech.obj
 0001:00010120       ??_G?$_Ref_count@VParamAesGCM@@@std@@UEAAPEAXI@Z 0000000180011120 f i mech.obj
 0001:00010120       ??_E?$_Ref_count@VParamAesCBC@@@std@@UEAAPEAXI@Z 0000000180011120 f i * CIL library *:* CIL module *
 0001:00010120       ??_E?$_Ref_count@VParamRsaOAEP@@@std@@UEAAPEAXI@Z 0000000180011120 f i * CIL library *:* CIL module *
 0001:00010120       ??_G?$_Ref_count@VParamRsaPSS@@@std@@UEAAPEAXI@Z 0000000180011120 f i mech.obj
 0001:00010120       ??_G?$_Ref_count@VMechanism@@@std@@UEAAPEAXI@Z 0000000180011120 f i node.obj
 0001:00010120       ??_E?$_Ref_count@VParamAesCCM@@@std@@UEAAPEAXI@Z 0000000180011120 f i * CIL library *:* CIL module *
 0001:00010120       ??_E?$_Ref_count@VParamEcdh1@@@std@@UEAAPEAXI@Z 0000000180011120 f i * CIL library *:* CIL module *
 0001:00010120       ??_G?$_Ref_count@VParamAesCBC@@@std@@UEAAPEAXI@Z 0000000180011120 f i mech.obj
 0001:00010120       ??_E?$_Ref_count_obj@UCK_MECHANISM_INFO@@@std@@UEAAPEAXI@Z 0000000180011120 f i * CIL library *:* CIL module *
 0001:00010120       ??_G?$_Ref_count_obj@UCK_SLOT_INFO@@@std@@UEAAPEAXI@Z 0000000180011120 f i pkcs11.obj
 0001:00010120       ??_E?$_Ref_count_obj@UCK_TOKEN_INFO@@@std@@UEAAPEAXI@Z 0000000180011120 f i * CIL library *:* CIL module *
 0001:00010120       ??_E?$_Ref_count@VAttributes@@@std@@UEAAPEAXI@Z 0000000180011120 f i * CIL library *:* CIL module *
 0001:00010120       ??_E?$_Ref_count@VMechanism@@@std@@UEAAPEAXI@Z 0000000180011120 f i * CIL library *:* CIL module *
 0001:00010120       ??_E?$_Ref_count@VParamAesGCM@@@std@@UEAAPEAXI@Z 0000000180011120 f i * CIL library *:* CIL module *
 0001:00010120       ??_E?$_Ref_count_obj@UCK_SESSION_INFO@@@std@@UEAAPEAXI@Z 0000000180011120 f i * CIL library *:* CIL module *
 0001:00010120       ??_E?$_Ref_count@VError@@@std@@UEAAPEAXI@Z 0000000180011120 f i * CIL library *:* CIL module *
 0001:00010120       ??_E?$_Ref_count@VParamBuffer@@@std@@UEAAPEAXI@Z 0000000180011120 f i * CIL library *:* CIL module *
 0001:00010120       ??_E_Ref_count_base@std@@UEAAPEAXI@Z 0000000180011120 f i * CIL library *:* CIL module *
 0001:00010120       ??_G?$_Ref_count@V?$basic_string@DU?$char_traits@D@std@@V?$allocator@D@2@@std@@@std@@UEAAPEAXI@Z 0000000180011120 f i error.obj
 0001:00010120       ??_G?$_Ref_count@VParamAesGCMv240@@@std@@UEAAPEAXI@Z 0000000180011120 f i mech.obj
 0001:00010120       ??_E?$_Ref_count_obj@UKEY_PAIR@@@std@@UEAAPEAXI@Z 0000000180011120 f i * CIL library *:* CIL module *
 0001:00010120       ??_G?$_Ref_count@VAttributes@@@std@@UEAAPEAXI@Z 0000000180011120 f i pkcs11.obj
 0001:00010120       ??_E?$_Ref_count_obj@UCK_SLOT_INFO@@@std@@UEAAPEAXI@Z 0000000180011120 f i * CIL library *:* CIL module *
 0001:00010120       ??_E?$_Ref_count_obj@UCK_INFO@@@std@@UEAAPEAXI@Z 0000000180011120 f i * CIL library *:* CIL module *
 0001:00010120       ??_G?$_Ref_count_obj@UCK_TOKEN_INFO@@@std@@UEAAPEAXI@Z 0000000180011120 f i pkcs11.obj
 0001:00010120       ??_G?$_Ref_count@VError@@@std@@UEAAPEAXI@Z 0000000180011120 f i template.obj
 0001:00010120       ??_E?$_Ref_count@VParamRsaPSS@@@std@@UEAAPEAXI@Z 0000000180011120 f i * CIL library *:* CIL module *
 0001:00010120       ??_G?$_Ref_count@VParamBuffer@@@std@@UEAAPEAXI@Z 0000000180011120 f i mech.obj
 0001:00010120       ??_G?$_Ref_count@VParamRsaOAEP@@@std@@UEAAPEAXI@Z 0000000180011120 f i mech.obj
 0001:00010120       ??_G?$_Ref_count@VParamEcdh1@@@std@@UEAAPEAXI@Z 0000000180011120 f i mech.obj
 0001:00010150       ?ToString@Error@@QEAA?AV?$shared_ptr@V?$basic_string@DU?$char_traits@D@std@@V?$allocator@D@2@@std@@@std@@XZ 0000000180011150 f   error.obj
 0001:00010270       ?Stack@Error@@IEAA?AV?$shared_ptr@V?$basic_string@DU?$char_traits@D@std@@V?$allocator@D@2@@std@@@std@@XZ 0000000180011270 f   error.obj
 0001:000104d0       ??Y?$basic_string@DU?$char_traits@D@std@@V?$allocator@D@2@@std@@QEAAAEAV01@AEBV01@@Z 00000001800114d0 f i error.obj
 0001:000104e0       ??0?$shared_ptr@V?$basic_string@DU?$char_traits@D@std@@V?$allocator@D@2@@std@@@std@@QEAA@$$QEAV01@@Z 00000001800114e0 f i error.obj
 0001:000104e0       ??0?$_Ptr_base@V?$basic_string@DU?$char_traits@D@std@@V?$allocator@D@2@@std@@@std@@QEAA@$$QEAV01@@Z 00000001800114e0 f i error.obj
 0001:00010510       ??1?$shared_ptr@VAttributes@@@std@@QEAA@XZ 0000000180011510 f i pkcs11.obj
 0001:00010510       ??1?$shared_ptr@VPKCS11@@@std@@QEAA@XZ 0000000180011510 f i node.obj
 0001:00010510       ??1?$shared_ptr@UCK_SESSION_INFO@@@std@@QEAA@XZ 0000000180011510 f i pkcs11.obj
 0001:00010510       ??1?$shared_ptr@V?$basic_string@DU?$char_traits@D@std@@V?$allocator@D@2@@std@@@std@@QEAA@XZ 0000000180011510 f i error.obj
 0001:00010510       ??1?$shared_ptr@UCK_ATTRIBUTE@@@std@@QEAA@XZ 0000000180011510 f i template.obj
 0001:00010510       ??1?$shared_ptr@VMechanism@@@std@@QEAA@XZ 0000000180011510 f i pkcs11.obj
 0001:00010510       ??1?$shared_ptr@VError@@@std@@QEAA@XZ 0000000180011510 f i template.obj
 0001:00010510       ??1?$shared_ptr@UKEY_PAIR@@@std@@QEAA@XZ 0000000180011510 f i pkcs11.obj
 0001:00010510       ??1?$shared_ptr@UCK_TOKEN_INFO@@@std@@QEAA@XZ 0000000180011510 f i pkcs11.obj
 0001:00010510       ??1?$shared_ptr@UCK_SLOT_INFO@@@std@@QEAA@XZ 0000000180011510 f i pkcs11.obj
 0001:00010510       ??1?$shared_ptr@UCK_MECHANISM_INFO@@@std@@QEAA@XZ 0000000180011510 f i pkcs11.obj
 0001:00010510       ??1?$shared_ptr@UCK_INFO@@@std@@QEAA@XZ 0000000180011510 f i pkcs11.obj
 0001:00010550       ??D?$shared_ptr@V?$basic_string@DU?$char_traits@D@std@@V?$allocator@D@2@@std@@@std@@QEBAAEAV?$basic_string@DU?$char_traits@D@std@@V?$allocator@D@2@@1@XZ 0000000180011550 f i error.obj
 0001:00010560       ?append@?$basic_string@DU?$char_traits@D@std@@V?$allocator@D@2@@std@@QEAAAEAV12@AEBV12@_K1@Z 0000000180011560 f i error.obj
 0001:00010690       ??$?0V?$basic_string@DU?$char_traits@D@std@@V?$allocator@D@2@@std@@@?$shared_ptr@V?$basic_string@DU?$char_traits@D@std@@V?$allocator@D@2@@std@@@std@@QEAA@PEAV?$basic_string@DU?$char_traits@D@std@@V?$allocator@D@2@@1@@Z 0000000180011690 f i error.obj
 0001:00010700       ??$forward@V?$shared_ptr@V?$basic_string@DU?$char_traits@D@std@@V?$allocator@D@2@@std@@@std@@@std@@YA$$QEAV?$shared_ptr@V?$basic_string@DU?$char_traits@D@std@@V?$allocator@D@2@@std@@@0@AEAV10@@Z 0000000180011700 f i error.obj
 0001:00010710       ?_Reset0@?$_Ptr_base@UCK_TOKEN_INFO@@@std@@QEAAXPEAUCK_TOKEN_INFO@@PEAV_Ref_count_base@2@@Z 0000000180011710 f i pkcs11.obj
 0001:00010710       ?_Reset0@?$_Ptr_base@UKEY_PAIR@@@std@@QEAAXPEAUKEY_PAIR@@PEAV_Ref_count_base@2@@Z 0000000180011710 f i pkcs11.obj
 0001:00010710       ?_Reset0@?$_Ptr_base@VAttributes@@@std@@QEAAXPEAVAttributes@@PEAV_Ref_count_base@2@@Z 0000000180011710 f i pkcs11.obj
 0001:00010710       ?_Reset0@?$_Ptr_base@VPKCS11@@@std@@QEAAXPEAVPKCS11@@PEAV_Ref_count_base@2@@Z 0000000180011710 f i node.obj
 0001:00010710       ?_Reset0@?$_Ptr_base@UCK_SLOT_INFO@@@std@@QEAAXPEAUCK_SLOT_INFO@@PEAV_Ref_count_base@2@@Z 0000000180011710 f i pkcs11.obj
 0001:00010710       ?_Reset0@?$_Ptr_base@UCK_SESSION_INFO@@@std@@QEAAXPEAUCK_SESSION_INFO@@PEAV_Ref_count_base@2@@Z 0000000180011710 f i pkcs11.obj
 0001:00010710       ?_Reset0@?$_Ptr_base@VMechanism@@@std@@QEAAXPEAVMechanism@@PEAV_Ref_count_base@2@@Z 0000000180011710 f i pkcs11.obj
 0001:00010710       ?_Reset0@?$_Ptr_base@UCK_MECHANISM_INFO@@@std@@QEAAXPEAUCK_MECHANISM_INFO@@PEAV_Ref_count_base@2@@Z 0000000180011710 f i pkcs11.obj
 0001:00010710       ?_Reset0@?$_Ptr_base@V?$basic_string@DU?$char_traits@D@std@@V?$allocator@D@2@@std@@@std@@QEAAXPEAV?$basic_string@DU?$char_traits@D@std@@V?$allocator@D@2@@2@PEAV_Ref_count_base@2@@Z 0000000180011710 f i error.obj
 0001:00010710       ?_Reset0@?$_Ptr_base@UCK_INFO@@@std@@QEAAXPEAUCK_INFO@@PEAV_Ref_count_base@2@@Z 0000000180011710 f i pkcs11.obj
 0001:00010710       ?_Reset0@?$_Ptr_base@VError@@@std@@QEAAXPEAVError@@PEAV_Ref_count_base@2@@Z 0000000180011710 f i template.obj
 0001:00010790       ?_Destroy@?$_Ref_count@V?$basic_string@DU?$char_traits@D@std@@V?$allocator@D@2@@std@@@std@@EEAAXXZ 0000000180011790 f i error.obj
 0001:000107e0       ?_Delete_this@?$_Ref_count@VParamBuffer@@@std@@EEAAXXZ 00000001800117e0 f i mech.obj
 0001:000107e0       ?_Delete_this@?$_Ref_count@VAttributes@@@std@@EEAAXXZ 00000001800117e0 f i pkcs11.obj
 0001:000107e0       ?_Delete_this@?$_Ref_count@VParamRsaPSS@@@std@@EEAAXXZ 00000001800117e0 f i mech.obj
 0001:000107e0       ?_Delete_this@?$_Ref_count_obj@UCK_SESSION_INFO@@@std@@EEAAXXZ 00000001800117e0 f i pkcs11.obj
 0001:000107e0       ?_Delete_this@?$_Ref_count@VParamAesGCMv240@@@std@@EEAAXXZ 00000001800117e0 f i mech.obj
 0001:000107e0       ?_Delete_this@?$_Ref_count_obj@UCK_SLOT_INFO@@@std@@EEAAXXZ 00000001800117e0 f i pkcs11.obj
 0001:000107e0       ?_Delete_this@?$_Ref_count_obj@UCK_MECHANISM_INFO@@@std@@EEAAXXZ 00000001800117e0 f i pkcs11.obj
 0001:000107e0       ?_Delete_this@?$_Ref_count@VParamAesCCM@@@std@@EEAAXXZ 00000001800117e0 f i mech.obj
 0001:000107e0       ?_Delete_this@?$_Ref_count_obj@UCK_TOKEN_INFO@@@std@@EEAAXXZ 00000001800117e0 f i pkcs11.obj
 0001:000107e0       ?_Delete_this@?$_Ref_count@VParamRsaOAEP@@@std@@EEAAXXZ 00000001800117e0 f i mech.obj
 0001:000107e0       ?_Delete_this@?$_Ref_count@VMechanism@@@std@@EEAAXXZ 00000001800117e0 f i node.obj
 0001:000107e0       ?_Delete_this@?$_Ref_count@VParamAesGCM@@@std@@EEAAXXZ 00000001800117e0 f i mech.obj
 0001:000107e0       ?_Delete_this@?$_Ref_count@VParamAesCBC@@@std@@EEAAXXZ 00000001800117e0 f i mech.obj
 0001:000107e0       ?_Delete_this@?$_Ref_count@VPKCS11@@@std@@EEAAXXZ 00000001800117e0 f i node.obj
 0001:000107e0       ?_Delete_this@?$_Ref_count_obj@UKEY_PAIR@@@std@@EEAAXXZ 00000001800117e0 f i pkcs11.obj
 0001:000107e0       ?_Delete_this@?$_Ref_count@UCK_ATTRIBUTE@@@std@@EEAAXXZ 00000001800117e0 f i template.obj
 0001:000107e0       ?_Delete_this@?$_Ref_count@VError@@@std@@EEAAXXZ 00000001800117e0 f i template.obj
 0001:000107e0       ?_Delete_this@?$_Ref_count@V?$basic_string@DU?$char_traits@D@std@@V?$allocator@D@2@@std@@@std@@EEAAXXZ 00000001800117e0 f i error.obj
 0001:000107e0       ?_Delete_this@?$_Ref_count@VParamEcdh1@@@std@@EEAAXXZ 00000001800117e0 f i mech.obj
 0001:000107e0       ?_Delete_this@?$_Ref_count_obj@UCK_INFO@@@std@@EEAAXXZ 00000001800117e0 f i pkcs11.obj
 0001:00010800       ?convert@?$ToFactory@VNumber@v8@@@imp@Nan@@SA?AV?$MaybeLocal@VNumber@v8@@@v8@@V?$Local@VValue@v8@@@5@@Z 0000000180011800 f i template.obj
 0001:000108a0       ??0Error@@QEAA@PEBDV?$shared_ptr@VError@@@std@@0H@Z 00000001800118a0 f i template.obj
 0001:00010a70       ??1Error@@QEAA@XZ          0000000180011a70 f i template.obj
 0001:00011450       ?New@Attributes@@UEAAPEAUTEMPLATE@@XZ 0000000180012450 f   template.obj
 0001:000114e0       ?Push@Attributes@@QEAAXPEAUCK_ATTRIBUTE@@@Z 00000001800124e0 f   template.obj
 0001:00011620       ?FromV8@Attributes@@UEAAXV?$Local@VValue@v8@@@v8@@@Z 0000000180012620 f   template.obj
 0001:00011870       ?ToV8@Attributes@@UEAA?AV?$Local@VObject@v8@@@v8@@XZ 0000000180012870 f   template.obj
 0001:00011930       ??0?$shared_ptr@VError@@@std@@QEAA@AEBV01@@Z 0000000180012930 f i template.obj
 0001:00011970       ?_Destroy@?$_Ref_count@VError@@@std@@EEAAXXZ 0000000180012970 f i template.obj
 0001:000119a0       ?_Destroy@?$_Ref_count@UCK_ATTRIBUTE@@@std@@EEAAXXZ 00000001800129a0 f i template.obj
 0001:000119b0       ?Get@ParamBuffer@@UEAAPEAXXZ 00000001800129b0 f i mech.obj
 0001:000119c0       ?GetSize@ParamBuffer@@UEAAKXZ 00000001800129c0 f i mech.obj
 0001:000119d0       ?FromV8@Mechanism@@UEAAXV?$Local@VValue@v8@@@v8@@@Z 00000001800129d0 f   mech.obj
 0001:000128b0       ?ToV8@Mechanism@@UEAA?AV?$Local@VObject@v8@@@v8@@XZ 00000001800138b0 f   mech.obj
 0001:00012a80       ?New@Mechanism@@UEAAPEAUCK_MECHANISM@@XZ 0000000180013a80 f   mech.obj
 0001:00012b10       ?Get@?$Param@UCK_RSA_PKCS_OAEP_PARAMS@@@@UEAAPEAXXZ 0000000180013b10 f i mech.obj
 0001:00012b10       ?Get@?$Param@UCK_AES_GCM_PARAMS@@@@UEAAPEAXXZ 0000000180013b10 f i mech.obj
 0001:00012b10       ?Get@?$Param@UCK_AES_GCM_240_PARAMS@@@@UEAAPEAXXZ 0000000180013b10 f i mech.obj
 0001:00012b10       ?Get@?$Param@UCK_RSA_PKCS_PSS_PARAMS@@@@UEAAPEAXXZ 0000000180013b10 f i mech.obj
 0001:00012b10       ?Get@?$Param@UCK_AES_CCM_PARAMS@@@@UEAAPEAXXZ 0000000180013b10 f i mech.obj
 0001:00012b10       ?Get@?$Param@UCK_ECDH1_DERIVE_PARAMS@@@@UEAAPEAXXZ 0000000180013b10 f i mech.obj
 0001:00012b10       ?Get@?$Param@UCK_AES_CBC_ENCRYPT_DATA_PARAMS@@@@UEAAPEAXXZ 0000000180013b10 f i mech.obj
 0001:00012b20       ?GetSize@?$Param@UCK_ECDH1_DERIVE_PARAMS@@@@UEAAKXZ 0000000180013b20 f i mech.obj
 0001:00012b20       ?GetSize@?$Param@UCK_AES_GCM_PARAMS@@@@UEAAKXZ 0000000180013b20 f i mech.obj
 0001:00012b20       ?GetSize@?$Param@UCK_AES_CBC_ENCRYPT_DATA_PARAMS@@@@UEAAKXZ 0000000180013b20 f i mech.obj
 0001:00012b30       ?GetSize@?$Param@UCK_AES_GCM_240_PARAMS@@@@UEAAKXZ 0000000180013b30 f i mech.obj
 0001:00012b30       ?GetSize@?$Param@UCK_AES_CCM_PARAMS@@@@UEAAKXZ 0000000180013b30 f i mech.obj
 0001:00012b40       ?GetSize@?$Param@UCK_RSA_PKCS_OAEP_PARAMS@@@@UEAAKXZ 0000000180013b40 f i mech.obj
 0001:00012b50       ?GetSize@?$Param@UCK_RSA_PKCS_PSS_PARAMS@@@@UEAAKXZ 0000000180013b50 f i mech.obj
 0001:00012b60       ??4?$shared_ptr@VParamBase@@@std@@QEAAAEAV01@$$QEAV01@@Z 0000000180013b60 f i mech.obj
 0001:00012b60       ??4?$shared_ptr@V?$basic_string@DU?$char_traits@D@std@@V?$allocator@D@2@@std@@@std@@QEAAAEAV01@$$QEAV01@@Z 0000000180013b60 f i pkcs11.obj
 0001:00012b60       ??4?$shared_ptr@UKEY_PAIR@@@std@@QEAAAEAV01@$$QEAV01@@Z 0000000180013b60 f i async.obj
 0001:00012b60       ??4?$shared_ptr@VPKCS11@@@std@@QEAAAEAV01@$$QEAV01@@Z 0000000180013b60 f i node.obj
 0001:00012c00       ?_Destroy@?$_Ref_count@VParamEcdh1@@@std@@EEAAXXZ 0000000180013c00 f i mech.obj
 0001:00012c60       ?_Destroy@?$_Ref_count@VParamAesCBC@@@std@@EEAAXXZ 0000000180013c60 f i mech.obj
 0001:00012cb0       ?_Destroy@?$_Ref_count@VParamAesGCM@@@std@@EEAAXXZ 0000000180013cb0 f i mech.obj
 0001:00012d10       ?_Destroy@?$_Ref_count@VParamAesGCMv240@@@std@@EEAAXXZ 0000000180013d10 f i mech.obj
 0001:00012d70       ?_Destroy@?$_Ref_count@VParamAesCCM@@@std@@EEAAXXZ 0000000180013d70 f i mech.obj
 0001:00012dd0       ?_Destroy@?$_Ref_count@VParamRsaOAEP@@@std@@EEAAXXZ 0000000180013dd0 f i mech.obj
 0001:00012e20       ?_Destroy@?$_Ref_count@VParamRsaPSS@@@std@@EEAAXXZ 0000000180013e20 f i mech.obj
 0001:00012e40       ?_Destroy@?$_Ref_count@VParamBuffer@@@std@@EEAAXXZ 0000000180013e40 f i mech.obj
 0001:00012e80       ?check_param_buffer@@YA_NV?$Local@VObject@v8@@@v8@@PEBD@Z 0000000180013e80 f   param.obj
 0001:00012f10       ?check_param_number@@YA_NV?$Local@VObject@v8@@@v8@@PEBD@Z 0000000180013f10 f   param.obj
 0001:00012fa0       ?check_param_empty@@YA_NV?$Local@VObject@v8@@@v8@@PEBD@Z 0000000180013fa0 f   param.obj
 0001:00013080       ?FromV8@ParamBuffer@@UEAAXV?$Local@VValue@v8@@@v8@@@Z 0000000180014080 f   param.obj
 0001:000131d0       ?resize@?$vector@EV?$allocator@E@std@@@std@@QEAAX_K@Z 00000001800141d0 f i param.obj
 0001:00013290       ?_Reallocate@?$vector@EV?$allocator@E@std@@@std@@IEAAX_K@Z 0000000180014290 f i param.obj
 0001:00013320       ?FromV8@ParamAesCBC@@UEAAXV?$Local@VValue@v8@@@v8@@@Z 0000000180014320 f   param_aes.obj
 0001:00013920       ?FromV8@ParamAesCCM@@UEAAXV?$Local@VValue@v8@@@v8@@@Z 0000000180014920 f   param_aes.obj
 0001:00014260       ?Free@ParamAesCCM@@IEAAXXZ 0000000180015260 f   param_aes.obj
 0001:000142a0       ?FromV8@ParamAesGCM@@UEAAXV?$Local@VValue@v8@@@v8@@@Z 00000001800152a0 f   param_aes.obj
 0001:00014b60       ?Free@ParamAesGCM@@IEAAXXZ 0000000180015b60 f   param_aes.obj
 0001:00014ba0       ?FromV8@ParamAesGCMv240@@UEAAXV?$Local@VValue@v8@@@v8@@@Z 0000000180015ba0 f   param_aes.obj
 0001:000154e0       ?Free@ParamAesGCMv240@@IEAAXXZ 00000001800164e0 f   param_aes.obj
 0001:00015520       ?FromV8@ParamRsaOAEP@@UEAAXV?$Local@VValue@v8@@@v8@@@Z 0000000180016520 f   param_rsa.obj
 0001:00015db0       ?FromV8@ParamRsaPSS@@UEAAXV?$Local@VValue@v8@@@v8@@@Z 0000000180016db0 f   param_rsa.obj
 0001:000163e0       ?FromV8@ParamEcdh1@@UEAAXV?$Local@VValue@v8@@@v8@@@Z 00000001800173e0 f   param_ecdh.obj
 0001:00016b50       ?Free@ParamEcdh1@@IEAAXXZ  0000000180017b50 f   param_ecdh.obj
 0001:00016b90       ?to_string@std@@YA?AV?$basic_string@DU?$char_traits@D@std@@V?$allocator@D@2@@1@I@Z 0000000180017b90 f i pkcs11.obj
 0001:00016c30       ?to_string@std@@YA?AV?$basic_string@DU?$char_traits@D@std@@V?$allocator@D@2@@1@K@Z 0000000180017c30 f i pkcs11.obj
 0001:0001afb0       ??0PKCS11@@QEAA@XZ         000000018001bfb0 f   pkcs11.obj
 0001:0001b0a0       ?Load@PKCS11@@QEAAXV?$shared_ptr@V?$basic_string@DU?$char_traits@D@std@@V?$allocator@D@2@@std@@@std@@@Z 000000018001c0a0 f   pkcs11.obj
 0001:0001b4c0       ?Close@PKCS11@@QEAAXXZ     000000018001c4c0 f   pkcs11.obj
 0001:0001b510       ?C_Initialize@PKCS11@@QEAAXPEAX@Z 000000018001c510 f   pkcs11.obj
 0001:0001b660       ?C_Finalize@PKCS11@@QEAAXXZ 000000018001c660 f   pkcs11.obj
 0001:0001b7b0       ?C_GetInfo@PKCS11@@QEAA?AV?$shared_ptr@UCK_INFO@@@std@@XZ 000000018001c7b0 f   pkcs11.obj
 0001:0001b910       ?C_GetSlotList@PKCS11@@QEAA?AV?$vector@KV?$allocator@K@std@@@std@@E@Z 000000018001c910 f   pkcs11.obj
 0001:0001bc40       ?C_GetSlotInfo@PKCS11@@QEAA?AV?$shared_ptr@UCK_SLOT_INFO@@@std@@K@Z 000000018001cc40 f   pkcs11.obj
 0001:0001bdb0       ?C_GetTokenInfo@PKCS11@@QEAA?AV?$shared_ptr@UCK_TOKEN_INFO@@@std@@K@Z 000000018001cdb0 f   pkcs11.obj
 0001:0001bf20       ?C_GetMechanismList@PKCS11@@QEAA?AV?$vector@KV?$allocator@K@std@@@std@@K@Z 000000018001cf20 f   pkcs11.obj
 0001:0001c250       ?C_GetMechanismInfo@PKCS11@@QEAA?AV?$shared_ptr@UCK_MECHANISM_INFO@@@std@@KK@Z 000000018001d250 f   pkcs11.obj
 0001:0001c3d0       ?C_InitToken@PKCS11@@QEAA?AV?$shared_ptr@V?$basic_string@DU?$char_traits@D@std@@V?$allocator@D@2@@std@@@std@@KV23@0@Z 000000018001d3d0 f   pkcs11.obj
 0001:0001c600       ?C_InitPIN@PKCS11@@QEAAXKV?$shared_ptr@V?$basic_string@DU?$char_traits@D@std@@V?$allocator@D@2@@std@@@std@@@Z 000000018001d600 f   pkcs11.obj
 0001:0001c7a0       ?C_SetPIN@PKCS11@@QEAAXKV?$shared_ptr@V?$basic_string@DU?$char_traits@D@std@@V?$allocator@D@2@@std@@@std@@0@Z 000000018001d7a0 f   pkcs11.obj
 0001:0001c9a0       ?C_OpenSession@PKCS11@@QEAAKKK@Z 000000018001d9a0 f   pkcs11.obj
 0001:0001cb10       ?C_CloseSession@PKCS11@@QEAAXK@Z 000000018001db10 f   pkcs11.obj
 0001:0001cc60       ?C_CloseAllSessions@PKCS11@@QEAAXK@Z 000000018001dc60 f   pkcs11.obj
 0001:0001cdb0       ?C_GetSessionInfo@PKCS11@@QEAA?AV?$shared_ptr@UCK_SESSION_INFO@@@std@@K@Z 000000018001ddb0 f   pkcs11.obj
 0001:0001cf20       ?C_Login@PKCS11@@QEAAXKKV?$shared_ptr@V?$basic_string@DU?$char_traits@D@std@@V?$allocator@D@2@@std@@@std@@@Z 000000018001df20 f   pkcs11.obj
 0001:0001d0c0       ?C_Logout@PKCS11@@QEAAXK@Z 000000018001e0c0 f   pkcs11.obj
 0001:0001d210       ?C_FindObjectsInit@PKCS11@@QEAAXKV?$shared_ptr@VAttributes@@@std@@@Z 000000018001e210 f   pkcs11.obj
 0001:0001d3b0       ?C_FindObjectsInit@PKCS11@@QEAAXK@Z 000000018001e3b0 f   pkcs11.obj
 0001:0001d480       ?C_FindObjects@PKCS11@@QEAAKK@Z 000000018001e480 f   pkcs11.obj
 0001:0001d600       ?C_FindObjectsFinal@PKCS11@@QEAAXK@Z 000000018001e600 f   pkcs11.obj
 0001:0001d750       ?C_GetAttributeValue@PKCS11@@QEAA?AV?$shared_ptr@VAttributes@@@std@@KKV23@@Z 000000018001e750 f   pkcs11.obj
 0001:0001da80       ?C_SetAttributeValue@PKCS11@@QEAAXKKV?$shared_ptr@VAttributes@@@std@@@Z 000000018001ea80 f   pkcs11.obj
 0001:0001dc10       ?C_CreateObject@PKCS11@@QEAAKKV?$shared_ptr@VAttributes@@@std@@@Z 000000018001ec10 f   pkcs11.obj
 0001:0001ddb0       ?C_CopyObject@PKCS11@@QEAAKKKV?$shared_ptr@VAttributes@@@std@@@Z 000000018001edb0 f   pkcs11.obj
 0001:0001df60       ?C_DestroyObject@PKCS11@@QEAAXKK@Z 000000018001ef60 f   pkcs11.obj
 0001:0001e0c0       ?C_GetObjectSize@PKCS11@@QEAAKKK@Z 000000018001f0c0 f   pkcs11.obj
 0001:0001e9c0       ?C_EncryptInit@PKCS11@@QEAAXKV?$shared_ptr@VMechanism@@@std@@K@Z 000000018001f9c0 f   pkcs11.obj
 0001:0001ea70       ?C_Encrypt@PKCS11@@QEAA?AV?$shared_ptr@V?$basic_string@DU?$char_traits@D@std@@V?$allocator@D@2@@std@@@std@@KV23@0@Z 000000018001fa70 f   pkcs11.obj
 0001:0001eba0       ?C_EncryptUpdate@PKCS11@@QEAA?AV?$shared_ptr@V?$basic_string@DU?$char_traits@D@std@@V?$allocator@D@2@@std@@@std@@KV23@0@Z 000000018001fba0 f   pkcs11.obj
 0001:0001ecd0       ?C_EncryptFinal@PKCS11@@QEAA?AV?$shared_ptr@V?$basic_string@DU?$char_traits@D@std@@V?$allocator@D@2@@std@@@std@@KV23@@Z 000000018001fcd0 f   pkcs11.obj
 0001:0001ed80       ?C_DecryptInit@PKCS11@@QEAAXKV?$shared_ptr@VMechanism@@@std@@K@Z 000000018001fd80 f   pkcs11.obj
 0001:0001ee30       ?C_Decrypt@PKCS11@@QEAA?AV?$shared_ptr@V?$basic_string@DU?$char_traits@D@std@@V?$allocator@D@2@@std@@@std@@KV23@0@Z 000000018001fe30 f   pkcs11.obj
 0001:0001ef60       ?C_DecryptUpdate@PKCS11@@QEAA?AV?$shared_ptr@V?$basic_string@DU?$char_traits@D@std@@V?$allocator@D@2@@std@@@std@@KV23@0@Z 000000018001ff60 f   pkcs11.obj
 0001:0001f090       ?C_DecryptFinal@PKCS11@@QEAA?AV?$shared_ptr@V?$basic_string@DU?$char_traits@D@std@@V?$allocator@D@2@@std@@@std@@KV23@@Z 0000000180020090 f   pkcs11.obj
 0001:0001f140       ?C_DigestInit@PKCS11@@QEAAXKV?$shared_ptr@VMechanism@@@std@@@Z 0000000180020140 f   pkcs11.obj
 0001:0001f2d0       ?C_Digest@PKCS11@@QEAA?AV?$shared_ptr@V?$basic_string@DU?$char_traits@D@std@@V?$allocator@D@2@@std@@@std@@KV23@0@Z 00000001800202d0 f   pkcs11.obj
 0001:0001f400       ?C_DigestUpdate@PKCS11@@QEAAXKV?$shared_ptr@V?$basic_string@DU?$char_traits@D@std@@V?$allocator@D@2@@std@@@std@@@Z 0000000180020400 f   pkcs11.obj
 0001:0001f4a0       ?C_DigestFinal@PKCS11@@QEAA?AV?$shared_ptr@V?$basic_string@DU?$char_traits@D@std@@V?$allocator@D@2@@std@@@std@@KV23@@Z 00000001800204a0 f   pkcs11.obj
 0001:0001f550       ?C_DigestKey@PKCS11@@QEAAXKK@Z 0000000180020550 f   pkcs11.obj
 0001:0001f6b0       ?C_SignInit@PKCS11@@QEAAXKV?$shared_ptr@VMechanism@@@std@@K@Z 00000001800206b0 f   pkcs11.obj
 0001:0001f760       ?C_Sign@PKCS11@@QEAA?AV?$shared_ptr@V?$basic_string@DU?$char_traits@D@std@@V?$allocator@D@2@@std@@@std@@KV23@0@Z 0000000180020760 f   pkcs11.obj
 0001:0001f890       ?C_SignUpdate@PKCS11@@QEAAXKV?$shared_ptr@V?$basic_string@DU?$char_traits@D@std@@V?$allocator@D@2@@std@@@std@@@Z 0000000180020890 f   pkcs11.obj
 0001:0001f930       ?C_SignFinal@PKCS11@@QEAA?AV?$shared_ptr@V?$basic_string@DU?$char_traits@D@std@@V?$allocator@D@2@@std@@@std@@KV23@@Z 0000000180020930 f   pkcs11.obj
 0001:0001f9e0       ?C_SignRecoverInit@PKCS11@@QEAAXKV?$shared_ptr@VMechanism@@@std@@K@Z 00000001800209e0 f   pkcs11.obj
 0001:0001fa90       ?C_SignRecover@PKCS11@@QEAA?AV?$shared_ptr@V?$basic_string@DU?$char_traits@D@std@@V?$allocator@D@2@@std@@@std@@KV23@0@Z 0000000180020a90 f   pkcs11.obj
 0001:0001fbc0       ?C_VerifyInit@PKCS11@@QEAAXKV?$shared_ptr@VMechanism@@@std@@K@Z 0000000180020bc0 f   pkcs11.obj
 0001:0001fc70       ?C_Verify@PKCS11@@QEAAXKV?$shared_ptr@V?$basic_string@DU?$char_traits@D@std@@V?$allocator@D@2@@std@@@std@@0@Z 0000000180020c70 f   pkcs11.obj
 0001:0001fe60       ?C_VerifyUpdate@PKCS11@@QEAAXKV?$shared_ptr@V?$basic_string@DU?$char_traits@D@std@@V?$allocator@D@2@@std@@@std@@@Z 0000000180020e60 f   pkcs11.obj
 0001:0001ff00       ?C_VerifyFinal@PKCS11@@QEAAXKV?$shared_ptr@V?$basic_string@DU?$char_traits@D@std@@V?$allocator@D@2@@std@@@std@@@Z 0000000180020f00 f   pkcs11.obj
 0001:00020090       ?C_VerifyRecoverInit@PKCS11@@QEAAXKV?$shared_ptr@VMechanism@@@std@@K@Z 0000000180021090 f   pkcs11.obj
 0001:00020140       ?C_VerifyRecover@PKCS11@@QEAA?AV?$shared_ptr@V?$basic_string@DU?$char_traits@D@std@@V?$allocator@D@2@@std@@@std@@KV23@0@Z 0000000180021140 f   pkcs11.obj
 0001:00020270       ?C_GenerateKey@PKCS11@@QEAAKKV?$shared_ptr@VMechanism@@@std@@V?$shared_ptr@VAttributes@@@3@@Z 0000000180021270 f   pkcs11.obj
 0001:00020460       ?C_GenerateKeyPair@PKCS11@@QEAA?AV?$shared_ptr@UKEY_PAIR@@@std@@KV?$shared_ptr@VMechanism@@@3@V?$shared_ptr@VAttributes@@@3@1@Z 0000000180021460 f   pkcs11.obj
 0001:000206c0       ?C_WrapKey@PKCS11@@QEAA?AV?$shared_ptr@V?$basic_string@DU?$char_traits@D@std@@V?$allocator@D@2@@std@@@std@@KV?$shared_ptr@VMechanism@@@3@KKV23@@Z 00000001800216c0 f   pkcs11.obj
 0001:00020940       ?C_UnwrapKey@PKCS11@@QEAAKKV?$shared_ptr@VMechanism@@@std@@KV?$shared_ptr@V?$basic_string@DU?$char_traits@D@std@@V?$allocator@D@2@@std@@@3@V?$shared_ptr@VAttributes@@@3@@Z 0000000180021940 f   pkcs11.obj
 0001:00020b90       ?C_DeriveKey@PKCS11@@QEAAKKV?$shared_ptr@VMechanism@@@std@@KV?$shared_ptr@VAttributes@@@3@@Z 0000000180021b90 f   pkcs11.obj
 0001:00020d80       ?C_SeedRandom@PKCS11@@QEAAXKPEAD_K@Z 0000000180021d80 f   pkcs11.obj
 0001:00020ef0       ?C_GenerateRandom@PKCS11@@QEAAXKPEAD_K@Z 0000000180021ef0 f   pkcs11.obj
 0001:00021060       ??0?$basic_string@DU?$char_traits@D@std@@V?$allocator@D@2@@std@@QEAA@$$QEAV01@@Z 0000000180022060 f i pkcs11.obj
 0001:000210e0       ??Y?$basic_string@DU?$char_traits@D@std@@V?$allocator@D@2@@std@@QEAAAEAV01@PEBD@Z 00000001800220e0 f i pkcs11.obj
 0001:000210f0       ?substr@?$basic_string@DU?$char_traits@D@std@@V?$allocator@D@2@@std@@QEBA?AV12@_K0@Z 00000001800220f0 f i pkcs11.obj
 0001:00021130       ??4?$shared_ptr@V?$basic_string@DU?$char_traits@D@std@@V?$allocator@D@2@@std@@@std@@QEAAAEAV01@AEBV01@@Z 0000000180022130 f i pkcs11.obj
 0001:000211b0       ??1?$vector@KV?$allocator@K@std@@@std@@QEAA@XZ 00000001800221b0 f i pkcs11.obj
 0001:000211e0       ?append@?$basic_string@DU?$char_traits@D@std@@V?$allocator@D@2@@std@@QEAAAEAV12@PEBD_K@Z 00000001800221e0 f i pkcs11.obj
 0001:00021330       ??$?HDU?$char_traits@D@std@@V?$allocator@D@1@@std@@YA?AV?$basic_string@DU?$char_traits@D@std@@V?$allocator@D@2@@0@PEBD$$QEAV10@@Z 0000000180022330 f i pkcs11.obj
 0001:00021370       ??$make_shared@UCK_INFO@@$$$V@std@@YA?AV?$shared_ptr@UCK_INFO@@@0@XZ 0000000180022370 f i pkcs11.obj
 0001:00021420       ??$make_shared@UCK_SLOT_INFO@@$$$V@std@@YA?AV?$shared_ptr@UCK_SLOT_INFO@@@0@XZ 0000000180022420 f i pkcs11.obj
 0001:000214c0       ??$make_shared@UCK_TOKEN_INFO@@$$$V@std@@YA?AV?$shared_ptr@UCK_TOKEN_INFO@@@0@XZ 00000001800224c0 f i pkcs11.obj
 0001:00021560       ??$make_shared@UCK_MECHANISM_INFO@@$$$V@std@@YA?AV?$shared_ptr@UCK_MECHANISM_INFO@@@0@XZ 0000000180022560 f i pkcs11.obj
 0001:000215f0       ??$make_shared@UCK_SESSION_INFO@@$$$V@std@@YA?AV?$shared_ptr@UCK_SESSION_INFO@@@0@XZ 00000001800225f0 f i pkcs11.obj
 0001:00021680       ??$make_shared@UKEY_PAIR@@$$$V@std@@YA?AV?$shared_ptr@UKEY_PAIR@@@0@XZ 0000000180022680 f i pkcs11.obj
 0001:00021710       ??1?$Persistent@VObject@v8@@V?$NonCopyablePersistentTraits@VObject@v8@@@2@@Nan@@QEAA@XZ 0000000180022710 f i node.obj
 0001:00021710       ?_Destroy@?$_Ref_count_obj@UCK_TOKEN_INFO@@@std@@EEAAXXZ 0000000180022710 f i pkcs11.obj
 0001:00021710       ?_Destroy@?$_Ref_count_obj@UCK_INFO@@@std@@EEAAXXZ 0000000180022710 f i pkcs11.obj
 0001:00021710       ?_Destroy@?$_Ref_count_obj@UCK_SLOT_INFO@@@std@@EEAAXXZ 0000000180022710 f i pkcs11.obj
 0001:00021710       ??1?$Persistent@VFunction@v8@@V?$NonCopyablePersistentTraits@VFunction@v8@@@2@@Nan@@QEAA@XZ 0000000180022710 f i node.obj
 0001:00021710       ?_Destroy@?$_Ref_count_obj@UCK_SESSION_INFO@@@std@@EEAAXXZ 0000000180022710 f i pkcs11.obj
 0001:00021710       ??1?$Persistent@VObject@v8@@V?$NonCopyablePersistentTraits@VObject@v8@@@2@@v8@@QEAA@XZ 0000000180022710 f i node.obj
 0001:00021710       ?_Destroy@?$_Ref_count_obj@UKEY_PAIR@@@std@@EEAAXXZ 0000000180022710 f i pkcs11.obj
 0001:00021710       ?_Destroy@?$_Ref_count_obj@UCK_MECHANISM_INFO@@@std@@EEAAXXZ 0000000180022710 f i pkcs11.obj
 0001:00021720       ?insert@?$basic_string@DU?$char_traits@D@std@@V?$allocator@D@2@@std@@QEAAAEAV12@_KPEBD0@Z 0000000180022720 f i pkcs11.obj
 0001:00021860       ?insert@?$basic_string@DU?$char_traits@D@std@@V?$allocator@D@2@@std@@QEAAAEAV12@_KAEBV12@00@Z 0000000180022860 f i pkcs11.obj
 0001:000219c0       ??_GAttributes@@QEAAPEAXI@Z 00000001800229c0 f i pkcs11.obj
 0001:00021a40       ?_Destroy@?$_Ref_count@VAttributes@@@std@@EEAAXXZ 0000000180022a40 f i pkcs11.obj
 0001:00021a50       ?Call@Callback@Nan@@QEBA?AV?$MaybeLocal@VValue@v8@@@v8@@HQEAV?$Local@VValue@v8@@@4@PEAVAsyncResource@2@@Z 0000000180022a50 f i async.obj
 0001:00021b10       ?Call_@Callback@Nan@@AEBA?AV?$Local@VValue@v8@@@v8@@PEAVIsolate@4@V?$Local@VObject@v8@@@4@HQEAV34@@Z 0000000180022b10 f i async.obj
 0001:00021bd0       ?SetErrorMessage@AsyncWorker@Nan@@IEAAXPEBD@Z 0000000180022bd0 f i async.obj
 0001:00021cb0       ?Execute@AsyncGenerateKey@@UEAAXXZ 0000000180022cb0 f   async.obj
 0001:00021d50       ?HandleOKCallback@AsyncGenerateKey@@UEAAXXZ 0000000180022d50 f   async.obj
 0001:00021dd0       ?Execute@AsyncGenerateKeyPair@@UEAAXXZ 0000000180022dd0 f   async.obj
 0001:00021ef0       ?HandleOKCallback@AsyncGenerateKeyPair@@UEAAXXZ 0000000180022ef0 f   async.obj
 0001:00022050       ?Execute@AsyncCrypto@@UEAAXXZ 0000000180023050 f   async.obj
 0001:000223f0       ?HandleOKCallback@AsyncCrypto@@UEAAXXZ 00000001800233f0 f   async.obj
 0001:00022500       ?Execute@AsyncWrapKey@@UEAAXXZ 0000000180023500 f   async.obj
 0001:00022600       ?HandleOKCallback@AsyncWrapKey@@UEAAXXZ 0000000180023600 f   async.obj
 0001:000226f0       ?Execute@AsyncUnwrapKey@@UEAAXXZ 00000001800236f0 f   async.obj
 0001:000227d0       ?HandleOKCallback@AsyncUnwrapKey@@UEAAXXZ 00000001800237d0 f   async.obj
 0001:00022860       ?Execute@AsyncDeriveKey@@UEAAXXZ 0000000180023860 f   async.obj
 0001:00022910       ?HandleOKCallback@AsyncDeriveKey@@UEAAXXZ 0000000180023910 f   async.obj
 0001:000229a0       ??1ObjectWrap@node@@UEAA@XZ 00000001800239a0 f i node.obj
 0001:00022a20       ?Wrap@ObjectWrap@node@@IEAAXV?$Local@VObject@v8@@@v8@@@Z 0000000180023a20 f i node.obj
 0001:00022b00       ?Ref@ObjectWrap@node@@MEAAXXZ 0000000180023b00 f i node.obj
 0001:00022b40       ?Unref@ObjectWrap@node@@MEAAXXZ 0000000180023b40 f i node.obj
 0001:00022bf0       ?WeakCallback@ObjectWrap@node@@CAXAEBV?$WeakCallbackInfo@VObjectWrap@node@@@v8@@@Z 0000000180023bf0 f i node.obj
 0001:00022c50       ??_EObjectWrap@node@@UEAAPEAXI@Z 0000000180023c50 f i * CIL library *:* CIL module *
 0001:00022c50       ??_GObjectWrap@node@@UEAAPEAXI@Z 0000000180023c50 f i node.obj
 0001:00022e20       ?NewInstance@Nan@@YA?AV?$MaybeLocal@VObject@v8@@@v8@@V?$Local@VFunction@v8@@@3@HQEAV?$Local@VValue@v8@@@3@@Z 0000000180023e20 f i node.obj
 0001:00022ed0       ?NewInstance@Nan@@YA?AV?$MaybeLocal@VObject@v8@@@v8@@V?$Local@VObjectTemplate@v8@@@3@@Z 0000000180023ed0 f i node.obj
 0001:00022f70       ?GetFunction@Nan@@YA?AV?$MaybeLocal@VFunction@v8@@@v8@@V?$Local@VFunctionTemplate@v8@@@3@@Z 0000000180023f70 f i node.obj
 0001:00023010       ?convert@?$ToFactory@VUint32@v8@@@imp@Nan@@SA?AV?$MaybeLocal@VUint32@v8@@@v8@@V?$Local@VValue@v8@@@5@@Z 0000000180024010 f i node.obj
 0001:000230b0       ?convert@?$ToFactory@VInt32@v8@@@imp@Nan@@SA?AV?$MaybeLocal@VInt32@v8@@@v8@@V?$Local@VValue@v8@@@5@@Z 00000001800240b0 f i node.obj
 0001:00023150       ?convert@?$ToFactory@I@imp@Nan@@SA?AV?$Maybe@I@v8@@V?$Local@VValue@v8@@@5@@Z 0000000180024150 f i node.obj
 0001:000231d0       ?New@?$Factory@VFunctionTemplate@v8@@@imp@Nan@@SA?AV?$Local@VFunctionTemplate@v8@@@v8@@P6AXAEBV?$FunctionCallbackInfo@VValue@v8@@@3@@ZV?$Local@VValue@v8@@@5@V?$Local@VSignature@v8@@@5@@Z 00000001800241d0 f i node.obj
 0001:00023350       ?ThrowError@Nan@@YAXPEBD@Z 0000000180024350 f i node.obj
 0001:000233f0       ?ThrowTypeError@Nan@@YAXV?$Local@VString@v8@@@v8@@@Z 00000001800243f0 f i node.obj
 0001:00023460       ??0AsyncWorker@Nan@@QEAA@PEAVCallback@1@PEBD@Z 0000000180024460 f i node.obj
 0001:00023540       ??1AsyncWorker@Nan@@UEAA@XZ 0000000180024540 f i node.obj
 0001:00023610       ?WorkComplete@AsyncWorker@Nan@@UEAAXXZ 0000000180024610 f i node.obj
 0001:000236b0       ?Destroy@AsyncWorker@Nan@@UEAAXXZ 00000001800246b0 f i node.obj
 0001:000236d0       ?HandleOKCallback@AsyncWorker@Nan@@MEAAXXZ 00000001800246d0 f i node.obj
 0001:00023720       ?HandleErrorCallback@AsyncWorker@Nan@@MEAAXXZ 0000000180024720 f i node.obj
 0001:000237d0       ??_GAsyncWorker@Nan@@UEAAPEAXI@Z 00000001800247d0 f i node.obj
 0001:000237d0       ??_EAsyncWorker@Nan@@UEAAPEAXI@Z 00000001800247d0 f i * CIL library *:* CIL module *
 0001:00023800       ?AsyncExecute@Nan@@YAXPEAUuv_work_s@@@Z 0000000180024800 f i node.obj
 0001:00023810       ?AsyncExecuteComplete@Nan@@YAXPEAUuv_work_s@@@Z 0000000180024810 f i node.obj
 0001:00023840       ?AsyncQueueWorker@Nan@@YAXPEAVAsyncWorker@1@@Z 0000000180024840 f i node.obj
 0001:00023880       ?SetPrototypeMethod@Nan@@YAXV?$Local@VFunctionTemplate@v8@@@v8@@PEBDP6AXAEBV?$FunctionCallbackInfo@VValue@v8@@@1@@Z@Z 0000000180024880 f i node.obj
 0001:00023980       ?SetAccessor@Nan@@YAXV?$Local@VObjectTemplate@v8@@@v8@@V?$Local@VString@v8@@@3@P6AX1AEBV?$PropertyCallbackInfo@VValue@v8@@@1@@ZP6AX1V?$Local@VValue@v8@@@3@AEBV?$PropertyCallbackInfo@X@1@@Z4W4AccessControl@3@W4PropertyAttribute@3@V?$Local@VAccessorSignature@v8@@@3@@Z 0000000180024980 f i node.obj
 0001:00023ab0       ??0AsyncGenerateKey@@QEAA@PEAVCallback@Nan@@V?$shared_ptr@VPKCS11@@@std@@KV?$shared_ptr@VMechanism@@@4@V?$shared_ptr@VAttributes@@@4@@Z 0000000180024ab0 f i node.obj
 0001:00023c00       ??1AsyncGenerateKey@@UEAA@XZ 0000000180024c00 f i node.obj
 0001:00023cb0       ??_GAsyncGenerateKey@@UEAAPEAXI@Z 0000000180024cb0 f i node.obj
 0001:00023cb0       ??_EAsyncGenerateKey@@UEAAPEAXI@Z 0000000180024cb0 f i * CIL library *:* CIL module *
 0001:00023ce0       ??0AsyncGenerateKeyPair@@QEAA@PEAVCallback@Nan@@V?$shared_ptr@VPKCS11@@@std@@KV?$shared_ptr@VMechanism@@@4@V?$shared_ptr@VAttributes@@@4@3@Z 0000000180024ce0 f i node.obj
 0001:00023ea0       ??1AsyncGenerateKeyPair@@UEAA@XZ 0000000180024ea0 f i node.obj
 0001:00023fa0       ??_GAsyncGenerateKeyPair@@UEAAPEAXI@Z 0000000180024fa0 f i node.obj
 0001:00023fa0       ??_EAsyncGenerateKeyPair@@UEAAPEAXI@Z 0000000180024fa0 f i * CIL library *:* CIL module *
 0001:00023fd0       ??0AsyncCrypto@@QEAA@PEAVCallback@Nan@@V?$shared_ptr@VPKCS11@@@std@@HKV?$shared_ptr@V?$basic_string@DU?$char_traits@D@std@@V?$allocator@D@2@@std@@@4@2@Z 0000000180024fd0 f i node.obj
 0001:00024140       ??1AsyncCrypto@@UEAA@XZ    0000000180025140 f i node.obj
 0001:00024220       ??_EAsyncCrypto@@UEAAPEAXI@Z 0000000180025220 f i * CIL library *:* CIL module *
 0001:00024220       ??_GAsyncCrypto@@UEAAPEAXI@Z 0000000180025220 f i node.obj
 0001:00024250       ??0AsyncWrapKey@@QEAA@PEAVCallback@Nan@@V?$shared_ptr@VPKCS11@@@std@@KV?$shared_ptr@VMechanism@@@4@KKV?$shared_ptr@V?$basic_string@DU?$char_traits@D@std@@V?$allocator@D@2@@std@@@4@@Z 0000000180025250 f i node.obj
 0001:000243d0       ??1AsyncWrapKey@@UEAA@XZ   00000001800253d0 f i node.obj
 0001:000244b0       ??_GAsyncWrapKey@@UEAAPEAXI@Z 00000001800254b0 f i node.obj
 0001:000244b0       ??_EAsyncWrapKey@@UEAAPEAXI@Z 00000001800254b0 f i * CIL library *:* CIL module *
 0001:000244e0       ??0AsyncUnwrapKey@@QEAA@PEAVCallback@Nan@@V?$shared_ptr@VPKCS11@@@std@@KV?$shared_ptr@VMechanism@@@4@KV?$shared_ptr@V?$basic_string@DU?$char_traits@D@std@@V?$allocator@D@2@@std@@@4@V?$shared_ptr@VAttributes@@@4@@Z 00000001800254e0 f i node.obj
 0001:00024690       ??1AsyncUnwrapKey@@UEAA@XZ 0000000180025690 f i node.obj
 0001:00024770       ??_GAsyncUnwrapKey@@UEAAPEAXI@Z 0000000180025770 f i node.obj
 0001:00024770       ??_EAsyncUnwrapKey@@UEAAPEAXI@Z 0000000180025770 f i * CIL library *:* CIL module *
 0001:000247a0       ??0AsyncDeriveKey@@QEAA@PEAVCallback@Nan@@V?$shared_ptr@VPKCS11@@@std@@KV?$shared_ptr@VMechanism@@@4@KV?$shared_ptr@VAttributes@@@4@@Z 00000001800257a0 f i node.obj
 0001:00024900       ??1AsyncDeriveKey@@UEAA@XZ 0000000180025900 f i node.obj
 0001:000249b0       ??_EAsyncDeriveKey@@UEAAPEAXI@Z 00000001800259b0 f i * CIL library *:* CIL module *
 0001:000249b0       ??_GAsyncDeriveKey@@UEAAPEAXI@Z 00000001800259b0 f i node.obj
 0001:00024fb0       ?Init@WPKCS11@@SAXV?$Local@VObject@v8@@@v8@@@Z 0000000180025fb0 f   node.obj
 0001:000256d0       ?GetLibPath@WPKCS11@@SAXV?$Local@VString@v8@@@v8@@AEBV?$PropertyCallbackInfo@VValue@v8@@@Nan@@@Z 00000001800266d0 f   node.obj
 0001:000257d0       ?New@WPKCS11@@SAXAEBV?$FunctionCallbackInfo@VValue@v8@@@Nan@@@Z 00000001800267d0 f   node.obj
 0001:000259d0       ??_GWPKCS11@@UEAAPEAXI@Z   00000001800269d0 f i node.obj
 0001:000259d0       ??_EWPKCS11@@UEAAPEAXI@Z   00000001800269d0 f i * CIL library *:* CIL module *
 0001:00025a50       ?Load@WPKCS11@@SAXAEBV?$FunctionCallbackInfo@VValue@v8@@@Nan@@@Z 0000000180026a50 f   node.obj
 0001:00025e30       ?Close@WPKCS11@@SAXAEBV?$FunctionCallbackInfo@VValue@v8@@@Nan@@@Z 0000000180026e30 f   node.obj
 0001:00025eb0       ?C_Initialize@WPKCS11@@SAXAEBV?$FunctionCallbackInfo@VValue@v8@@@Nan@@@Z 0000000180026eb0 f   node.obj
 0001:00026430       ?C_Finalize@WPKCS11@@SAXAEBV?$FunctionCallbackInfo@VValue@v8@@@Nan@@@Z 0000000180027430 f   node.obj
 0001:000264b0       ?C_GetInfo@WPKCS11@@SAXAEBV?$FunctionCallbackInfo@VValue@v8@@@Nan@@@Z 00000001800274b0 f   node.obj
 0001:00026880       ?C_GetSlotList@WPKCS11@@SAXAEBV?$FunctionCallbackInfo@VValue@v8@@@Nan@@@Z 0000000180027880 f   node.obj
 0001:00026a20       ?C_GetSlotInfo@WPKCS11@@SAXAEBV?$FunctionCallbackInfo@VValue@v8@@@Nan@@@Z 0000000180027a20 f   node.obj
 0001:00026f30       ?C_GetTokenInfo@WPKCS11@@SAXAEBV?$FunctionCallbackInfo@VValue@v8@@@Nan@@@Z 0000000180027f30 f   node.obj
 0001:00027b70       ?C_GetMechanismList@WPKCS11@@SAXAEBV?$FunctionCallbackInfo@VValue@v8@@@Nan@@@Z 0000000180028b70 f   node.obj
 0001:00027e60       ?C_GetMechanismInfo@WPKCS11@@SAXAEBV?$FunctionCallbackInfo@VValue@v8@@@Nan@@@Z 0000000180028e60 f   node.obj
 0001:00028570       ?C_InitToken@WPKCS11@@SAXAEBV?$FunctionCallbackInfo@VValue@v8@@@Nan@@@Z 0000000180029570 f   node.obj
 0001:00028950       ?C_InitPIN@WPKCS11@@SAXAEBV?$FunctionCallbackInfo@VValue@v8@@@Nan@@@Z 0000000180029950 f   node.obj
 0001:00028c20       ?C_SetPIN@WPKCS11@@SAXAEBV?$FunctionCallbackInfo@VValue@v8@@@Nan@@@Z 0000000180029c20 f   node.obj
 0001:00028f80       ?C_OpenSession@WPKCS11@@SAXAEBV?$FunctionCallbackInfo@VValue@v8@@@Nan@@@Z 0000000180029f80 f   node.obj
 0001:000294b0       ?C_CloseSession@WPKCS11@@SAXAEBV?$FunctionCallbackInfo@VValue@v8@@@Nan@@@Z 000000018002a4b0 f   node.obj
 0001:000296e0       ?C_CloseAllSessions@WPKCS11@@SAXAEBV?$FunctionCallbackInfo@VValue@v8@@@Nan@@@Z 000000018002a6e0 f   node.obj
 0001:00029910       ?C_GetSessionInfo@WPKCS11@@SAXAEBV?$FunctionCallbackInfo@VValue@v8@@@Nan@@@Z 000000018002a910 f   node.obj
 0001:00029d80       ?C_Login@WPKCS11@@SAXAEBV?$FunctionCallbackInfo@VValue@v8@@@Nan@@@Z 000000018002ad80 f   node.obj
 0001:0002a340       ?C_Logout@WPKCS11@@SAXAEBV?$FunctionCallbackInfo@VValue@v8@@@Nan@@@Z 000000018002b340 f   node.obj
 0001:0002a570       ?C_FindObjectsInit@WPKCS11@@SAXAEBV?$FunctionCallbackInfo@VValue@v8@@@Nan@@@Z 000000018002b570 f   node.obj
 0001:0002a900       ?C_FindObjects@WPKCS11@@SAXAEBV?$FunctionCallbackInfo@VValue@v8@@@Nan@@@Z 000000018002b900 f   node.obj
 0001:0002ab70       ?C_FindObjectsFinal@WPKCS11@@SAXAEBV?$FunctionCallbackInfo@VValue@v8@@@Nan@@@Z 000000018002bb70 f   node.obj
 0001:0002ada0       ?C_GetAttributeValue@WPKCS11@@SAXAEBV?$FunctionCallbackInfo@VValue@v8@@@Nan@@@Z 000000018002bda0 f   node.obj
 0001:0002b4b0       ?C_SetAttributeValue@WPKCS11@@SAXAEBV?$FunctionCallbackInfo@VValue@v8@@@Nan@@@Z 000000018002c4b0 f   node.obj
 0001:0002baf0       ?C_CreateObject@WPKCS11@@SAXAEBV?$FunctionCallbackInfo@VValue@v8@@@Nan@@@Z 000000018002caf0 f   node.obj
 0001:0002bf90       ?C_CopyObject@WPKCS11@@SAXAEBV?$FunctionCallbackInfo@VValue@v8@@@Nan@@@Z 000000018002cf90 f   node.obj
 0001:0002c5d0       ?C_DestroyObject@WPKCS11@@SAXAEBV?$FunctionCallbackInfo@VValue@v8@@@Nan@@@Z 000000018002d5d0 f   node.obj
 0001:0002c9a0       ?C_GetObjectSize@WPKCS11@@SAXAEBV?$FunctionCallbackInfo@VValue@v8@@@Nan@@@Z 000000018002d9a0 f   node.obj
 0001:0002cd90       ?C_EncryptInit@WPKCS11@@SAXAEBV?$FunctionCallbackInfo@VValue@v8@@@Nan@@@Z 000000018002dd90 f   node.obj
 0001:0002d3c0       ?C_Encrypt@WPKCS11@@SAXAEBV?$FunctionCallbackInfo@VValue@v8@@@Nan@@@Z 000000018002e3c0 f   node.obj
 0001:0002df40       ?C_EncryptUpdate@WPKCS11@@SAXAEBV?$FunctionCallbackInfo@VValue@v8@@@Nan@@@Z 000000018002ef40 f   node.obj
 0001:0002e920       ?C_EncryptFinal@WPKCS11@@SAXAEBV?$FunctionCallbackInfo@VValue@v8@@@Nan@@@Z 000000018002f920 f   node.obj
 0001:0002ef40       ?C_DecryptInit@WPKCS11@@SAXAEBV?$FunctionCallbackInfo@VValue@v8@@@Nan@@@Z 000000018002ff40 f   node.obj
 0001:0002f570       ?C_Decrypt@WPKCS11@@SAXAEBV?$FunctionCallbackInfo@VValue@v8@@@Nan@@@Z 0000000180030570 f   node.obj
 0001:000300f0       ?C_DecryptUpdate@WPKCS11@@SAXAEBV?$FunctionCallbackInfo@VValue@v8@@@Nan@@@Z 00000001800310f0 f   node.obj
 0001:00030ad0       ?C_DecryptFinal@WPKCS11@@SAXAEBV?$FunctionCallbackInfo@VValue@v8@@@Nan@@@Z 0000000180031ad0 f   node.obj
 0001:000310f0       ?C_DigestInit@WPKCS11@@SAXAEBV?$FunctionCallbackInfo@VValue@v8@@@Nan@@@Z 00000001800320f0 f   node.obj
 0001:00031560       ?C_Digest@WPKCS11@@SAXAEBV?$FunctionCallbackInfo@VValue@v8@@@Nan@@@Z 0000000180032560 f   node.obj
 0001:000320d0       ?C_DigestUpdate@WPKCS11@@SAXAEBV?$FunctionCallbackInfo@VValue@v8@@@Nan@@@Z 00000001800330d0 f   node.obj
 0001:00032640       ?C_DigestFinal@WPKCS11@@SAXAEBV?$FunctionCallbackInfo@VValue@v8@@@Nan@@@Z 0000000180033640 f   node.obj
 0001:00032c60       ?C_DigestKey@WPKCS11@@SAXAEBV?$FunctionCallbackInfo@VValue@v8@@@Nan@@@Z 0000000180033c60 f   node.obj
 0001:00033030       ?C_SignInit@WPKCS11@@SAXAEBV?$FunctionCallbackInfo@VValue@v8@@@Nan@@@Z 0000000180034030 f   node.obj
 0001:00033660       ?C_Sign@WPKCS11@@SAXAEBV?$FunctionCallbackInfo@VValue@v8@@@Nan@@@Z 0000000180034660 f   node.obj
 0001:000341e0       ?C_SignUpdate@WPKCS11@@SAXAEBV?$FunctionCallbackInfo@VValue@v8@@@Nan@@@Z 00000001800351e0 f   node.obj
 0001:00034750       ?C_SignFinal@WPKCS11@@SAXAEBV?$FunctionCallbackInfo@VValue@v8@@@Nan@@@Z 0000000180035750 f   node.obj
 0001:00034d70       ?C_SignRecoverInit@WPKCS11@@SAXAEBV?$FunctionCallbackInfo@VValue@v8@@@Nan@@@Z 0000000180035d70 f   node.obj
 0001:000353a0       ?C_SignRecover@WPKCS11@@SAXAEBV?$FunctionCallbackInfo@VValue@v8@@@Nan@@@Z 00000001800363a0 f   node.obj
 0001:00035d80       ?C_VerifyInit@WPKCS11@@SAXAEBV?$FunctionCallbackInfo@VValue@v8@@@Nan@@@Z 0000000180036d80 f   node.obj
 0001:000363b0       ?C_Verify@WPKCS11@@SAXAEBV?$FunctionCallbackInfo@VValue@v8@@@Nan@@@Z 00000001800373b0 f   node.obj
 0001:00036e80       ?C_VerifyUpdate@WPKCS11@@SAXAEBV?$FunctionCallbackInfo@VValue@v8@@@Nan@@@Z 0000000180037e80 f   node.obj
 0001:000373f0       ?C_VerifyFinal@WPKCS11@@SAXAEBV?$FunctionCallbackInfo@VValue@v8@@@Nan@@@Z 00000001800383f0 f   node.obj
 0001:00037980       ?C_VerifyRecoverInit@WPKCS11@@SAXAEBV?$FunctionCallbackInfo@VValue@v8@@@Nan@@@Z 0000000180038980 f   node.obj
 0001:00037fb0       ?C_VerifyRecover@WPKCS11@@SAXAEBV?$FunctionCallbackInfo@VValue@v8@@@Nan@@@Z 0000000180038fb0 f   node.obj
 0001:00038990       ?C_GenerateKey@WPKCS11@@SAXAEBV?$FunctionCallbackInfo@VValue@v8@@@Nan@@@Z 0000000180039990 f   node.obj
 0001:00039220       ?C_GenerateKeyPair@WPKCS11@@SAXAEBV?$FunctionCallbackInfo@VValue@v8@@@Nan@@@Z 000000018003a220 f   node.obj
 0001:00039f50       ?C_WrapKey@WPKCS11@@SAXAEBV?$FunctionCallbackInfo@VValue@v8@@@Nan@@@Z 000000018003af50 f   node.obj
 0001:0003ad70       ?C_UnwrapKey@WPKCS11@@SAXAEBV?$FunctionCallbackInfo@VValue@v8@@@Nan@@@Z 000000018003bd70 f   node.obj
 0001:0003bc20       ?C_DeriveKey@WPKCS11@@SAXAEBV?$FunctionCallbackInfo@VValue@v8@@@Nan@@@Z 000000018003cc20 f   node.obj
 0001:0003c6b0       ?C_SeedRandom@WPKCS11@@SAXAEBV?$FunctionCallbackInfo@VValue@v8@@@Nan@@@Z 000000018003d6b0 f   node.obj
 0001:0003cad0       ?C_GenerateRandom@WPKCS11@@SAXAEBV?$FunctionCallbackInfo@VValue@v8@@@Nan@@@Z 000000018003dad0 f   node.obj
 0001:0003cef0       ??$Unwrap@VWPKCS11@@@ObjectWrap@node@@SAPEAVWPKCS11@@V?$Local@VObject@v8@@@v8@@@Z 000000018003def0 f i node.obj
 0001:0003cf70       ?_Destroy@?$_Ref_count@VPKCS11@@@std@@EEAAXXZ 000000018003df70 f i node.obj
 0001:0003cfd0       ?_Destroy@?$_Ref_count@VMechanism@@@std@@EEAAXXZ 000000018003dfd0 f i node.obj
 0001:0003d08c       __imp_load_node_module_register 000000018003e08c f   node:node.exe
 0001:0003d098       __tailMerge_node_exe       000000018003e098 f i node:node.exe
 0001:0003d111       __imp_load_??1HandleScope@v8@@QEAA@XZ 000000018003e111 f   node:node.exe
 0001:0003d11d       __imp_load_??0HandleScope@v8@@QEAA@PEAVIsolate@1@@Z 000000018003e11d f   node:node.exe
 0001:0003d129       __imp_load_?GetCurrent@Isolate@v8@@SAPEAV12@XZ 000000018003e129 f   node:node.exe
 0001:0003d135       __imp_load_?ToLocalEmpty@V8@v8@@CAXXZ 000000018003e135 f   node:node.exe
 0001:0003d141       __imp_load_?NewFromUtf8@String@v8@@SA?AV?$MaybeLocal@VString@v8@@@2@PEAVIsolate@2@PEBDW4NewStringType@2@H@Z 000000018003e141 f   node:node.exe
 0001:0003d14d       __imp_load_?New@Number@v8@@SA?AV?$Local@VNumber@v8@@@2@PEAVIsolate@2@N@Z 000000018003e14d f   node:node.exe
 0001:0003d159       __imp_load_?DefineOwnProperty@Object@v8@@QEAA?AV?$Maybe@_N@2@V?$Local@VContext@v8@@@2@V?$Local@VName@v8@@@2@V?$Local@VValue@v8@@@2@W4PropertyAttribute@2@@Z 000000018003e159 f   node:node.exe
 0001:0003d165       __imp_load_?GetCurrentContext@Isolate@v8@@QEAA?AV?$Local@VContext@v8@@@2@XZ 000000018003e165 f   node:node.exe
 0001:0003d171       __imp_load_?Length@Buffer@node@@YA_KV?$Local@VValue@v8@@@v8@@@Z 000000018003e171 f   node:node.exe
 0001:0003d17d       __imp_load_?Data@Buffer@node@@YAPEADV?$Local@VValue@v8@@@v8@@@Z 000000018003e17d f   node:node.exe
 0001:0003d189       __imp_load_?HasInstance@Buffer@node@@YA_NV?$Local@VValue@v8@@@v8@@@Z 000000018003e189 f   node:node.exe
 0001:0003d195       __imp_load_?Copy@Buffer@node@@YA?AV?$MaybeLocal@VObject@v8@@@v8@@PEAVIsolate@4@PEBD_K@Z 000000018003e195 f   node:node.exe
 0001:0003d1a1       __imp_load_?Escape@EscapableHandleScope@v8@@AEAAPEAPEAVObject@internal@2@PEAPEAV342@@Z 000000018003e1a1 f   node:node.exe
 0001:0003d1ad       __imp_load_??0EscapableHandleScope@v8@@QEAA@PEAVIsolate@1@@Z 000000018003e1ad f   node:node.exe
 0001:0003d1b9       __imp_load_?Uint32Value@Value@v8@@QEBAIXZ 000000018003e1b9 f   node:node.exe
 0001:0003d1c5       __imp_load_?ToNumber@Value@v8@@QEBA?AV?$MaybeLocal@VNumber@v8@@@2@V?$Local@VContext@v8@@@2@@Z 000000018003e1c5 f   node:node.exe
 0001:0003d1d1       __imp_load_?IsNumber@Value@v8@@QEBA_NXZ 000000018003e1d1 f   node:node.exe
 0001:0003d1dd       __imp_load_?IsBoolean@Value@v8@@QEBA_NXZ 000000018003e1dd f   node:node.exe
 0001:0003d1e9       __imp_load_?IsObject@Value@v8@@QEBA_NXZ 000000018003e1e9 f   node:node.exe
 0001:0003d1f5       __imp_load_?IsArray@Value@v8@@QEBA_NXZ 000000018003e1f5 f   node:node.exe
 0001:0003d201       __imp_load_??1Utf8Value@String@v8@@QEAA@XZ 000000018003e201 f   node:node.exe
 0001:0003d20d       __imp_load_??0Utf8Value@String@v8@@QEAA@V?$Local@VValue@v8@@@2@@Z 000000018003e20d f   node:node.exe
 0001:0003d219       __imp_load_?New@Array@v8@@SA?AV?$Local@VArray@v8@@@2@PEAVIsolate@2@H@Z 000000018003e219 f   node:node.exe
 0001:0003d225       __imp_load_?Value@Boolean@v8@@QEBA_NXZ 000000018003e225 f   node:node.exe
 0001:0003d231       __imp_load_?New@Object@v8@@SA?AV?$Local@VObject@v8@@@2@PEAVIsolate@2@@Z 000000018003e231 f   node:node.exe
 0001:0003d23d       __imp_load_?Get@Object@v8@@QEAA?AV?$Local@VValue@v8@@@2@V32@@Z 000000018003e23d f   node:node.exe
 0001:0003d249       __imp_load_?Get@Object@v8@@QEAA?AV?$Local@VValue@v8@@@2@I@Z 000000018003e249 f   node:node.exe
 0001:0003d255       __imp_load_?Set@Object@v8@@QEAA_NV?$Local@VValue@v8@@@2@0@Z 000000018003e255 f   node:node.exe
 0001:0003d261       __imp_load_?Set@Object@v8@@QEAA_NIV?$Local@VValue@v8@@@2@@Z 000000018003e261 f   node:node.exe
 0001:0003d26d       __imp_load_?ToObject@Value@v8@@QEBA?AV?$Local@VObject@v8@@@2@XZ 000000018003e26d f   node:node.exe
 0001:0003d279       __imp_load_?ToBoolean@Value@v8@@QEBA?AV?$Local@VBoolean@v8@@@2@XZ 000000018003e279 f   node:node.exe
 0001:0003d285       __imp_load_??1EscapableHandleScope@v8@@QEAA@XZ 000000018003e285 f   node:node.exe
 0001:0003d291       __imp_load_?HasInstance@Buffer@node@@YA_NV?$Local@VObject@v8@@@v8@@@Z 000000018003e291 f   node:node.exe
 0001:0003d29d       __imp_load_?Length@Buffer@node@@YA_KV?$Local@VObject@v8@@@v8@@@Z 000000018003e29d f   node:node.exe
 0001:0003d2a9       __imp_load_?Data@Buffer@node@@YAPEADV?$Local@VObject@v8@@@v8@@@Z 000000018003e2a9 f   node:node.exe
 0001:0003d2b5       __imp_load_?New@Buffer@node@@YA?AV?$MaybeLocal@VObject@v8@@@v8@@PEAVIsolate@4@_K@Z 000000018003e2b5 f   node:node.exe
 0001:0003d2c1       __imp_load_?MakeCallback@node@@YA?AV?$Local@VValue@v8@@@v8@@PEAVIsolate@3@V?$Local@VObject@v8@@@3@V?$Local@VFunction@v8@@@3@HPEAV23@@Z 000000018003e2c1 f   node:node.exe
 0001:0003d2cd       __imp_load_?Global@Context@v8@@QEAA?AV?$Local@VObject@v8@@@2@XZ 000000018003e2cd f   node:node.exe
 0001:0003d2d9       __imp_load_?CreateHandle@HandleScope@v8@@KAPEAPEAVObject@internal@2@PEAVIsolate@42@PEAV342@@Z 000000018003e2d9 f   node:node.exe
 0001:0003d2e5       __imp_load_?GetCurrentEventLoop@node@@YAPEAUuv_loop_s@@PEAVIsolate@v8@@@Z 000000018003e2e5 f   node:node.exe
 0001:0003d2f1       __imp_load_?New@Signature@v8@@SA?AV?$Local@VSignature@v8@@@2@PEAVIsolate@2@V?$Local@VFunctionTemplate@v8@@@2@@Z 000000018003e2f1 f   node:node.exe
 0001:0003d2fd       __imp_load_?FromJustIsNothing@V8@v8@@CAXXZ 000000018003e2fd f   node:node.exe
 0001:0003d309       __imp_load_?ClearWeak@V8@v8@@CAPEAXPEAPEAVObject@internal@2@@Z 000000018003e309 f   node:node.exe
 0001:0003d315       __imp_load_?MakeWeak@V8@v8@@CAXPEAPEAVObject@internal@2@PEAXP6AXAEBV?$WeakCallbackInfo@X@2@@ZW4WeakCallbackType@2@@Z 000000018003e315 f   node:node.exe
 0001:0003d321       __imp_load_?DisposeGlobal@V8@v8@@CAXPEAPEAVObject@internal@2@@Z 000000018003e321 f   node:node.exe
 0001:0003d32d       __imp_load_?GlobalizeReference@V8@v8@@CAPEAPEAVObject@internal@2@PEAVIsolate@42@PEAPEAV342@@Z 000000018003e32d f   node:node.exe
 0001:0003d339       __imp_load_?Uint32Value@Value@v8@@QEBA?AV?$Maybe@I@2@V?$Local@VContext@v8@@@2@@Z 000000018003e339 f   node:node.exe
 0001:0003d345       __imp_load_?ToInt32@Value@v8@@QEBA?AV?$MaybeLocal@VInt32@v8@@@2@V?$Local@VContext@v8@@@2@@Z 000000018003e345 f   node:node.exe
 0001:0003d351       __imp_load_?ToUint32@Value@v8@@QEBA?AV?$MaybeLocal@VUint32@v8@@@2@V?$Local@VContext@v8@@@2@@Z 000000018003e351 f   node:node.exe
 0001:0003d35d       __imp_load_?IsFunction@Value@v8@@QEBA_NXZ 000000018003e35d f   node:node.exe
 0001:0003d369       __imp_load_?SetClassName@FunctionTemplate@v8@@QEAAXV?$Local@VString@v8@@@2@@Z 000000018003e369 f   node:node.exe
 0001:0003d375       __imp_load_?PrototypeTemplate@FunctionTemplate@v8@@QEAA?AV?$Local@VObjectTemplate@v8@@@2@XZ 000000018003e375 f   node:node.exe
 0001:0003d381       __imp_load_?InstanceTemplate@FunctionTemplate@v8@@QEAA?AV?$Local@VObjectTemplate@v8@@@2@XZ 000000018003e381 f   node:node.exe
 0001:0003d38d       __imp_load_?GetFunction@FunctionTemplate@v8@@QEAA?AV?$Local@VFunction@v8@@@2@XZ 000000018003e38d f   node:node.exe
 0001:0003d399       __imp_load_?GetFunction@FunctionTemplate@v8@@QEAA?AV?$MaybeLocal@VFunction@v8@@@2@V?$Local@VContext@v8@@@2@@Z 000000018003e399 f   node:node.exe
 0001:0003d3a5       __imp_load_?New@FunctionTemplate@v8@@SA?AV?$Local@VFunctionTemplate@v8@@@2@PEAVIsolate@2@P6AXAEBV?$FunctionCallbackInfo@VValue@v8@@@2@@ZV?$Local@VValue@v8@@@2@V?$Local@VSignature@v8@@@2@HW4ConstructorBehavior@2@@Z 000000018003e3a5 f   node:node.exe
 0001:0003d3b1       __imp_load_?Error@Exception@v8@@SA?AV?$Local@VValue@v8@@@2@V?$Local@VString@v8@@@2@@Z 000000018003e3b1 f   node:node.exe
 0001:0003d3bd       __imp_load_?TypeError@Exception@v8@@SA?AV?$Local@VValue@v8@@@2@V?$Local@VString@v8@@@2@@Z 000000018003e3bd f   node:node.exe
 0001:0003d3c9       __imp_load_?Concat@String@v8@@SA?AV?$Local@VString@v8@@@2@V32@0@Z 000000018003e3c9 f   node:node.exe
 0001:0003d3d5       __imp_load_?CreateHandle@HandleScope@v8@@CAPEAPEAVObject@internal@2@PEAVHeapObject@42@PEAV342@@Z 000000018003e3d5 f   node:node.exe
 0001:0003d3e1       __imp_load_?SlowGetAlignedPointerFromInternalField@Object@v8@@AEAAPEAXH@Z 000000018003e3e1 f   node:node.exe
 0001:0003d3ed       __imp_load_?SlowGetInternalField@Object@v8@@AEAA?AV?$Local@VValue@v8@@@2@H@Z 000000018003e3ed f   node:node.exe
 0001:0003d3f9       __imp_load_?SetAlignedPointerInInternalField@Object@v8@@QEAAXHPEAX@Z 000000018003e3f9 f   node:node.exe
 0001:0003d405       __imp_load_?SetInternalField@Object@v8@@QEAAXHV?$Local@VValue@v8@@@2@@Z 000000018003e405 f   node:node.exe
 0001:0003d411       __imp_load_?InternalFieldCount@Object@v8@@QEAAHXZ 000000018003e411 f   node:node.exe
 0001:0003d41d       __imp_load_?Has@Object@v8@@QEAA_NV?$Local@VValue@v8@@@2@@Z 000000018003e41d f   node:node.exe
 0001:0003d429       __imp_load_?Set@Template@v8@@QEAAXV?$Local@VName@v8@@@2@V?$Local@VData@v8@@@2@W4PropertyAttribute@2@@Z 000000018003e429 f   node:node.exe
 0001:0003d435       __imp_load_?SetInternalFieldCount@ObjectTemplate@v8@@QEAAXH@Z 000000018003e435 f   node:node.exe
 0001:0003d441       __imp_load_?SetAccessor@ObjectTemplate@v8@@QEAAXV?$Local@VName@v8@@@2@P6AX0AEBV?$PropertyCallbackInfo@VValue@v8@@@2@@ZP6AX0V?$Local@VValue@v8@@@2@AEBV?$PropertyCallbackInfo@X@2@@Z3W4AccessControl@2@W4PropertyAttribute@2@V?$Local@VAccessorSignature@v8@@@2@@Z 000000018003e441 f   node:node.exe
 0001:0003d44d       __imp_load_?NewInstance@ObjectTemplate@v8@@QEAA?AV?$MaybeLocal@VObject@v8@@@2@V?$Local@VContext@v8@@@2@@Z 000000018003e44d f   node:node.exe
 0001:0003d459       __imp_load_?New@ObjectTemplate@v8@@SA?AV?$Local@VObjectTemplate@v8@@@2@PEAVIsolate@2@V?$Local@VFunctionTemplate@v8@@@2@@Z 000000018003e459 f   node:node.exe
 0001:0003d465       __imp_load_?NewFromUnsigned@Integer@v8@@SA?AV?$Local@VInteger@v8@@@2@PEAVIsolate@2@I@Z 000000018003e465 f   node:node.exe
 0001:0003d471       __imp_load_?New@Integer@v8@@SA?AV?$Local@VInteger@v8@@@2@PEAVIsolate@2@H@Z 000000018003e471 f   node:node.exe
 0001:0003d47d       __imp_load_?NewInstance@Function@v8@@QEBA?AV?$MaybeLocal@VObject@v8@@@2@V?$Local@VContext@v8@@@2@HQEAV?$Local@VValue@v8@@@2@@Z 000000018003e47d f   node:node.exe
 0001:0003d489       __imp_load_?ThrowException@Isolate@v8@@QEAA?AV?$Local@VValue@v8@@@2@V32@@Z 000000018003e489 f   node:node.exe
 0001:0003d495       __imp_load_?Value@External@v8@@QEBAPEAXXZ 000000018003e495 f   node:node.exe
 0001:0003d4a1       __imp_load_?New@External@v8@@SA?AV?$Local@VExternal@v8@@@2@PEAVIsolate@2@PEAX@Z 000000018003e4a1 f   node:node.exe
 0001:0003d4ad       __imp_load_uv_queue_work   000000018003e4ad f   node:node.exe
 0001:0003d4b9       __imp_load_?ToString@Value@v8@@QEBA?AV?$Local@VString@v8@@@2@XZ 000000018003e4b9 f   node:node.exe
 0001:0003d4c8       ??0bad_alloc@std@@QEAA@AEBV01@@Z 000000018003e4c8 f i libcpmt:xthrow.obj
 0001:0003d4ec       ??0length_error@std@@QEAA@AEBV01@@Z 000000018003e4ec f i libcpmt:xthrow.obj
 0001:0003d510       ??0logic_error@std@@QEAA@AEBV01@@Z 000000018003e510 f i libcpmt:xthrow.obj
 0001:0003d534       ??0out_of_range@std@@QEAA@AEBV01@@Z 000000018003e534 f i libcpmt:xthrow.obj
 0001:0003d558       ??1bad_alloc@std@@UEAA@XZ  000000018003e558 f i libcpmt:xthrow.obj
 0001:0003d568       ??1out_of_range@std@@UEAA@XZ 000000018003e568 f i libcpmt:xthrow.obj
 0001:0003d568       ??1length_error@std@@UEAA@XZ 000000018003e568 f i libcpmt:xthrow.obj
 0001:0003d570       ??_Gbad_alloc@std@@UEAAPEAXI@Z 000000018003e570 f i libcpmt:xthrow.obj
 0001:0003d570       ??_Ebad_alloc@std@@UEAAPEAXI@Z 000000018003e570 f i libcpmt:xthrow.obj
 0001:0003d5ac       ??_Gout_of_range@std@@UEAAPEAXI@Z 000000018003e5ac f i libcpmt:xthrow.obj
 0001:0003d5ac       ??_Eout_of_range@std@@UEAAPEAXI@Z 000000018003e5ac f i libcpmt:xthrow.obj
 0001:0003d5ac       ??_Elogic_error@std@@UEAAPEAXI@Z 000000018003e5ac f i libcpmt:xthrow.obj
 0001:0003d5ac       ??_Elength_error@std@@UEAAPEAXI@Z 000000018003e5ac f i libcpmt:xthrow.obj
 0001:0003d5ac       ??_Glogic_error@std@@UEAAPEAXI@Z 000000018003e5ac f i libcpmt:xthrow.obj
 0001:0003d5ac       ??_Glength_error@std@@UEAAPEAXI@Z 000000018003e5ac f i libcpmt:xthrow.obj
 0001:0003d5dc       ?_Xbad_alloc@std@@YAXXZ    000000018003e5dc f   libcpmt:xthrow.obj
 0001:0003d620       ?_Xlength_error@std@@YAXPEBD@Z 000000018003e620 f   libcpmt:xthrow.obj
 0001:0003d658       ?_Xout_of_range@std@@YAXPEBD@Z 000000018003e658 f   libcpmt:xthrow.obj
 0001:0003d690       ??_U@YAPEAX_K@Z            000000018003e690 f   libcpmt:newaop.obj
 0001:0003d6b0       __security_check_cookie    000000018003e6b0 f   LIBCMT:amdsecgs.obj
 0001:0003d6e0       memmove                    000000018003e6e0 f   LIBCMT:memcpy.obj
 0001:0003d6e0       memcpy                     000000018003e6e0 f   LIBCMT:memcpy.obj
 0001:0003dc48       __onexitinit               000000018003ec48 f   LIBCMT:onexit.obj
 0001:0003dc8c       _onexit                    000000018003ec8c f   LIBCMT:onexit.obj
 0001:0003dd98       atexit                     000000018003ed98 f   LIBCMT:onexit.obj
 0001:0003ddb0       _purecall                  000000018003edb0 f   LIBCMT:purevirt.obj
 0001:0003dddc       ??3@YAXPEAX@Z              000000018003eddc f   LIBCMT:delete.obj
 0001:0003dde4       ??2@YAPEAX_K@Z             000000018003ede4 f   LIBCMT:new.obj
 0001:0003de50       sprintf                    000000018003ee50 f   LIBCMT:sprintf.obj
 0001:0003def0       sprintf_s                  000000018003eef0 f   LIBCMT:sprintf.obj
 0001:0003df14       free                       000000018003ef14 f   LIBCMT:free.obj
 0001:0003df54       malloc                     000000018003ef54 f   LIBCMT:malloc.obj
 0001:0003e00c       realloc                    000000018003f00c f   LIBCMT:realloc.obj
 0001:0003e0e0       ??8type_info@@QEBA_NAEBV0@@Z 000000018003f0e0 f   LIBCMT:typinfo.obj
 0001:0003e100       ??_Etype_info@@UEAAPEAXI@Z 000000018003f100 f i LIBCMT:typinfo.obj
 0001:0003e100       ??_Gtype_info@@UEAAPEAXI@Z 000000018003f100 f i LIBCMT:typinfo.obj
 0001:0003e13c       _wassert                   000000018003f13c f   LIBCMT:wassert.obj
 0001:0003eaa0       ??_V@YAXPEAX@Z             000000018003faa0 f   LIBCMT:delete2.obj
 0001:0003eaa8       ??0_LocaleUpdate@@QEAA@PEAUlocaleinfo_struct@@@Z 000000018003faa8 f i LIBCMT:stricmp.obj
 0001:0003eb50       __ascii_stricmp            000000018003fb50 f   LIBCMT:stricmp.obj
 0001:0003eb8c       _stricmp                   000000018003fb8c f   LIBCMT:stricmp.obj
 0001:0003ebd4       _stricmp_l                 000000018003fbd4 f   LIBCMT:stricmp.obj
 0001:0003ec88       _CRT_INIT                  000000018003fc88 f   LIBCMT:dllcrt0.obj
 0001:0003ede8       _DllMainCRTStartup         000000018003fde8 f   LIBCMT:dllcrt0.obj
 0001:0003ef60       strlen                     000000018003ff60 f   LIBCMT:strlen.obj
 0001:0003f008       _CxxThrowException         0000000180040008 f   LIBCMT:throw.obj
 0001:0003f0d0       ?_GetEstablisherFrame@@YAPEA_KPEA_KPEAU_xDISPATCHER_CONTEXT@@PEBU_s_FuncInfo@@0@Z 00000001800400d0 f   LIBCMT:trnsctrl.obj
 0001:0003f19c       ?_GetRangeOfTrysToCheck@@YAPEBU_s_TryBlockMapEntry@@PEA_KPEBU_s_FuncInfo@@HHPEAI2PEAU_xDISPATCHER_CONTEXT@@@Z 000000018004019c f   LIBCMT:trnsctrl.obj
 0001:0003f2c8       ?__FrameUnwindToEmptyState@@YAXPEA_KPEAU_xDISPATCHER_CONTEXT@@PEBU_s_FuncInfo@@@Z 00000001800402c8 f   LIBCMT:trnsctrl.obj
 0001:0003f35c       ?__SehTransFilter@@YAHPEAU_EXCEPTION_POINTERS@@PEAUEHExceptionRecord@@PEA_KPEAU_CONTEXT@@PEAU_xDISPATCHER_CONTEXT@@PEBU_s_FuncInfo@@PEAH@Z 000000018004035c f   LIBCMT:trnsctrl.obj
 0001:0003f400       _CallSETranslator          0000000180040400 f   LIBCMT:trnsctrl.obj
 0001:0003f454       _CreateFrameInfo           0000000180040454 f   LIBCMT:trnsctrl.obj
 0001:0003f498       _FindAndUnlinkFrame        0000000180040498 f   LIBCMT:trnsctrl.obj
 0001:0003f4f8       _GetImageBase              00000001800404f8 f   LIBCMT:trnsctrl.obj
 0001:0003f510       _GetThrowImageBase         0000000180040510 f   LIBCMT:trnsctrl.obj
 0001:0003f528       _IsExceptionObjectToBeDestroyed 0000000180040528 f   LIBCMT:trnsctrl.obj
 0001:0003f55c       _SetImageBase              000000018004055c f   LIBCMT:trnsctrl.obj
 0001:0003f578       _SetThrowImageBase         0000000180040578 f   LIBCMT:trnsctrl.obj
 0001:0003f594       _UnwindNestedFrames        0000000180040594 f   LIBCMT:trnsctrl.obj
 0001:0003f6b8       __CxxFrameHandler3         00000001800406b8 f   LIBCMT:trnsctrl.obj
 0001:0003f740       _fpmath                    0000000180040740 f   LIBCMT:fpinit.obj
 0001:0003f748       _cfltcvt_init              0000000180040748 f   LIBCMT:fpinit.obj
 0001:0003f7d0       ??0exception@std@@QEAA@AEBQEBD@Z 00000001800407d0 f   LIBCMT:stdexcpt.obj
 0001:0003f800       ??0exception@std@@QEAA@AEBQEBDH@Z 0000000180040800 f   LIBCMT:stdexcpt.obj
 0001:0003f81c       ??0exception@std@@QEAA@AEBV01@@Z 000000018004081c f   LIBCMT:stdexcpt.obj
 0001:0003f848       ??1exception@std@@UEAA@XZ  0000000180040848 f   LIBCMT:stdexcpt.obj
 0001:0003f858       ??4exception@std@@QEAAAEAV01@AEBV01@@Z 0000000180040858 f   LIBCMT:stdexcpt.obj
 0001:0003f89c       ??_Gexception@std@@UEAAPEAXI@Z 000000018004089c f i LIBCMT:stdexcpt.obj
 0001:0003f89c       ??_Eexception@std@@UEAAPEAXI@Z 000000018004089c f i LIBCMT:stdexcpt.obj
 0001:0003f8d8       ?_Copy_str@exception@std@@AEAAXPEBD@Z 00000001800408d8 f   LIBCMT:stdexcpt.obj
 0001:0003f934       ?_Tidy@exception@std@@AEAAXXZ 0000000180040934 f   LIBCMT:stdexcpt.obj
 0001:0003f95c       ?what@exception@std@@UEBAPEBDXZ 000000018004095c f   LIBCMT:stdexcpt.obj
 0001:0003f970       __raise_securityfailure    0000000180040970 f   LIBCMT:gs_report.obj
 0001:0003f9bc       __report_gsfailure         00000001800409bc f   LIBCMT:gs_report.obj
 0001:0003fa90       __isa_available_init       0000000180040a90 f   LIBCMT:cpu_disp.obj
 0001:0003fc34       __crtCorExitProcess        0000000180040c34 f   LIBCMT:crt0dat.obj
 0001:0003fc78       __crtExitProcess           0000000180040c78 f   LIBCMT:crt0dat.obj
 0001:0003fc90       __freeCrtMemory            0000000180040c90 f   LIBCMT:crt0dat.obj
 0001:0003fdd8       _amsg_exit                 0000000180040dd8 f   LIBCMT:crt0dat.obj
 0001:0003fe00       _cexit                     0000000180040e00 f   LIBCMT:crt0dat.obj
 0001:0003fe10       _cinit                     0000000180040e10 f   LIBCMT:crt0dat.obj
 0001:0003fea8       _exit                      0000000180040ea8 f   LIBCMT:crt0dat.obj
 0001:0003feb4       _init_pointers             0000000180040eb4 f   LIBCMT:crt0dat.obj
 0001:0003ff60       _initterm_e                0000000180040f60 f   LIBCMT:crt0dat.obj
 0001:0003ff9c       _lockexit                  0000000180040f9c f   LIBCMT:crt0dat.obj
 0001:0003ffa8       _unlockexit                0000000180040fa8 f   LIBCMT:crt0dat.obj
 0001:0004014c       _msize                     000000018004114c f   LIBCMT:msize.obj
 0001:00040188       _calloc_crt                0000000180041188 f   LIBCMT:crtheap.obj
 0001:00040208       _malloc_crt                0000000180041208 f   LIBCMT:crtheap.obj
 0001:00040284       _realloc_crt               0000000180041284 f   LIBCMT:crtheap.obj
 0001:00040308       __C_specific_handler       0000000180041308 f   LIBCMT:chandler.obj
 0001:000404ec       _set_abort_behavior        00000001800414ec f   LIBCMT:abort.obj
 0001:00040508       abort                      0000000180041508 f   LIBCMT:abort.obj
 0001:00040560       _initp_misc_purevirt       0000000180041560 f   LIBCMT:inithelp.obj
 0001:00040568       _callnewh                  0000000180041568 f   LIBCMT:handler.obj
 0001:0004059c       _initp_heap_handler        000000018004159c f   LIBCMT:handler.obj
 0001:000405a4       _call_reportfault          00000001800415a4 f   LIBCMT:invarg.obj
 0001:00040698       _initp_misc_invarg         0000000180041698 f   LIBCMT:invarg.obj
 0001:000406a0       _invalid_parameter         00000001800416a0 f   LIBCMT:invarg.obj
 0001:00040708       _invalid_parameter_noinfo  0000000180041708 f   LIBCMT:invarg.obj
 0001:00040728       _invoke_watson             0000000180041728 f   LIBCMT:invarg.obj
 0001:00040764       _flsbuf                    0000000180041764 f   LIBCMT:_flsbuf.obj
 0001:000408f0       _vsnprintf_helper          00000001800418f0 f   LIBCMT:vsnprnc.obj
 0001:000409d8       _vsprintf_s_l              00000001800419d8 f   LIBCMT:vsnprnc.obj
 0001:00040a48       _output_l                  0000000180041a48 f   LIBCMT:output.obj
 0001:00041458       __doserrno                 0000000180042458 f   LIBCMT:dosmap.obj
 0001:00041478       _dosmaperr                 0000000180042478 f   LIBCMT:dosmap.obj
 0001:000414c8       _errno                     00000001800424c8 f   LIBCMT:dosmap.obj
 0001:000414e8       _get_errno_from_oserr      00000001800424e8 f   LIBCMT:dosmap.obj
 0001:00041550       memset                     0000000180042550 f   LIBCMT:memset.obj
 0001:0004177c       _heap_init                 000000018004277c f   LIBCMT:heapinit.obj
 0001:0004179c       _heap_term                 000000018004279c f   LIBCMT:heapinit.obj
 0001:000417a8       _FF_MSGBANNER              00000001800427a8 f   LIBCMT:crt0msg.obj
 0001:000417ec       _GET_RTERRMSG              00000001800427ec f   LIBCMT:crt0msg.obj
 0001:0004181c       _NMSG_WRITE                000000018004281c f   LIBCMT:crt0msg.obj
 0001:00041aa0       strcmp                     0000000180042aa0 f   LIBCMT:strcmp.obj
 0001:00041b08       ?_Type_info_dtor@type_info@@CAXPEAV1@@Z 0000000180042b08 f   LIBCMT:typname.obj
 0001:00041b74       memcpy_s                   0000000180042b74 f   LIBCMT:memcpy_s.obj
 0001:00041bfc       wcscat_s                   0000000180042bfc f   LIBCMT:wcscat_s.obj
 0001:00041c84       wcscpy_s                   0000000180042c84 f   LIBCMT:wcscpy_s.obj
 0001:00041cf0       wcslen                     0000000180042cf0 f   LIBCMT:wcslen.obj
 0001:00041d0c       wcsncat_s                  0000000180042d0c f   LIBCMT:wcsncat_s.obj
 0001:00041df4       _set_error_mode            0000000180042df4 f   LIBCMT:errmode.obj
 0001:00041e34       _itow_s                    0000000180042e34 f   LIBCMT:xtows.obj
 0001:00041f6c       __initstdio                0000000180042f6c f   LIBCMT:_file.obj
 0001:00042004       __endstdio                 0000000180043004 f   LIBCMT:_file.obj
 0001:00042034       __iob_func                 0000000180043034 f   LIBCMT:_file.obj
 0001:0004203c       _lock_file                 000000018004303c f   LIBCMT:_file.obj
 0001:000420a4       _lock_file2                00000001800430a4 f   LIBCMT:_file.obj
 0001:000420d8       _unlock_file               00000001800430d8 f   LIBCMT:_file.obj
 0001:00042128       _unlock_file2              0000000180043128 f   LIBCMT:_file.obj
 0001:00042148       _fflush_nolock             0000000180043148 f   LIBCMT:fflush.obj
 0001:00042194       _flush                     0000000180043194 f   LIBCMT:fflush.obj
 0001:00042210       _flushall                  0000000180043210 f   LIBCMT:fflush.obj
 0001:0004221c       fflush                     000000018004321c f   LIBCMT:fflush.obj
 0001:00042348       setvbuf                    0000000180043348 f   LIBCMT:setvbuf.obj
 0001:00042460       fwprintf                   0000000180043460 f   LIBCMT:fwprintf.obj
 0001:000424f4       _vswprintf_c_l             00000001800434f4 f   LIBCMT:vswprnc.obj
 0001:0004252c       _vswprintf_helper          000000018004352c f   LIBCMT:vswprnc.obj
 0001:00042648       __get_sigabrt              0000000180043648 f   LIBCMT:winsig.obj
 0001:00042658       _initp_misc_winsig         0000000180043658 f   LIBCMT:winsig.obj
 0001:00042678       raise                      0000000180043678 f   LIBCMT:winsig.obj
 0001:000428ac       __crtMessageBoxW           00000001800438ac f   LIBCMT:crtmboxw.obj
 0001:00042b20       __GSHandlerCheck           0000000180043b20 f   LIBCMT:gshandler.obj
 0001:00042b40       __GSHandlerCheckCommon     0000000180043b40 f   LIBCMT:gshandler.obj
 0001:00042ba4       __addlocaleref             0000000180043ba4 f   LIBCMT:localref.obj
 0001:00042c30       __freetlocinfo             0000000180043c30 f   LIBCMT:localref.obj
 0001:00042dc8       __removelocaleref          0000000180043dc8 f   LIBCMT:localref.obj
 0001:00042e6c       __updatetlocinfo           0000000180043e6c f   LIBCMT:localref.obj
 0001:00042ee4       _updatetlocinfoEx_nolock   0000000180043ee4 f   LIBCMT:localref.obj
 0001:00042f48       __initmbctable             0000000180043f48 f   LIBCMT:mbctype.obj
 0001:00043264       __updatetmbcinfo           0000000180044264 f   LIBCMT:mbctype.obj
 0001:00043320       _setmbcp                   0000000180044320 f   LIBCMT:mbctype.obj
 0001:00043564       _setmbcp_nolock            0000000180044564 f   LIBCMT:mbctype.obj
 0001:00043814       _tolower_l                 0000000180044814 f   LIBCMT:tolower.obj
 0001:00043968       tolower                    0000000180044968 f   LIBCMT:tolower.obj
 0001:00043988       _freefls                   0000000180044988 f   LIBCMT:tidtable.obj
 0001:00043abc       _freeptd                   0000000180044abc f   LIBCMT:tidtable.obj
 0001:00043af8       _getptd                    0000000180044af8 f   LIBCMT:tidtable.obj
 0001:00043b1c       _getptd_noexit             0000000180044b1c f   LIBCMT:tidtable.obj
 0001:00043ba0       _initptd                   0000000180044ba0 f   LIBCMT:tidtable.obj
 0001:00043c64       _mtinit                    0000000180044c64 f   LIBCMT:tidtable.obj
 0001:00043ce4       _mtterm                    0000000180044ce4 f   LIBCMT:tidtable.obj
 0001:00043d08       _locterm                   0000000180044d08 f   LIBCMT:wsetloca.obj
 0001:00043d50       _XcptFilter                0000000180044d50 f   LIBCMT:winxfltr.obj
 0001:00043f1c       __CppXcptFilter            0000000180044f1c f   LIBCMT:winxfltr.obj
 0001:00043f30       _ioinit                    0000000180044f30 f   LIBCMT:ioinit.obj
 0001:00044260       _ioterm                    0000000180045260 f   LIBCMT:ioinit.obj
 0001:000442d4       _setargv                   00000001800452d4 f   LIBCMT:stdargv.obj
 0001:00044590       _setenvp                   0000000180045590 f   LIBCMT:stdenvp.obj
 0001:000446c4       __security_init_cookie     00000001800456c4 f   LIBCMT:gs_support.obj
 0001:00044770       DllMain                    0000000180045770 f   LIBCMT:dllmain.obj
 0001:00044778       __crtGetEnvironmentStringsA 0000000180045778 f   LIBCMT:a_env.obj
 0001:0004486c       __crtCaptureCurrentContext 000000018004586c f   LIBCMT:winapisupp.obj
 0001:000448dc       __crtCapturePreviousContext 00000001800458dc f   LIBCMT:winapisupp.obj
 0001:00044950       __crtFlsAlloc              0000000180045950 f   LIBCMT:winapisupp.obj
 0001:0004496c       __crtFlsFree               000000018004596c f   LIBCMT:winapisupp.obj
 0001:00044988       __crtFlsGetValue           0000000180045988 f   LIBCMT:winapisupp.obj
 0001:000449a4       __crtFlsSetValue           00000001800459a4 f   LIBCMT:winapisupp.obj
 0001:000449c0       __crtInitializeCriticalSectionEx 00000001800459c0 f   LIBCMT:winapisupp.obj
 0001:000449ec       __crtIsPackagedApp         00000001800459ec f   LIBCMT:winapisupp.obj
 0001:00044a38       __crtLoadWinApiPointers    0000000180045a38 f   LIBCMT:winapisupp.obj
 0001:00044e34       __crtSleep                 0000000180045e34 f   LIBCMT:winapisupp.obj
 0001:00044e3c       __crtTerminateProcess      0000000180045e3c f   LIBCMT:winapisupp.obj
 0001:00044e5c       __crtUnhandledException    0000000180045e5c f   LIBCMT:winapisupp.obj
 0001:00044e7c       _RTC_Initialize            0000000180045e7c f   LIBCMT:initsect.obj
 0001:00044eb4       _RTC_Terminate             0000000180045eb4 f   LIBCMT:initsect.obj
 0001:00044eec       __DestructExceptionObject  0000000180045eec f   LIBCMT:frame.obj
 0001:00044f5c       ??0bad_exception@std@@QEAA@AEBV01@@Z 0000000180045f5c f i LIBCMT:frame.obj
 0001:00044f80       ??1bad_exception@std@@UEAA@XZ 0000000180045f80 f i LIBCMT:frame.obj
 0001:00044f90       ??_Ebad_exception@std@@UEAAPEAXI@Z 0000000180045f90 f i LIBCMT:frame.obj
 0001:00044f90       ??_Gbad_exception@std@@UEAAPEAXI@Z 0000000180045f90 f i LIBCMT:frame.obj
 0001:00045884       __AdjustPointer            0000000180046884 f   LIBCMT:frame.obj
 0001:000458a8       __BuildCatchObject         00000001800468a8 f   LIBCMT:frame.obj
 0001:00045960       __BuildCatchObjectHelper   0000000180046960 f   LIBCMT:frame.obj
 0001:00045bb0       __CxxCallCatchBlock        0000000180046bb0 f   LIBCMT:frame.obj
 0001:00045db4       __FrameUnwindFilter        0000000180046db4 f   LIBCMT:frame.obj
 0001:00045e08       __FrameUnwindToState       0000000180046e08 f   LIBCMT:frame.obj
 0001:00045f9c       __InternalCxxFrameHandler  0000000180046f9c f   LIBCMT:frame.obj
 0001:000461c0       __TypeMatch                00000001800471c0 f   LIBCMT:frame.obj
 0001:000462f0       ?__GetCurrentState@@YAHPEA_KPEAU_xDISPATCHER_CONTEXT@@PEBU_s_FuncInfo@@@Z 00000001800472f0 f   LIBCMT:ehstate.obj
 0001:00046318       ?__GetUnwindTryBlock@@YAHPEA_KPEAU_xDISPATCHER_CONTEXT@@PEBU_s_FuncInfo@@@Z 0000000180047318 f   LIBCMT:ehstate.obj
 0001:00046344       ?__SetState@@YAXPEA_KPEAU_xDISPATCHER_CONTEXT@@PEBU_s_FuncInfo@@H@Z 0000000180047344 f   LIBCMT:ehstate.obj
 0001:00046350       ?__SetUnwindTryBlock@@YAXPEA_KPEAU_xDISPATCHER_CONTEXT@@PEBU_s_FuncInfo@@H@Z 0000000180047350 f   LIBCMT:ehstate.obj
 0001:0004638c       ?__StateFromControlPc@@YAHPEBU_s_FuncInfo@@PEAU_xDISPATCHER_CONTEXT@@@Z 000000018004738c f   LIBCMT:ehstate.obj
 0001:00046394       ?__StateFromIp@@YAHPEBU_s_FuncInfo@@PEAU_xDISPATCHER_CONTEXT@@_J@Z 0000000180047394 f   LIBCMT:ehstate.obj
 0001:00046420       ?_inconsistency@@YAXXZ     0000000180047420 f   LIBCMT:hooks.obj
 0001:00046440       ?terminate@@YAXXZ          0000000180047440 f   LIBCMT:hooks.obj
 0001:00046460       _initp_eh_hooks            0000000180047460 f   LIBCMT:hooks.obj
 0001:00046480       _cfltcvt                   0000000180047480 f   LIBCMT:cvt.obj
 0001:000464a4       _cfltcvt_l                 00000001800474a4 f   LIBCMT:cvt.obj
 0001:00046524       _cftoa_l                   0000000180047524 f   LIBCMT:cvt.obj
 0001:00046ad0       _cftoe_l                   0000000180047ad0 f   LIBCMT:cvt.obj
 0001:00046d2c       _cftof_l                   0000000180047d2c f   LIBCMT:cvt.obj
 0001:00046e00       _cftog_l                   0000000180047e00 f   LIBCMT:cvt.obj
 0001:00046f34       _cropzeros                 0000000180047f34 f   LIBCMT:cvt.obj
 0001:00046f3c       _cropzeros_l               0000000180047f3c f   LIBCMT:cvt.obj
 0001:00046fd4       _fassign                   0000000180047fd4 f   LIBCMT:cvt.obj
 0001:00046fdc       _fassign_l                 0000000180047fdc f   LIBCMT:cvt.obj
 0001:0004701c       _forcdecpt                 000000018004801c f   LIBCMT:cvt.obj
 0001:00047024       _forcdecpt_l               0000000180048024 f   LIBCMT:cvt.obj
 0001:000470a4       _positive                  00000001800480a4 f   LIBCMT:cvt.obj
 0001:000470b8       _initp_misc_cfltcvt_tab    00000001800480b8 f   LIBCMT:cmiscdat.obj
 0001:000470f4       strcpy_s                   00000001800480f4 f   LIBCMT:strcpy_s.obj
 0001:00047158       __crt_debugger_hook        0000000180048158 f   LIBCMT:dbghook.obj
 0001:00047160       _lock                      0000000180048160 f   LIBCMT:mlock.obj
 0001:000471a4       _mtdeletelocks             00000001800481a4 f   LIBCMT:mlock.obj
 0001:0004722c       _mtinitlocknum             000000018004822c f   LIBCMT:mlock.obj
 0001:000472ec       _mtinitlocks               00000001800482ec f   LIBCMT:mlock.obj
 0001:00047350       _unlock                    0000000180048350 f   LIBCMT:mlock.obj
 0001:00047370       _FindPESection             0000000180048370 f   LIBCMT:pesect.obj
 0001:000473c0       _IsNonwritableInCurrentImage 00000001800483c0 f   LIBCMT:pesect.obj
 0001:00047410       _ValidateImageBase         0000000180048410 f   LIBCMT:pesect.obj
 0001:00047440       _initp_misc_rand_s         0000000180048440 f   LIBCMT:rand_s.obj
 0001:00047448       _ftbuf                     0000000180048448 f   LIBCMT:_sftbuf.obj
 0001:00047480       _stbuf                     0000000180048480 f   LIBCMT:_sftbuf.obj
 0001:00047550       _calloc_impl               0000000180048550 f   LIBCMT:calloc_impl.obj
 0001:00047600       _local_unwind              0000000180048600 f   LIBCMT:jmpuwind.obj
 0001:00047630       _NLG_Notify                0000000180048630 f   LIBCMT:jmpuwind.obj
 0001:00047650       __NLG_Dispatch2            0000000180048650 f   LIBCMT:jmpuwind.obj
 0001:00047660       __NLG_Return2              0000000180048660 f   LIBCMT:jmpuwind.obj
 0001:00047664       GetTableIndexFromLocaleName 0000000180048664 f   LIBCMT:winapinls.obj
 0001:000476f0       __crtDownlevelLocaleNameToLCID 00000001800486f0 f   LIBCMT:winapinls.obj
 0001:00047724       __crtLCMapStringEx         0000000180048724 f   LIBCMT:winapinls.obj
 0001:000477b4       __wcsnicmp_ascii           00000001800487b4 f   LIBCMT:winapinls.obj
 0001:00047820       _get_fpsr                  0000000180048820 f   LIBCMT:fpsr.obj
 0001:00047830       _set_fpsr                  0000000180048830 f   LIBCMT:fpsr.obj
 0001:0004783a       _fclrf                     000000018004883a f   LIBCMT:fpsr.obj
 0001:0004784e       _frnd                      000000018004884e f   LIBCMT:fpsr.obj
 0001:00047870       _fileno                    0000000180048870 f   LIBCMT:fileno.obj
 0001:00047898       _isatty                    0000000180048898 f   LIBCMT:isatty.obj
 0001:000478f8       _write                     00000001800488f8 f   LIBCMT:write.obj
 0001:000479dc       _write_nolock              00000001800489dc f   LIBCMT:write.obj
 0001:000481d0       _lseeki64                  00000001800491d0 f   LIBCMT:lseeki64.obj
 0001:000482b8       _lseeki64_nolock           00000001800492b8 f   LIBCMT:lseeki64.obj
 0001:0004834c       _getbuf                    000000018004934c f   LIBCMT:_getbuf.obj
 0001:000483a0       _output_s_l                00000001800493a0 f   LIBCMT:outputs.obj
 0001:00048ef8       _isleadbyte_l              0000000180049ef8 f i LIBCMT:_wctype.obj
 0001:00048f3c       isleadbyte                 0000000180049f3c f i LIBCMT:_wctype.obj
 0001:00048f84       _get_printf_count_output   0000000180049f84 f   LIBCMT:printf.obj
 0001:00048f9c       _wctomb_s_l                0000000180049f9c f   LIBCMT:wctomb.obj
 0001:00049128       wctomb_s                   000000018004a128 f   LIBCMT:wctomb.obj
 0001:0004913c       wcsncpy_s                  000000018004a13c f   LIBCMT:wcsncpy_s.obj
 0001:00049208       _fcloseall                 000000018004a208 f   LIBCMT:closeall.obj
 0001:000492b0       _commit                    000000018004a2b0 f   LIBCMT:commit.obj
 0001:00049388       _freebuf                   000000018004a388 f   LIBCMT:_freebuf.obj
 0001:000493c0       _woutput_l                 000000018004a3c0 f   LIBCMT:woutput.obj
 0001:00049f80       __free_lconv_mon           000000018004af80 f   LIBCMT:initmon.obj
 0001:0004a08c       __free_lconv_num           000000018004b08c f   LIBCMT:initnum.obj
 0001:0004a0f8       __free_lc_time             000000018004b0f8 f   LIBCMT:inittime.obj
 0001:0004a7e0       __crtLCMapStringA          000000018004b7e0 f   LIBCMT:a_map.obj
 0001:0004a9f0       __crtGetStringTypeA        000000018004b9f0 f   LIBCMT:a_str.obj
 0001:0004aa6c       _isctype_l                 000000018004ba6c f   LIBCMT:isctype.obj
 0001:0004ab60       memcmp                     000000018004bb60 f   LIBCMT:memcmp.obj
 0001:0004aca4       _ismbblead                 000000018004bca4 f   LIBCMT:ismbbyte.obj
 0001:0004acb8       ?_ValidateExecute@@YAHP6A_JXZ@Z 000000018004bcb8 f   LIBCMT:validate.obj
 0001:0004acb8       ?_ValidateRead@@YAHPEBXI@Z 000000018004bcb8 f   LIBCMT:validate.obj
 0001:0004acb8       ?_ValidateWrite@@YAHPEAXI@Z 000000018004bcb8 f   LIBCMT:validate.obj
 0001:0004ace0       _CallSettingFrame          000000018004bce0 f   LIBCMT:handlers.obj
 0001:0004ad20       _GetNextInstrOffset        000000018004bd20 f   LIBCMT:handlers.obj
 0001:0004ad28       isdigit                    000000018004bd28 f i LIBCMT:_ctype.obj
 0001:0004ada4       strrchr                    000000018004bda4 f   LIBCMT:strrchr.obj
 0001:0004aee8       _fptostr                   000000018004bee8 f   LIBCMT:_fptostr.obj
 0001:0004afb4       __crt_atoflt_l             000000018004bfb4 f   LIBCMT:atodbl.obj
 0001:0004b084       _atodbl_l                  000000018004c084 f   LIBCMT:atodbl.obj
 0001:0004b14c       _atoflt_l                  000000018004c14c f   LIBCMT:atodbl.obj
 0001:0004b154       __dtold                    000000018004c154 f   LIBCMT:cfout.obj
 0001:0004b224       _fltout2                   000000018004c224 f   LIBCMT:cfout.obj
 0001:0004b2dc       _fptrap                    000000018004c2dc f   LIBCMT:crt0fp.obj
 0001:0004b300       __chkstk                   000000018004c300 f   LIBCMT:chkstk.obj
 0001:0004b300       _alloca_probe              000000018004c300 f   LIBCMT:chkstk.obj
 0001:0004b350       __lock_fhandle             000000018004c350 f   LIBCMT:osfinfo.obj
 0001:0004b3e8       _free_osfhnd               000000018004c3e8 f   LIBCMT:osfinfo.obj
 0001:0004b494       _get_osfhandle             000000018004c494 f   LIBCMT:osfinfo.obj
 0001:0004b508       _unlock_fhandle            000000018004c508 f   LIBCMT:osfinfo.obj
 0001:0004b534       _mbtowc_l                  000000018004c534 f   LIBCMT:mbtowc.obj
 0001:0004b688       mbtowc                     000000018004c688 f   LIBCMT:mbtowc.obj
 0001:0004b690       _putwch_nolock             000000018004c690 f   LIBCMT:putwch.obj
 0001:0004b6ec       _fclose_nolock             000000018004c6ec f   LIBCMT:fclose.obj
 0001:0004b768       fclose                     000000018004c768 f   LIBCMT:fclose.obj
 0001:0004b7d0       _fputwc_nolock             000000018004c7d0 f   LIBCMT:fputwc.obj
 0001:0004b9c4       _ld12tod                   000000018004c9c4 f   LIBCMT:intrncvt.obj
 0001:0004bf7c       _ld12tof                   000000018004cf7c f   LIBCMT:intrncvt.obj
 0001:0004c534       __strgtold12_l             000000018004d534 f   LIBCMT:strgtold.obj
 0001:0004cd98       $I10_OUTPUT                000000018004dd98 f   LIBCMT:x10fout.obj
 0001:0004d870       __termconout               000000018004e870 f   LIBCMT:initcon.obj
 0001:0004d890       __initconout               000000018004e890 f   LIBCMT:initcon.obj
 0001:0004d8cc       _close                     000000018004e8cc f   LIBCMT:close.obj
 0001:0004d990       _close_nolock              000000018004e990 f   LIBCMT:close.obj
 0001:0004da4c       _flswbuf                   000000018004ea4c f   LIBCMT:_flswbuf.obj
 0001:0004dbdc       __mtold12                  000000018004ebdc f   LIBCMT:mantold.obj
 0001:0004de00       RtlUnwindEx                000000018004ee00 f   kernel32:KERNEL32.dll
 0001:0004de06       IsProcessorFeaturePresent  000000018004ee06 f   kernel32:KERNEL32.dll
 0001:0004de0c       __delayLoadHelper2         000000018004ee0c f   DelayImp:delayhlp.obj
 0001:0004e0a4       __GSHandlerCheck_EH        000000018004f0a4 f   LIBCMT:gshandlereh.obj
 0001:0005adf0       ??__Fmy_constructor@?1??constructor@WPKCS11@@KAAEAV?$Persistent@VFunction@v8@@V?$NonCopyablePersistentTraits@VFunction@v8@@@2@@Nan@@XZ@YAXXZ 000000018005bdf0 f i node.obj
 0002:00000000       __imp_SetErrorMode         000000018005c000     kernel32:KERNEL32.dll
 0002:00000008       __imp_FreeLibrary          000000018005c008     kernel32:KERNEL32.dll
 0002:00000010       __imp_LoadLibraryW         000000018005c010     kernel32:KERNEL32.dll
 0002:00000018       __imp_MultiByteToWideChar  000000018005c018     kernel32:KERNEL32.dll
 0002:00000020       __imp_GetLastError         000000018005c020     kernel32:KERNEL32.dll
 0002:00000028       __imp_SetLastError         000000018005c028     kernel32:KERNEL32.dll
 0002:00000030       __imp_GetProcAddress       000000018005c030     kernel32:KERNEL32.dll
 0002:00000038       __imp_GetModuleHandleA     000000018005c038     kernel32:KERNEL32.dll
 0002:00000040       __imp_EncodePointer        000000018005c040     kernel32:KERNEL32.dll
 0002:00000048       __imp_DecodePointer        000000018005c048     kernel32:KERNEL32.dll
 0002:00000050       __imp_HeapFree             000000018005c050     kernel32:KERNEL32.dll
 0002:00000058       __imp_HeapAlloc            000000018005c058     kernel32:KERNEL32.dll
 0002:00000060       __imp_HeapReAlloc          000000018005c060     kernel32:KERNEL32.dll
 0002:00000068       __imp_GetStdHandle         000000018005c068     kernel32:KERNEL32.dll
 0002:00000070       __imp_GetFileType          000000018005c070     kernel32:KERNEL32.dll
 0002:00000078       __imp_GetModuleFileNameW   000000018005c078     kernel32:KERNEL32.dll
 0002:00000080       __imp_GetModuleHandleExW   000000018005c080     kernel32:KERNEL32.dll
 0002:00000088       __imp_WriteConsoleW        000000018005c088     kernel32:KERNEL32.dll
 0002:00000090       __imp_GetCommandLineA      000000018005c090     kernel32:KERNEL32.dll
 0002:00000098       __imp_GetCurrentThreadId   000000018005c098     kernel32:KERNEL32.dll
 0002:000000a0       __imp_RtlPcToFileHeader    000000018005c0a0     kernel32:KERNEL32.dll
 0002:000000a8       __imp_RaiseException       000000018005c0a8     kernel32:KERNEL32.dll
 0002:000000b0       __imp_RtlLookupFunctionEntry 000000018005c0b0     kernel32:KERNEL32.dll
 0002:000000b8       __imp_RtlUnwindEx          000000018005c0b8     kernel32:KERNEL32.dll
 0002:000000c0       __imp_IsDebuggerPresent    000000018005c0c0     kernel32:KERNEL32.dll
 0002:000000c8       __imp_IsProcessorFeaturePresent 000000018005c0c8     kernel32:KERNEL32.dll
 0002:000000d0       __imp_ExitProcess          000000018005c0d0     kernel32:KERNEL32.dll
 0002:000000d8       __imp_WideCharToMultiByte  000000018005c0d8     kernel32:KERNEL32.dll
 0002:000000e0       __imp_HeapSize             000000018005c0e0     kernel32:KERNEL32.dll
 0002:000000e8       __imp_GetProcessHeap       000000018005c0e8     kernel32:KERNEL32.dll
 0002:000000f0       __imp_WriteFile            000000018005c0f0     kernel32:KERNEL32.dll
 0002:000000f8       __imp_EnterCriticalSection 000000018005c0f8     kernel32:KERNEL32.dll
 0002:00000100       __imp_LeaveCriticalSection 000000018005c100     kernel32:KERNEL32.dll
 0002:00000108       __imp_OutputDebugStringW   000000018005c108     kernel32:KERNEL32.dll
 0002:00000110       __imp_LoadLibraryExW       000000018005c110     kernel32:KERNEL32.dll
 0002:00000118       __imp_IsValidCodePage      000000018005c118     kernel32:KERNEL32.dll
 0002:00000120       __imp_GetACP               000000018005c120     kernel32:KERNEL32.dll
 0002:00000128       __imp_GetOEMCP             000000018005c128     kernel32:KERNEL32.dll
 0002:00000130       __imp_GetCPInfo            000000018005c130     kernel32:KERNEL32.dll
 0002:00000138       __imp_DeleteCriticalSection 000000018005c138     kernel32:KERNEL32.dll
 0002:00000140       __imp_GetStartupInfoW      000000018005c140     kernel32:KERNEL32.dll
 0002:00000148       __imp_GetModuleFileNameA   000000018005c148     kernel32:KERNEL32.dll
 0002:00000150       __imp_QueryPerformanceCounter 000000018005c150     kernel32:KERNEL32.dll
 0002:00000158       __imp_GetCurrentProcessId  000000018005c158     kernel32:KERNEL32.dll
 0002:00000160       __imp_GetSystemTimeAsFileTime 000000018005c160     kernel32:KERNEL32.dll
 0002:00000168       __imp_GetEnvironmentStringsW 000000018005c168     kernel32:KERNEL32.dll
 0002:00000170       __imp_FreeEnvironmentStringsW 000000018005c170     kernel32:KERNEL32.dll
 0002:00000178       __imp_RtlCaptureContext    000000018005c178     kernel32:KERNEL32.dll
 0002:00000180       __imp_RtlVirtualUnwind     000000018005c180     kernel32:KERNEL32.dll
 0002:00000188       __imp_UnhandledExceptionFilter 000000018005c188     kernel32:KERNEL32.dll
 0002:00000190       __imp_SetUnhandledExceptionFilter 000000018005c190     kernel32:KERNEL32.dll
 0002:00000198       __imp_InitializeCriticalSectionAndSpinCount 000000018005c198     kernel32:KERNEL32.dll
 0002:000001a0       __imp_Sleep                000000018005c1a0     kernel32:KERNEL32.dll
 0002:000001a8       __imp_GetCurrentProcess    000000018005c1a8     kernel32:KERNEL32.dll
 0002:000001b0       __imp_TerminateProcess     000000018005c1b0     kernel32:KERNEL32.dll
 0002:000001b8       __imp_TlsAlloc             000000018005c1b8     kernel32:KERNEL32.dll
 0002:000001c0       __imp_TlsGetValue          000000018005c1c0     kernel32:KERNEL32.dll
 0002:000001c8       __imp_TlsSetValue          000000018005c1c8     kernel32:KERNEL32.dll
 0002:000001d0       __imp_TlsFree              000000018005c1d0     kernel32:KERNEL32.dll
 0002:000001d8       __imp_GetModuleHandleW     000000018005c1d8     kernel32:KERNEL32.dll
 0002:000001e0       __imp_LCMapStringW         000000018005c1e0     kernel32:KERNEL32.dll
 0002:000001e8       __imp_GetConsoleCP         000000018005c1e8     kernel32:KERNEL32.dll
 0002:000001f0       __imp_GetConsoleMode       000000018005c1f0     kernel32:KERNEL32.dll
 0002:000001f8       __imp_SetFilePointerEx     000000018005c1f8     kernel32:KERNEL32.dll
 0002:00000200       __imp_FlushFileBuffers     000000018005c200     kernel32:KERNEL32.dll
 0002:00000208       __imp_GetStringTypeW       000000018005c208     kernel32:KERNEL32.dll
 0002:00000210       __imp_SetStdHandle         000000018005c210     kernel32:KERNEL32.dll
 0002:00000218       __imp_CreateFileW          000000018005c218     kernel32:KERNEL32.dll
 0002:00000220       __imp_CloseHandle          000000018005c220     kernel32:KERNEL32.dll
 0002:00000228       __imp_LoadLibraryExA       000000018005c228     kernel32:KERNEL32.dll
 0002:00000230       \177KERNEL32_NULL_THUNK_DATA 000000018005c230     kernel32:KERNEL32.dll
 0002:00000238       __xc_a                     000000018005c238     LIBCMT:crt0init.obj
 0002:00000240       _register_pkcs11_          000000018005c240     main.obj
 0002:00000248       __xc_z                     000000018005c248     LIBCMT:crt0init.obj
 0002:00000250       __xi_a                     000000018005c250     LIBCMT:crt0init.obj
 0002:00000278       __xi_z                     000000018005c278     LIBCMT:crt0init.obj
 0002:00000280       __xp_a                     000000018005c280     LIBCMT:crt0init.obj
 0002:000002a0       __xp_z                     000000018005c2a0     LIBCMT:crt0init.obj
 0002:000002a8       __xt_a                     000000018005c2a8     LIBCMT:crt0init.obj
 0002:000002b0       __xt_z                     000000018005c2b0     LIBCMT:crt0init.obj
 0002:00000300       __sz_node_exe              000000018005c300     node:node.exe
 0002:00000cb0       ??_C@_0BC@CIJDGCDI@permission?5denied?$AA@ 000000018005ccb0     libcpmt:syserror.obj
 0002:00000cc8       ??_C@_0M@MIDIAGJP@file?5exists?$AA@ 000000018005ccc8     libcpmt:syserror.obj
 0002:00000cd8       ??_C@_0P@FDINDDOK@no?5such?5device?$AA@ 000000018005ccd8     libcpmt:syserror.obj
 0002:00000ce8       ??_C@_0BC@EJHOMAAK@filename?5too?5long?$AA@ 000000018005cce8     libcpmt:syserror.obj
 0002:00000d00       ??_C@_0BI@NGCEHDD@device?5or?5resource?5busy?$AA@ 000000018005cd00     libcpmt:syserror.obj
 0002:00000d18       ??_C@_08GLNPIFBN@io?5error?$AA@ 000000018005cd18     libcpmt:syserror.obj
 0002:00000d28       ??_C@_0BE@JIDOCPHM@directory?5not?5empty?$AA@ 000000018005cd28     libcpmt:syserror.obj
 0002:00000d40       ??_C@_0BB@FCMFBGOM@invalid?5argument?$AA@ 000000018005cd40     libcpmt:syserror.obj
 0002:00000d58       ??_C@_0BD@IJDJKDEA@no?5space?5on?5device?$AA@ 000000018005cd58     libcpmt:syserror.obj
 0002:00000d70       ??_C@_0BK@NDOCBPGE@no?5such?5file?5or?5directory?$AA@ 000000018005cd70     libcpmt:syserror.obj
 0002:00000d90       ??_C@_0BH@KEFGLDAF@function?5not?5supported?$AA@ 000000018005cd90     libcpmt:syserror.obj
 0002:00000da8       ??_C@_0BC@NJECKMKE@no?5lock?5available?$AA@ 000000018005cda8     libcpmt:syserror.obj
 0002:00000dc0       ??_C@_0BC@ENOOLCNF@not?5enough?5memory?$AA@ 000000018005cdc0     libcpmt:syserror.obj
 0002:00000dd8       ??_C@_0BP@LKNGHENJ@resource?5unavailable?5try?5again?$AA@ 000000018005cdd8     libcpmt:syserror.obj
 0002:00000df8       ??_C@_0BC@PPHBOELF@cross?5device?5link?$AA@ 000000018005cdf8     libcpmt:syserror.obj
 0002:00000e10       ??_C@_0BD@MOLBPMEA@operation?5canceled?$AA@ 000000018005ce10     libcpmt:syserror.obj
 0002:00000e28       ??_C@_0BE@GHAFMPAH@too?5many?5files?5open?$AA@ 000000018005ce28     libcpmt:syserror.obj
 0002:00000e40       ??_C@_0BC@FNODOBAE@permission_denied?$AA@ 000000018005ce40     libcpmt:syserror.obj
 0002:00000e58       ??_C@_0P@LNDJPBFK@address_in_use?$AA@ 000000018005ce58     libcpmt:syserror.obj
 0002:00000e68       ??_C@_0BG@IPMGOJF@address_not_available?$AA@ 000000018005ce68     libcpmt:syserror.obj
 0002:00000e80       ??_C@_0BN@LCBDHODA@address_family_not_supported?$AA@ 000000018005ce80     libcpmt:syserror.obj
 0002:00000ea0       ??_C@_0BP@FOJJHMCC@connection_already_in_progress?$AA@ 000000018005cea0     libcpmt:syserror.obj
 0002:00000ec0       ??_C@_0BE@DLHHIBGN@bad_file_descriptor?$AA@ 000000018005cec0     libcpmt:syserror.obj
 0002:00000ed8       ??_C@_0BD@OJMJDIGI@connection_aborted?$AA@ 000000018005ced8     libcpmt:syserror.obj
 0002:00000ef0       ??_C@_0BD@NGKCIFEP@connection_refused?$AA@ 000000018005cef0     libcpmt:syserror.obj
 0002:00000f08       ??_C@_0BB@JOANDNCK@connection_reset?$AA@ 000000018005cf08     libcpmt:syserror.obj
 0002:00000f20       ??_C@_0BN@JLJNLKLK@destination_address_required?$AA@ 000000018005cf20     libcpmt:syserror.obj
 0002:00000f40       ??_C@_0M@IJGMGFGP@bad_address?$AA@ 000000018005cf40     libcpmt:syserror.obj
 0002:00000f50       ??_C@_0BB@KKNHPPIN@host_unreachable?$AA@ 000000018005cf50     libcpmt:syserror.obj
 0002:00000f68       ??_C@_0BG@DJGBJIIK@operation_in_progress?$AA@ 000000018005cf68     libcpmt:syserror.obj
 0002:00000f80       ??_C@_0M@EGEKIIMP@interrupted?$AA@ 000000018005cf80     libcpmt:syserror.obj
 0002:00000f90       ??_C@_0BB@FFIHMIPJ@invalid_argument?$AA@ 000000018005cf90     libcpmt:syserror.obj
 0002:00000fa8       ??_C@_0BC@FIFLCHLO@already_connected?$AA@ 000000018005cfa8     libcpmt:syserror.obj
 0002:00000fc0       ??_C@_0BE@GJJJJDDA@too_many_files_open?$AA@ 000000018005cfc0     libcpmt:syserror.obj
 0002:00000fd8       ??_C@_0N@HPMLKHPL@message_size?$AA@ 000000018005cfd8     libcpmt:syserror.obj
 0002:00000fe8       ??_C@_0BC@LEEIKBAL@filename_too_long?$AA@ 000000018005cfe8     libcpmt:syserror.obj
 0002:00001000       ??_C@_0N@FCPALPJK@network_down?$AA@ 000000018005d000     libcpmt:syserror.obj
 0002:00001010       ??_C@_0O@EHNDLHIG@network_reset?$AA@ 000000018005d010     libcpmt:syserror.obj
 0002:00001020       ??_C@_0BE@JFNJIDNF@network_unreachable?$AA@ 000000018005d020     libcpmt:syserror.obj
 0002:00001038       ??_C@_0BA@FDIJKJCL@no_buffer_space?$AA@ 000000018005d038     libcpmt:syserror.obj
 0002:00001048       ??_C@_0BD@JHIHCGKP@no_protocol_option?$AA@ 000000018005d048     libcpmt:syserror.obj
 0002:00001060       ??_C@_0O@GBCLHHD@not_connected?$AA@ 000000018005d060     libcpmt:syserror.obj
 0002:00001070       ??_C@_0N@IMHKKLEM@not_a_socket?$AA@ 000000018005d070     libcpmt:syserror.obj
 0002:00001080       ??_C@_0BI@ICEIDKLJ@operation_not_supported?$AA@ 000000018005d080     libcpmt:syserror.obj
 0002:00001098       ??_C@_0BH@KAPBAIJF@protocol_not_supported?$AA@ 000000018005d098     libcpmt:syserror.obj
 0002:000010b0       ??_C@_0BE@GAOJJFPC@wrong_protocol_type?$AA@ 000000018005d0b0     libcpmt:syserror.obj
 0002:000010c8       ??_C@_09NCHNLHPG@timed_out?$AA@ 000000018005d0c8     libcpmt:syserror.obj
 0002:000010d8       ??_C@_0BG@GDGHKFDH@operation_would_block?$AA@ 000000018005d0d8     libcpmt:syserror.obj
 0002:000010f0       ??_C@_0BN@LKKBCCDB@address?5family?5not?5supported?$AA@ 000000018005d0f0     libcpmt:syserror.obj
 0002:00001110       ??_C@_0P@LDMLAFHI@address?5in?5use?$AA@ 000000018005d110     libcpmt:syserror.obj
 0002:00001120       ??_C@_0BG@DHPCNBJB@address?5not?5available?$AA@ 000000018005d120     libcpmt:syserror.obj
 0002:00001138       ??_C@_0BC@DFIBIBIL@already?5connected?$AA@ 000000018005d138     libcpmt:syserror.obj
 0002:00001150       ??_C@_0BH@CAKOHOMI@argument?5list?5too?5long?$AA@ 000000018005d150     libcpmt:syserror.obj
 0002:00001168       ??_C@_0BH@CGIMPKIM@argument?5out?5of?5domain?$AA@ 000000018005d168     libcpmt:syserror.obj
 0002:00001180       ??_C@_0M@KGHGGJGL@bad?5address?$AA@ 000000018005d180     libcpmt:syserror.obj
 0002:00001190       ??_C@_0BE@MPJPGCEO@bad?5file?5descriptor?$AA@ 000000018005d190     libcpmt:syserror.obj
 0002:000011a8       ??_C@_0M@PMMIEFCP@bad?5message?$AA@ 000000018005d1a8     libcpmt:syserror.obj
 0002:000011b8       ??_C@_0M@KPHOFDBE@broken?5pipe?$AA@ 000000018005d1b8     libcpmt:syserror.obj
 0002:000011c8       ??_C@_0BD@MGNDDEGM@connection?5aborted?$AA@ 000000018005d1c8     libcpmt:syserror.obj
 0002:000011e0       ??_C@_0BP@KAIHPOGN@connection?5already?5in?5progress?$AA@ 000000018005d1e0     libcpmt:syserror.obj
 0002:00001200       ??_C@_0BD@PJLIIJEL@connection?5refused?$AA@ 000000018005d200     libcpmt:syserror.obj
 0002:00001218       ??_C@_0BB@IECNJNOI@connection?5reset?$AA@ 000000018005d218     libcpmt:syserror.obj
 0002:00001230       ??_C@_0BN@KDMIFEIP@destination?5address?5required?$AA@ 000000018005d230     libcpmt:syserror.obj
 0002:00001250       ??_C@_0BI@BNCLIGPB@executable?5format?5error?$AA@ 000000018005d250     libcpmt:syserror.obj
 0002:00001268       ??_C@_0P@DNAJLBJK@file?5too?5large?$AA@ 000000018005d268     libcpmt:syserror.obj
 0002:00001278       ??_C@_0BB@DHFDFGDM@host?5unreachable?$AA@ 000000018005d278     libcpmt:syserror.obj
 0002:00001290       ??_C@_0BD@JPHBMONG@identifier?5removed?$AA@ 000000018005d290     libcpmt:syserror.obj
 0002:000012a8       ??_C@_0BG@CDNPAGJK@illegal?5byte?5sequence?$AA@ 000000018005d2a8     libcpmt:syserror.obj
 0002:000012c0       ??_C@_0CD@BNPLBMNA@inappropriate?5io?5control?5operati@ 000000018005d2c0     libcpmt:syserror.obj
 0002:000012e8       ??_C@_0N@OHAFKDEK@invalid?5seek?$AA@ 000000018005d2e8     libcpmt:syserror.obj
 0002:000012f8       ??_C@_0P@FLLDBIDK@is?5a?5directory?$AA@ 000000018005d2f8     libcpmt:syserror.obj
 0002:00001308       ??_C@_0N@IFLPBIOP@message?5size?$AA@ 000000018005d308     libcpmt:syserror.obj
 0002:00001318       ??_C@_0N@KIIEAAIO@network?5down?$AA@ 000000018005d318     libcpmt:syserror.obj
 0002:00001328       ??_C@_0O@FNPDBHEE@network?5reset?$AA@ 000000018005d328     libcpmt:syserror.obj
 0002:00001338       ??_C@_0BE@IFNCKGE@network?5unreachable?$AA@ 000000018005d338     libcpmt:syserror.obj
 0002:00001350       ??_C@_0BA@PFFCAOFK@no?5buffer?5space?$AA@ 000000018005d350     libcpmt:syserror.obj
 0002:00001360       ??_C@_0BB@IEPBLJHK@no?5child?5process?$AA@ 000000018005d360     libcpmt:syserror.obj
 0002:00001378       ??_C@_07PLECNNKG@no?5link?$AA@ 000000018005d378     libcpmt:syserror.obj
 0002:00001380       ??_C@_0BF@PBGGPKKE@no?5message?5available?$AA@ 000000018005d380     libcpmt:syserror.obj
 0002:00001398       ??_C@_0L@EDOLMPAK@no?5message?$AA@ 000000018005d398     libcpmt:syserror.obj
 0002:000013a8       ??_C@_0BD@EAMBFIDF@no?5protocol?5option?$AA@ 000000018005d3a8     libcpmt:syserror.obj
 0002:000013c0       ??_C@_0BE@MKFDAFMP@no?5stream?5resources?$AA@ 000000018005d3c0     libcpmt:syserror.obj
 0002:000013d8       ??_C@_0BK@IMCPHCBI@no?5such?5device?5or?5address?$AA@ 000000018005d3d8     libcpmt:syserror.obj
 0002:000013f8       ??_C@_0BA@ENLPPKBN@no?5such?5process?$AA@ 000000018005d3f8     libcpmt:syserror.obj
 0002:00001408       ??_C@_0BA@DOCPFFJG@not?5a?5directory?$AA@ 000000018005d408     libcpmt:syserror.obj
 0002:00001418       ??_C@_0N@POEIPGGF@not?5a?5socket?$AA@ 000000018005d418     libcpmt:syserror.obj
 0002:00001428       ??_C@_0N@LGAPMMPI@not?5a?5stream?$AA@ 000000018005d428     libcpmt:syserror.obj
 0002:00001438       ??_C@_0O@GLMIBBEG@not?5connected?$AA@ 000000018005d438     libcpmt:syserror.obj
 0002:00001448       ??_C@_0O@NHEDABJP@not?5supported?$AA@ 000000018005d448     libcpmt:syserror.obj
 0002:00001458       ??_C@_0BG@KDKHOPCO@operation?5in?5progress?$AA@ 000000018005d458     libcpmt:syserror.obj
 0002:00001470       ??_C@_0BI@OHIEJAAB@operation?5not?5permitted?$AA@ 000000018005d470     libcpmt:syserror.obj
 0002:00001488       ??_C@_0BI@LNEGIFLN@operation?5not?5supported?$AA@ 000000018005d488     libcpmt:syserror.obj
 0002:000014a0       ??_C@_0BG@OEMDKMEE@operation?5would?5block?$AA@ 000000018005d4a0     libcpmt:syserror.obj
 0002:000014b8       ??_C@_0L@BLPOFLNJ@owner?5dead?$AA@ 000000018005d4b8     libcpmt:syserror.obj
 0002:000014c8       ??_C@_0P@FNPOCJBE@protocol?5error?$AA@ 000000018005d4c8     libcpmt:syserror.obj
 0002:000014d8       ??_C@_0BH@JPPPLHJB@protocol?5not?5supported?$AA@ 000000018005d4d8     libcpmt:syserror.obj
 0002:000014f0       ??_C@_0BG@EICBIHDP@read?5only?5file?5system?$AA@ 000000018005d4f0     libcpmt:syserror.obj
 0002:00001508       ??_C@_0BO@BJBOMOEJ@resource?5deadlock?5would?5occur?$AA@ 000000018005d508     libcpmt:syserror.obj
 0002:00001528       ??_C@_0BE@GOIPJJHG@result?5out?5of?5range?$AA@ 000000018005d528     libcpmt:syserror.obj
 0002:00001540       ??_C@_0BG@MPLKFPAE@state?5not?5recoverable?$AA@ 000000018005d540     libcpmt:syserror.obj
 0002:00001558       ??_C@_0P@DIIFGFCG@stream?5timeout?$AA@ 000000018005d558     libcpmt:syserror.obj
 0002:00001568       ??_C@_0P@IPFDMIFL@text?5file?5busy?$AA@ 000000018005d568     libcpmt:syserror.obj
 0002:00001578       ??_C@_09KJPPMAOI@timed?5out?$AA@ 000000018005d578     libcpmt:syserror.obj
 0002:00001588       ??_C@_0BO@HACHBEKI@too?5many?5files?5open?5in?5system?$AA@ 000000018005d588     libcpmt:syserror.obj
 0002:000015a8       ??_C@_0P@HCOMKFCC@too?5many?5links?$AA@ 000000018005d5a8     libcpmt:syserror.obj
 0002:000015b8       ??_C@_0BO@EFGOJEF@too?5many?5symbolic?5link?5levels?$AA@ 000000018005d5b8     libcpmt:syserror.obj
 0002:000015d8       ??_C@_0BA@KGKGOOJA@value?5too?5large?$AA@ 000000018005d5d8     libcpmt:syserror.obj
 0002:000015e8       ??_C@_0BE@MIEJDDNH@wrong?5protocol?5type?$AA@ 000000018005d5e8     libcpmt:syserror.obj
 0002:00001608       ??_7bad_alloc@std@@6B@     000000018005d608     libcpmt:xthrow.obj
 0002:00001618       ??_C@_0P@GHFPNOJB@bad?5allocation?$AA@ 000000018005d618     libcpmt:xthrow.obj
 0002:00001630       ??_7logic_error@std@@6B@   000000018005d630     libcpmt:xthrow.obj
 0002:00001648       ??_7length_error@std@@6B@  000000018005d648     libcpmt:xthrow.obj
 0002:00001660       ??_7out_of_range@std@@6B@  000000018005d660     libcpmt:xthrow.obj
 0002:00001670       ??_C@_06MEIMCGCF@_hypot?$AA@ 000000018005d670     LIBCMT:hypot.obj
 0002:00001680       ??_7type_info@@6B@         000000018005d680     LIBCMT:typinfo.obj
 0002:00001688       ??_C@_17LGKOMLJ@?$AA?4?$AA?4?$AA?4?$AA?$AA@ 000000018005d688     LIBCMT:wassert.obj
 0002:00001690       ??_C@_13LBAGMAIH@?$AA?6?$AA?$AA@ 000000018005d690     LIBCMT:wassert.obj
 0002:00001694       ??_C@_15IABLJNFO@?$AA?6?$AA?6?$AA?$AA@ 000000018005d694     LIBCMT:wassert.obj
 0002:000016a0       ??_C@_1CE@OJBNHDMO@?$AAA?$AAs?$AAs?$AAe?$AAr?$AAt?$AAi?$AAo?$AAn?$AA?5?$AAf?$AAa?$AAi?$AAl?$AAe?$AAd?$AA?$CB?$AA?$AA@ 000000018005d6a0     LIBCMT:wassert.obj
 0002:000016c8       ??_C@_1BE@PHKBBGE@?$AAP?$AAr?$AAo?$AAg?$AAr?$AAa?$AAm?$AA?3?$AA?5?$AA?$AA@ 000000018005d6c8     LIBCMT:wassert.obj
 0002:000016e0       ??_C@_1CO@EAEJAADC@?$AA?$DM?$AAp?$AAr?$AAo?$AAg?$AAr?$AAa?$AAm?$AA?5?$AAn?$AAa?$AAm?$AAe?$AA?5?$AAu?$AAn?$AAk?$AAn?$AAo?$AAw?$AAn?$AA?$DO?$AA?$AA@ 000000018005d6e0     LIBCMT:wassert.obj
 0002:00001710       ??_C@_1O@HEMHKNDC@?$AAF?$AAi?$AAl?$AAe?$AA?3?$AA?5?$AA?$AA@ 000000018005d710     LIBCMT:wassert.obj
 0002:00001720       ??_C@_1O@KCAFKHJE@?$AAL?$AAi?$AAn?$AAe?$AA?3?$AA?5?$AA?$AA@ 000000018005d720     LIBCMT:wassert.obj
 0002:00001730       ??_C@_1BK@PEDCIPMA@?$AAE?$AAx?$AAp?$AAr?$AAe?$AAs?$AAs?$AAi?$AAo?$AAn?$AA?3?$AA?5?$AA?$AA@ 000000018005d730     LIBCMT:wassert.obj
 0002:00001750       ??_C@_1OA@EGMLFBHJ@?$AAF?$AAo?$AAr?$AA?5?$AAi?$AAn?$AAf?$AAo?$AAr?$AAm?$AAa?$AAt?$AAi?$AAo?$AAn?$AA?5?$AAo?$AAn?$AA?5?$AAh?$AAo?$AAw?$AA?5?$AAy?$AAo?$AAu?$AAr?$AA?5?$AAp?$AAr?$AAo?$AAg@ 000000018005d750     LIBCMT:wassert.obj
 0002:00001830       ??_C@_1HK@POCJMFGK@?$AA?$CI?$AAP?$AAr?$AAe?$AAs?$AAs?$AA?5?$AAR?$AAe?$AAt?$AAr?$AAy?$AA?5?$AAt?$AAo?$AA?5?$AAd?$AAe?$AAb?$AAu?$AAg?$AA?5?$AAt?$AAh?$AAe?$AA?5?$AAa?$AAp?$AAp?$AAl?$AAi?$AAc@ 000000018005d830     LIBCMT:wassert.obj
 0002:000018b0       ??_C@_1EK@MBDPDCGA@?$AAM?$AAi?$AAc?$AAr?$AAo?$AAs?$AAo?$AAf?$AAt?$AA?5?$AAV?$AAi?$AAs?$AAu?$AAa?$AAl?$AA?5?$AAC?$AA?$CL?$AA?$CL?$AA?5?$AAR?$AAu?$AAn?$AAt?$AAi?$AAm?$AAe?$AA?5?$AAL?$AAi?$AAb@ 000000018005d8b0     LIBCMT:wassert.obj
 0002:00001900       _pRawDllMain               000000018005d900     LIBCMT:dllcrt0.obj
 0002:00001900       _pDefaultRawDllMain        000000018005d900     LIBCMT:dllcrt0.obj
 0002:000019e8       _FPinit                    000000018005d9e8     LIBCMT:fpinit.obj
 0002:000019f8       ??_7exception@std@@6B@     000000018005d9f8     LIBCMT:stdexcpt.obj
 0002:00001a08       ??_C@_0BC@EOODALEL@Unknown?5exception?$AA@ 000000018005da08     LIBCMT:stdexcpt.obj
 0002:00001a30       ??_C@_1BI@BGOHAHKC@?$AAm?$AAs?$AAc?$AAo?$AAr?$AAe?$AAe?$AA?4?$AAd?$AAl?$AAl?$AA?$AA@ 000000018005da30     LIBCMT:crt0dat.obj
 0002:00001a48       ??_C@_0P@MIGLKIOC@CorExitProcess?$AA@ 000000018005da48     LIBCMT:crt0dat.obj
 0002:00001a58       ??_C@_06OJHGLDPL@?$CInull?$CJ?$AA@ 000000018005da58     LIBCMT:output.obj
 0002:00001a60       ??_C@_1O@CEDCILHN@?$AA?$CI?$AAn?$AAu?$AAl?$AAl?$AA?$CJ?$AA?$AA@ 000000018005da60     LIBCMT:output.obj
 0002:00001a70       __lookuptable              000000018005da70     LIBCMT:output.obj
 0002:00001c40       ??_C@_1FK@PGACCAFB@?$AAR?$AA6?$AA0?$AA0?$AA2?$AA?$AN?$AA?6?$AA?9?$AA?5?$AAf?$AAl?$AAo?$AAa?$AAt?$AAi?$AAn?$AAg?$AA?5?$AAp?$AAo?$AAi?$AAn?$AAt?$AA?5?$AAs?$AAu?$AAp?$AAp?$AAo?$AAr?$AAt?$AA?5@ 000000018005dc40     LIBCMT:crt0msg.obj
 0002:00001ca0       ??_C@_1FE@LLNEDJMD@?$AAR?$AA6?$AA0?$AA0?$AA8?$AA?$AN?$AA?6?$AA?9?$AA?5?$AAn?$AAo?$AAt?$AA?5?$AAe?$AAn?$AAo?$AAu?$AAg?$AAh?$AA?5?$AAs?$AAp?$AAa?$AAc?$AAe?$AA?5?$AAf?$AAo?$AAr?$AA?5?$AAa?$AAr@ 000000018005dca0     LIBCMT:crt0msg.obj
 0002:00001d00       ??_C@_1FI@HONFMGBI@?$AAR?$AA6?$AA0?$AA0?$AA9?$AA?$AN?$AA?6?$AA?9?$AA?5?$AAn?$AAo?$AAt?$AA?5?$AAe?$AAn?$AAo?$AAu?$AAg?$AAh?$AA?5?$AAs?$AAp?$AAa?$AAc?$AAe?$AA?5?$AAf?$AAo?$AAr?$AA?5?$AAe?$AAn@ 000000018005dd00     LIBCMT:crt0msg.obj
 0002:00001d60       ??_C@_1EG@BEHAGFJD@?$AAR?$AA6?$AA0?$AA1?$AA0?$AA?$AN?$AA?6?$AA?9?$AA?5?$AAa?$AAb?$AAo?$AAr?$AAt?$AA?$CI?$AA?$CJ?$AA?5?$AAh?$AAa?$AAs?$AA?5?$AAb?$AAe?$AAe?$AAn?$AA?5?$AAc?$AAa?$AAl?$AAl?$AAe?$AAd@ 000000018005dd60     LIBCMT:crt0msg.obj
 0002:00001db0       ??_C@_1FI@LOGNIKDM@?$AAR?$AA6?$AA0?$AA1?$AA6?$AA?$AN?$AA?6?$AA?9?$AA?5?$AAn?$AAo?$AAt?$AA?5?$AAe?$AAn?$AAo?$AAu?$AAg?$AAh?$AA?5?$AAs?$AAp?$AAa?$AAc?$AAe?$AA?5?$AAf?$AAo?$AAr?$AA?5?$AAt?$AAh@ 000000018005ddb0     LIBCMT:crt0msg.obj
 0002:00001e10       ??_C@_1FK@BEOGODMC@?$AAR?$AA6?$AA0?$AA1?$AA7?$AA?$AN?$AA?6?$AA?9?$AA?5?$AAu?$AAn?$AAe?$AAx?$AAp?$AAe?$AAc?$AAt?$AAe?$AAd?$AA?5?$AAm?$AAu?$AAl?$AAt?$AAi?$AAt?$AAh?$AAr?$AAe?$AAa?$AAd?$AA?5@ 000000018005de10     LIBCMT:crt0msg.obj
 0002:00001e70       ??_C@_1EC@JIBHAOPH@?$AAR?$AA6?$AA0?$AA1?$AA8?$AA?$AN?$AA?6?$AA?9?$AA?5?$AAu?$AAn?$AAe?$AAx?$AAp?$AAe?$AAc?$AAt?$AAe?$AAd?$AA?5?$AAh?$AAe?$AAa?$AAp?$AA?5?$AAe?$AAr?$AAr?$AAo?$AAr?$AA?$AN?$AA?6@ 000000018005de70     LIBCMT:crt0msg.obj
 0002:00001ec0       ??_C@_1FC@ECHBIFBC@?$AAR?$AA6?$AA0?$AA1?$AA9?$AA?$AN?$AA?6?$AA?9?$AA?5?$AAu?$AAn?$AAa?$AAb?$AAl?$AAe?$AA?5?$AAt?$AAo?$AA?5?$AAo?$AAp?$AAe?$AAn?$AA?5?$AAc?$AAo?$AAn?$AAs?$AAo?$AAl?$AAe?$AA?5@ 000000018005dec0     LIBCMT:crt0msg.obj
 0002:00001f20       ??_C@_1GK@FHCKBEFA@?$AAR?$AA6?$AA0?$AA2?$AA4?$AA?$AN?$AA?6?$AA?9?$AA?5?$AAn?$AAo?$AAt?$AA?5?$AAe?$AAn?$AAo?$AAu?$AAg?$AAh?$AA?5?$AAs?$AAp?$AAa?$AAc?$AAe?$AA?5?$AAf?$AAo?$AAr?$AA?5?$AA_?$AAo@ 000000018005df20     LIBCMT:crt0msg.obj
 0002:00001f90       ??_C@_1EM@MAADIHMB@?$AAR?$AA6?$AA0?$AA2?$AA5?$AA?$AN?$AA?6?$AA?9?$AA?5?$AAp?$AAu?$AAr?$AAe?$AA?5?$AAv?$AAi?$AAr?$AAt?$AAu?$AAa?$AAl?$AA?5?$AAf?$AAu?$AAn?$AAc?$AAt?$AAi?$AAo?$AAn?$AA?5?$AAc@ 000000018005df90     LIBCMT:crt0msg.obj
 0002:00001fe0       ??_C@_1GK@MCAAGJMO@?$AAR?$AA6?$AA0?$AA2?$AA6?$AA?$AN?$AA?6?$AA?9?$AA?5?$AAn?$AAo?$AAt?$AA?5?$AAe?$AAn?$AAo?$AAu?$AAg?$AAh?$AA?5?$AAs?$AAp?$AAa?$AAc?$AAe?$AA?5?$AAf?$AAo?$AAr?$AA?5?$AAs?$AAt@ 000000018005dfe0     LIBCMT:crt0msg.obj
 0002:00002050       ??_C@_1GK@MFGOKLAG@?$AAR?$AA6?$AA0?$AA2?$AA7?$AA?$AN?$AA?6?$AA?9?$AA?5?$AAn?$AAo?$AAt?$AA?5?$AAe?$AAn?$AAo?$AAu?$AAg?$AAh?$AA?5?$AAs?$AAp?$AAa?$AAc?$AAe?$AA?5?$AAf?$AAo?$AAr?$AA?5?$AAl?$AAo@ 000000018005e050     LIBCMT:crt0msg.obj
 0002:000020c0       ??_C@_1EK@HHFLMAOL@?$AAR?$AA6?$AA0?$AA2?$AA8?$AA?$AN?$AA?6?$AA?9?$AA?5?$AAu?$AAn?$AAa?$AAb?$AAl?$AAe?$AA?5?$AAt?$AAo?$AA?5?$AAi?$AAn?$AAi?$AAt?$AAi?$AAa?$AAl?$AAi?$AAz?$AAe?$AA?5?$AAh?$AAe@ 000000018005e0c0     LIBCMT:crt0msg.obj
 0002:00002110       ??_C@_1DO@BMFCDCD@?$AAR?$AA6?$AA0?$AA3?$AA0?$AA?$AN?$AA?6?$AA?9?$AA?5?$AAC?$AAR?$AAT?$AA?5?$AAn?$AAo?$AAt?$AA?5?$AAi?$AAn?$AAi?$AAt?$AAi?$AAa?$AAl?$AAi?$AAz?$AAe?$AAd?$AA?$AN?$AA?6?$AA?$AA@ 000000018005e110     LIBCMT:crt0msg.obj
 0002:00002150       ??_C@_1MG@ENCOOIDF@?$AAR?$AA6?$AA0?$AA3?$AA1?$AA?$AN?$AA?6?$AA?9?$AA?5?$AAA?$AAt?$AAt?$AAe?$AAm?$AAp?$AAt?$AA?5?$AAt?$AAo?$AA?5?$AAi?$AAn?$AAi?$AAt?$AAi?$AAa?$AAl?$AAi?$AAz?$AAe?$AA?5?$AAt@ 000000018005e150     LIBCMT:crt0msg.obj
 0002:00002220       ??_C@_1GG@GOPILAJP@?$AAR?$AA6?$AA0?$AA3?$AA2?$AA?$AN?$AA?6?$AA?9?$AA?5?$AAn?$AAo?$AAt?$AA?5?$AAe?$AAn?$AAo?$AAu?$AAg?$AAh?$AA?5?$AAs?$AAp?$AAa?$AAc?$AAe?$AA?5?$AAf?$AAo?$AAr?$AA?5?$AAl?$AAo@ 000000018005e220     LIBCMT:crt0msg.obj
 0002:00002290       ??_C@_1BOO@KGEDBGAJ@?$AAR?$AA6?$AA0?$AA3?$AA3?$AA?$AN?$AA?6?$AA?9?$AA?5?$AAA?$AAt?$AAt?$AAe?$AAm?$AAp?$AAt?$AA?5?$AAt?$AAo?$AA?5?$AAu?$AAs?$AAe?$AA?5?$AAM?$AAS?$AAI?$AAL?$AA?5?$AAc?$AAo?$AAd@ 000000018005e290     LIBCMT:crt0msg.obj
 0002:00002480       ??_C@_1GG@MKFPEKFO@?$AAR?$AA6?$AA0?$AA3?$AA4?$AA?$AN?$AA?6?$AA?9?$AA?5?$AAi?$AAn?$AAc?$AAo?$AAn?$AAs?$AAi?$AAs?$AAt?$AAe?$AAn?$AAt?$AA?5?$AAo?$AAn?$AAe?$AAx?$AAi?$AAt?$AA?5?$AAb?$AAe?$AAg@ 000000018005e480     LIBCMT:crt0msg.obj
 0002:000024e8       ??_C@_1BO@BFCDCGC@?$AAD?$AAO?$AAM?$AAA?$AAI?$AAN?$AA?5?$AAe?$AAr?$AAr?$AAo?$AAr?$AA?$AN?$AA?6?$AA?$AA@ 000000018005e4e8     LIBCMT:crt0msg.obj
 0002:00002508       ??_C@_1BK@KMOMNAAI@?$AAS?$AAI?$AAN?$AAG?$AA?5?$AAe?$AAr?$AAr?$AAo?$AAr?$AA?$AN?$AA?6?$AA?$AA@ 000000018005e508     LIBCMT:crt0msg.obj
 0002:00002528       ??_C@_1BM@JBBEPPHI@?$AAT?$AAL?$AAO?$AAS?$AAS?$AA?5?$AAe?$AAr?$AAr?$AAo?$AAr?$AA?$AN?$AA?6?$AA?$AA@ 000000018005e528     LIBCMT:crt0msg.obj
 0002:00002544       ??_C@_15JNBOKNOG@?$AA?$AN?$AA?6?$AA?$AA@ 000000018005e544     LIBCMT:crt0msg.obj
 0002:00002550       ??_C@_1BO@BKOMIGKJ@?$AAr?$AAu?$AAn?$AAt?$AAi?$AAm?$AAe?$AA?5?$AAe?$AAr?$AAr?$AAo?$AAr?$AA?5?$AA?$AA@ 000000018005e550     LIBCMT:crt0msg.obj
 0002:00002570       ??_C@_1DE@JNGNBFGO@?$AAR?$AAu?$AAn?$AAt?$AAi?$AAm?$AAe?$AA?5?$AAE?$AAr?$AAr?$AAo?$AAr?$AA?$CB?$AA?6?$AA?6?$AAP?$AAr?$AAo?$AAg?$AAr?$AAa?$AAm?$AA?3?$AA?5?$AA?$AA@ 000000018005e570     LIBCMT:crt0msg.obj
 0002:000025a8       ??_C@_1BG@GOEBHBDC@?$AAU?$AAS?$AAE?$AAR?$AA3?$AA2?$AA?4?$AAD?$AAL?$AAL?$AA?$AA@ 000000018005e5a8     LIBCMT:crtmboxw.obj
 0002:000025c0       ??_C@_0M@DLDCCGNP@MessageBoxW?$AA@ 000000018005e5c0     LIBCMT:crtmboxw.obj
 0002:000025d0       ??_C@_0BA@HNOPNCHB@GetActiveWindow?$AA@ 000000018005e5d0     LIBCMT:crtmboxw.obj
 0002:000025e0       ??_C@_0BD@HHGDFDBJ@GetLastActivePopup?$AA@ 000000018005e5e0     LIBCMT:crtmboxw.obj
 0002:000025f8       ??_C@_0BK@DEKFELLI@GetUserObjectInformationW?$AA@ 000000018005e5f8     LIBCMT:crtmboxw.obj
 0002:00002618       ??_C@_0BI@DFKBFLJE@GetProcessWindowStation?$AA@ 000000018005e618     LIBCMT:crtmboxw.obj
 0002:00002650       ??_C@_1M@HPNHIDJI@?$AAj?$AAa?$AA?9?$AAJ?$AAP?$AA?$AA@ 000000018005e650     LIBCMT:mbctype.obj
 0002:00002660       ??_C@_1M@BIBDDEMK@?$AAz?$AAh?$AA?9?$AAC?$AAN?$AA?$AA@ 000000018005e660     LIBCMT:mbctype.obj
 0002:00002670       ??_C@_1M@JLOOOEGK@?$AAk?$AAo?$AA?9?$AAK?$AAR?$AA?$AA@ 000000018005e670     LIBCMT:mbctype.obj
 0002:00002680       ??_C@_1M@CLNBBOPM@?$AAz?$AAh?$AA?9?$AAT?$AAW?$AA?$AA@ 000000018005e680     LIBCMT:mbctype.obj
 0002:0000268c       ??_C@_03KOEHGMDN@Sun?$AA@  000000018005e68c     LIBCMT:nlsdata.obj
 0002:00002690       ??_C@_03PDAGKDH@Mon?$AA@   000000018005e690     LIBCMT:nlsdata.obj
 0002:00002694       ??_C@_03NAGEINEP@Tue?$AA@  000000018005e694     LIBCMT:nlsdata.obj
 0002:00002698       ??_C@_03MHOMLAJA@Wed?$AA@  000000018005e698     LIBCMT:nlsdata.obj
 0002:0000269c       ??_C@_03IOFIKPDN@Thu?$AA@  000000018005e69c     LIBCMT:nlsdata.obj
 0002:000026a0       ??_C@_03IDIOELNC@Fri?$AA@  000000018005e6a0     LIBCMT:nlsdata.obj
 0002:000026a4       ??_C@_03FEFJNEK@Sat?$AA@   000000018005e6a4     LIBCMT:nlsdata.obj
 0002:000026a8       ??_C@_06OOPIFAJ@Sunday?$AA@ 000000018005e6a8     LIBCMT:nlsdata.obj
 0002:000026b0       ??_C@_06JLEDEDGH@Monday?$AA@ 000000018005e6b0     LIBCMT:nlsdata.obj
 0002:000026b8       ??_C@_07BAAGCFCM@Tuesday?$AA@ 000000018005e6b8     LIBCMT:nlsdata.obj
 0002:000026c0       ??_C@_09DLIGFAKA@Wednesday?$AA@ 000000018005e6c0     LIBCMT:nlsdata.obj
 0002:000026d0       ??_C@_08HACCIKIA@Thursday?$AA@ 000000018005e6d0     LIBCMT:nlsdata.obj
 0002:000026dc       ??_C@_06JECMNKMI@Friday?$AA@ 000000018005e6dc     LIBCMT:nlsdata.obj
 0002:000026e8       ??_C@_08INBOOONO@Saturday?$AA@ 000000018005e6e8     LIBCMT:nlsdata.obj
 0002:000026f4       ??_C@_03JIHJHPIE@Jan?$AA@  000000018005e6f4     LIBCMT:nlsdata.obj
 0002:000026f8       ??_C@_03HJBDCHOM@Feb?$AA@  000000018005e6f8     LIBCMT:nlsdata.obj
 0002:000026fc       ??_C@_03ODNJBKGA@Mar?$AA@  000000018005e6fc     LIBCMT:nlsdata.obj
 0002:00002700       ??_C@_03LEOLGMJP@Apr?$AA@  000000018005e700     LIBCMT:nlsdata.obj
 0002:00002704       ??_C@_03CNMDKL@May?$AA@    000000018005e704     LIBCMT:nlsdata.obj
 0002:00002708       ??_C@_03IDFGHECI@Jun?$AA@  000000018005e708     LIBCMT:nlsdata.obj
 0002:0000270c       ??_C@_03LBGABGKK@Jul?$AA@  000000018005e70c     LIBCMT:nlsdata.obj
 0002:00002710       ??_C@_03IFJFEIGA@Aug?$AA@  000000018005e710     LIBCMT:nlsdata.obj
 0002:00002714       ??_C@_03GGCAPAJC@Sep?$AA@  000000018005e714     LIBCMT:nlsdata.obj
 0002:00002718       ??_C@_03BMAOKBAD@Oct?$AA@  000000018005e718     LIBCMT:nlsdata.obj
 0002:0000271c       ??_C@_03JPJOFNIA@Nov?$AA@  000000018005e71c     LIBCMT:nlsdata.obj
 0002:00002720       ??_C@_03MKABNOCG@Dec?$AA@  000000018005e720     LIBCMT:nlsdata.obj
 0002:00002728       ??_C@_07CGJPFGJA@January?$AA@ 000000018005e728     LIBCMT:nlsdata.obj
 0002:00002730       ??_C@_08GNJGEPFN@February?$AA@ 000000018005e730     LIBCMT:nlsdata.obj
 0002:0000273c       ??_C@_05HPCKOFNC@March?$AA@ 000000018005e73c     LIBCMT:nlsdata.obj
 0002:00002744       ??_C@_05DMJDNLEJ@April?$AA@ 000000018005e744     LIBCMT:nlsdata.obj
 0002:0000274c       ??_C@_04CNLMGBGM@June?$AA@ 000000018005e74c     LIBCMT:nlsdata.obj
 0002:00002754       ??_C@_04MIEPOIFP@July?$AA@ 000000018005e754     LIBCMT:nlsdata.obj
 0002:0000275c       ??_C@_06LBBHFDDG@August?$AA@ 000000018005e75c     LIBCMT:nlsdata.obj
 0002:00002768       ??_C@_09BHHEALKD@September?$AA@ 000000018005e768     LIBCMT:nlsdata.obj
 0002:00002778       ??_C@_07JJNFCEND@October?$AA@ 000000018005e778     LIBCMT:nlsdata.obj
 0002:00002780       ??_C@_08HCHEGEOA@November?$AA@ 000000018005e780     LIBCMT:nlsdata.obj
 0002:00002790       ??_C@_08EDHMEBNP@December?$AA@ 000000018005e790     LIBCMT:nlsdata.obj
 0002:0000279c       ??_C@_02DEDBPAFC@AM?$AA@   000000018005e79c     LIBCMT:nlsdata.obj
 0002:000027a0       ??_C@_02CJNFDJBF@PM?$AA@   000000018005e7a0     LIBCMT:nlsdata.obj
 0002:000027a8       ??_C@_08BPBNCDIB@MM?1dd?1yy?$AA@ 000000018005e7a8     LIBCMT:nlsdata.obj
 0002:000027b8       ??_C@_0BE@CKGJFCPC@dddd?0?5MMMM?5dd?0?5yyyy?$AA@ 000000018005e7b8     LIBCMT:nlsdata.obj
 0002:000027d0       ??_C@_08JCCMCCIL@HH?3mm?3ss?$AA@ 000000018005e7d0     LIBCMT:nlsdata.obj
 0002:000027e0       ??_C@_17MBGCMIPB@?$AAS?$AAu?$AAn?$AA?$AA@ 000000018005e7e0     LIBCMT:nlsdata.obj
 0002:000027e8       ??_C@_17KBOMKBF@?$AAM?$AAo?$AAn?$AA?$AA@ 000000018005e7e8     LIBCMT:nlsdata.obj
 0002:000027f0       ??_C@_17BMKGEGOJ@?$AAT?$AAu?$AAe?$AA?$AA@ 000000018005e7f0     LIBCMT:nlsdata.obj
 0002:000027f8       ??_C@_17CJEDCEPE@?$AAW?$AAe?$AAd?$AA?$AA@ 000000018005e7f8     LIBCMT:nlsdata.obj
 0002:00002800       ??_C@_17PDPHAADD@?$AAT?$AAh?$AAu?$AA?$AA@ 000000018005e800     LIBCMT:nlsdata.obj
 0002:00002808       ??_C@_17HFOLPPLP@?$AAF?$AAr?$AAi?$AA?$AA@ 000000018005e808     LIBCMT:nlsdata.obj
 0002:00002810       ??_C@_17GGIBDPIH@?$AAS?$AAa?$AAt?$AA?$AA@ 000000018005e810     LIBCMT:nlsdata.obj
 0002:00002818       ??_C@_1O@IHNHDHPB@?$AAS?$AAu?$AAn?$AAd?$AAa?$AAy?$AA?$AA@ 000000018005e818     LIBCMT:nlsdata.obj
 0002:00002828       ??_C@_1O@MMNBFLIA@?$AAM?$AAo?$AAn?$AAd?$AAa?$AAy?$AA?$AA@ 000000018005e828     LIBCMT:nlsdata.obj
 0002:00002838       ??_C@_1BA@ENFBFFEK@?$AAT?$AAu?$AAe?$AAs?$AAd?$AAa?$AAy?$AA?$AA@ 000000018005e838     LIBCMT:nlsdata.obj
 0002:00002848       ??_C@_1BE@EBOGMDOH@?$AAW?$AAe?$AAd?$AAn?$AAe?$AAs?$AAd?$AAa?$AAy?$AA?$AA@ 000000018005e848     LIBCMT:nlsdata.obj
 0002:00002860       ??_C@_1BC@HHMNLIHE@?$AAT?$AAh?$AAu?$AAr?$AAs?$AAd?$AAa?$AAy?$AA?$AA@ 000000018005e860     LIBCMT:nlsdata.obj
 0002:00002878       ??_C@_1O@PDICJHAG@?$AAF?$AAr?$AAi?$AAd?$AAa?$AAy?$AA?$AA@ 000000018005e878     LIBCMT:nlsdata.obj
 0002:00002888       ??_C@_1BC@ENMNNPAJ@?$AAS?$AAa?$AAt?$AAu?$AAr?$AAd?$AAa?$AAy?$AA?$AA@ 000000018005e888     LIBCMT:nlsdata.obj
 0002:000028a0       ??_C@_17DKNBKCHM@?$AAJ?$AAa?$AAn?$AA?$AA@ 000000018005e8a0     LIBCMT:nlsdata.obj
 0002:000028a8       ??_C@_17LMDJEKJN@?$AAF?$AAe?$AAb?$AA?$AA@ 000000018005e8a8     LIBCMT:nlsdata.obj
 0002:000028b0       ??_C@_17CKNLEDEC@?$AAM?$AAa?$AAr?$AA?$AA@ 000000018005e8b0     LIBCMT:nlsdata.obj
 0002:000028b8       ??_C@_17LFPOIHDD@?$AAA?$AAp?$AAr?$AA?$AA@ 000000018005e8b8     LIBCMT:nlsdata.obj
 0002:000028c0       ??_C@_17PNNKMEED@?$AAM?$AAa?$AAy?$AA?$AA@ 000000018005e8c0     LIBCMT:nlsdata.obj
 0002:000028c8       ??_C@_17KCJGOCPB@?$AAJ?$AAu?$AAn?$AA?$AA@ 000000018005e8c8     LIBCMT:nlsdata.obj
 0002:000028d0       ??_C@_17IJPCKHK@?$AAJ?$AAu?$AAl?$AA?$AA@ 000000018005e8d0     LIBCMT:nlsdata.obj
 0002:000028d8       ??_C@_17ICPELBCN@?$AAA?$AAu?$AAg?$AA?$AA@ 000000018005e8d8     LIBCMT:nlsdata.obj
 0002:000028e0       ??_C@_17HCHCOKMG@?$AAS?$AAe?$AAp?$AA?$AA@ 000000018005e8e0     LIBCMT:nlsdata.obj
 0002:000028e8       ??_C@_17FNLKOI@?$AAO?$AAc?$AAt?$AA?$AA@ 000000018005e8e8     LIBCMT:nlsdata.obj
 0002:000028f0       ??_C@_17BBDMLCIG@?$AAN?$AAo?$AAv?$AA?$AA@ 000000018005e8f0     LIBCMT:nlsdata.obj
 0002:000028f8       ??_C@_17EGKACKIF@?$AAD?$AAe?$AAc?$AA?$AA@ 000000018005e8f8     LIBCMT:nlsdata.obj
 0002:00002900       ??_C@_1BA@EFMEIEBA@?$AAJ?$AAa?$AAn?$AAu?$AAa?$AAr?$AAy?$AA?$AA@ 000000018005e900     LIBCMT:nlsdata.obj
 0002:00002910       ??_C@_1BC@JGDDFFAM@?$AAF?$AAe?$AAb?$AAr?$AAu?$AAa?$AAr?$AAy?$AA?$AA@ 000000018005e910     LIBCMT:nlsdata.obj
 0002:00002928       ??_C@_1M@IKEENEDF@?$AAM?$AAa?$AAr?$AAc?$AAh?$AA?$AA@ 000000018005e928     LIBCMT:nlsdata.obj
 0002:00002938       ??_C@_1M@GJNLMHFD@?$AAA?$AAp?$AAr?$AAi?$AAl?$AA?$AA@ 000000018005e938     LIBCMT:nlsdata.obj
 0002:00002948       ??_C@_19EPFLPGAP@?$AAJ?$AAu?$AAn?$AAe?$AA?$AA@ 000000018005e948     LIBCMT:nlsdata.obj
 0002:00002958       ??_C@_19BIFMLPCD@?$AAJ?$AAu?$AAl?$AAy?$AA?$AA@ 000000018005e958     LIBCMT:nlsdata.obj
 0002:00002968       ??_C@_1O@PAHLKOAC@?$AAA?$AAu?$AAg?$AAu?$AAs?$AAt?$AA?$AA@ 000000018005e968     LIBCMT:nlsdata.obj
 0002:00002978       ??_C@_1BE@DKAAMBJL@?$AAS?$AAe?$AAp?$AAt?$AAe?$AAm?$AAb?$AAe?$AAr?$AA?$AA@ 000000018005e978     LIBCMT:nlsdata.obj
 0002:00002990       ??_C@_1BA@EPANDLNG@?$AAO?$AAc?$AAt?$AAo?$AAb?$AAe?$AAr?$AA?$AA@ 000000018005e990     LIBCMT:nlsdata.obj
 0002:000029a0       ??_C@_1BC@BGLIFPF@?$AAN?$AAo?$AAv?$AAe?$AAm?$AAb?$AAe?$AAr?$AA?$AA@ 000000018005e9a0     LIBCMT:nlsdata.obj
 0002:000029b8       ??_C@_1BC@FEMKIFH@?$AAD?$AAe?$AAc?$AAe?$AAm?$AAb?$AAe?$AAr?$AA?$AA@ 000000018005e9b8     LIBCMT:nlsdata.obj
 0002:000029cc       ??_C@_15ODEHAHHF@?$AAA?$AAM?$AA?$AA@ 000000018005e9cc     LIBCMT:nlsdata.obj
 0002:000029d4       ??_C@_15CLMNNGEL@?$AAP?$AAM?$AA?$AA@ 000000018005e9d4     LIBCMT:nlsdata.obj
 0002:000029e0       ??_C@_1BC@IEBCMHCM@?$AAM?$AAM?$AA?1?$AAd?$AAd?$AA?1?$AAy?$AAy?$AA?$AA@ 000000018005e9e0     LIBCMT:nlsdata.obj
 0002:000029f8       ??_C@_1CI@KNAKOEBC@?$AAd?$AAd?$AAd?$AAd?$AA?0?$AA?5?$AAM?$AAM?$AAM?$AAM?$AA?5?$AAd?$AAd?$AA?0?$AA?5?$AAy?$AAy?$AAy?$AAy?$AA?$AA@ 000000018005e9f8     LIBCMT:nlsdata.obj
 0002:00002a20       ??_C@_1BC@GDGBMEMK@?$AAH?$AAH?$AA?3?$AAm?$AAm?$AA?3?$AAs?$AAs?$AA?$AA@ 000000018005ea20     LIBCMT:nlsdata.obj
 0002:00002a38       ??_C@_1M@BMHNFIME@?$AAe?$AAn?$AA?9?$AAU?$AAS?$AA?$AA@ 000000018005ea38     LIBCMT:nlsdata.obj
 0002:00002ad0       _XcptActTab                000000018005ead0     LIBCMT:winxfltr.obj
 0002:00002b90       _XcptActTabCount           000000018005eb90     LIBCMT:winxfltr.obj
 0002:00002b94       _XcptActTabSize            000000018005eb94     LIBCMT:winxfltr.obj
 0002:00002b98       _First_FPE_Indx            000000018005eb98     LIBCMT:winxfltr.obj
 0002:00002b9c       _Num_FPE                   000000018005eb9c     LIBCMT:winxfltr.obj
 0002:00002ba0       ??_C@_1BK@MGMFAEKH@?$AAk?$AAe?$AAr?$AAn?$AAe?$AAl?$AA3?$AA2?$AA?4?$AAd?$AAl?$AAl?$AA?$AA@ 000000018005eba0     LIBCMT:winapisupp.obj
 0002:00002bc0       ??_C@_08KNHFBNJ@FlsAlloc?$AA@ 000000018005ebc0     LIBCMT:winapisupp.obj
 0002:00002bd0       ??_C@_07PEJMOBNF@FlsFree?$AA@ 000000018005ebd0     LIBCMT:winapisupp.obj
 0002:00002bd8       ??_C@_0M@GDNOONDI@FlsGetValue?$AA@ 000000018005ebd8     LIBCMT:winapisupp.obj
 0002:00002be8       ??_C@_0M@JCPCPOEF@FlsSetValue?$AA@ 000000018005ebe8     LIBCMT:winapisupp.obj
 0002:00002bf8       ??_C@_0BM@HCFOFFN@InitializeCriticalSectionEx?$AA@ 000000018005ebf8     LIBCMT:winapisupp.obj
 0002:00002c18       ??_C@_0P@DLHPPCNH@CreateEventExW?$AA@ 000000018005ec18     LIBCMT:winapisupp.obj
 0002:00002c28       ??_C@_0BD@KIEEOEEH@CreateSemaphoreExW?$AA@ 000000018005ec28     LIBCMT:winapisupp.obj
 0002:00002c40       ??_C@_0BI@BKLFFAPO@SetThreadStackGuarantee?$AA@ 000000018005ec40     LIBCMT:winapisupp.obj
 0002:00002c58       ??_C@_0BG@OGFAJCKC@CreateThreadpoolTimer?$AA@ 000000018005ec58     LIBCMT:winapisupp.obj
 0002:00002c70       ??_C@_0BD@LPLEMMDI@SetThreadpoolTimer?$AA@ 000000018005ec70     LIBCMT:winapisupp.obj
 0002:00002c88       ??_C@_0CA@FMNJENH@WaitForThreadpoolTimerCallbacks?$AA@ 000000018005ec88     LIBCMT:winapisupp.obj
 0002:00002ca8       ??_C@_0BF@DCFCCNOC@CloseThreadpoolTimer?$AA@ 000000018005eca8     LIBCMT:winapisupp.obj
 0002:00002cc0       ??_C@_0BF@FLABGKKM@CreateThreadpoolWait?$AA@ 000000018005ecc0     LIBCMT:winapisupp.obj
 0002:00002cd8       ??_C@_0BC@MGCOHNA@SetThreadpoolWait?$AA@ 000000018005ecd8     LIBCMT:winapisupp.obj
 0002:00002cf0       ??_C@_0BE@OCIOMIMP@CloseThreadpoolWait?$AA@ 000000018005ecf0     LIBCMT:winapisupp.obj
 0002:00002d08       ??_C@_0BJ@LKGHFHBO@FlushProcessWriteBuffers?$AA@ 000000018005ed08     LIBCMT:winapisupp.obj
 0002:00002d28       ??_C@_0BP@KALKKPMO@FreeLibraryWhenCallbackReturns?$AA@ 000000018005ed28     LIBCMT:winapisupp.obj
 0002:00002d48       ??_C@_0BK@DFNBACLA@GetCurrentProcessorNumber?$AA@ 000000018005ed48     LIBCMT:winapisupp.obj
 0002:00002d68       ??_C@_0BP@KHGALBC@GetLogicalProcessorInformation?$AA@ 000000018005ed68     LIBCMT:winapisupp.obj
 0002:00002d88       ??_C@_0BE@FKKLLFLM@CreateSymbolicLinkW?$AA@ 000000018005ed88     LIBCMT:winapisupp.obj
 0002:00002da0       ??_C@_0BJ@OHNKDLIJ@SetDefaultDllDirectories?$AA@ 000000018005eda0     LIBCMT:winapisupp.obj
 0002:00002dc0       ??_C@_0BE@LJANKFHF@EnumSystemLocalesEx?$AA@ 000000018005edc0     LIBCMT:winapisupp.obj
 0002:00002dd8       ??_C@_0BA@IHGNDAEB@CompareStringEx?$AA@ 000000018005edd8     LIBCMT:winapisupp.obj
 0002:00002de8       ??_C@_0BA@EPCJIIPD@GetDateFormatEx?$AA@ 000000018005ede8     LIBCMT:winapisupp.obj
 0002:00002df8       ??_C@_0BA@ONOKGCMP@GetLocaleInfoEx?$AA@ 000000018005edf8     LIBCMT:winapisupp.obj
 0002:00002e08       ??_C@_0BA@CIJJKCJJ@GetTimeFormatEx?$AA@ 000000018005ee08     LIBCMT:winapisupp.obj
 0002:00002e18       ??_C@_0BJ@PBCCBIPI@GetUserDefaultLocaleName?$AA@ 000000018005ee18     LIBCMT:winapisupp.obj
 0002:00002e38       ??_C@_0BC@CELBKLLA@IsValidLocaleName?$AA@ 000000018005ee38     LIBCMT:winapisupp.obj
 0002:00002e50       ??_C@_0O@KKBNKAPF@LCMapStringEx?$AA@ 000000018005ee50     LIBCMT:winapisupp.obj
 0002:00002e60       ??_C@_0BE@JOGNEJCI@GetCurrentPackageId?$AA@ 000000018005ee60     LIBCMT:winapisupp.obj
 0002:00002e78       ??_C@_0P@CDHHOHKP@GetTickCount64?$AA@ 000000018005ee78     LIBCMT:winapisupp.obj
 0002:00002e88       ??_C@_0BO@KPCLFDJJ@GetFileInformationByHandleExW?$AA@ 000000018005ee88     LIBCMT:winapisupp.obj
 0002:00002ea8       ??_C@_0BM@MHIDLABK@SetFileInformationByHandleW?$AA@ 000000018005eea8     LIBCMT:winapisupp.obj
 0002:00002ec8       _pDestructExceptionObject  000000018005eec8     LIBCMT:frame.obj
 0002:00002ed8       ??_7bad_exception@std@@6B@ 000000018005eed8     LIBCMT:frame.obj
 0002:00002ee8       ??_C@_0O@DPKOEFFH@bad?5exception?$AA@ 000000018005eee8     LIBCMT:frame.obj
 0002:00002ef8       ??_C@_05KLBDPFGC@e?$CL000?$AA@ 000000018005eef8     LIBCMT:cvt.obj
 0002:00002f00       __real@0000000000000000    000000018005ef00     LIBCMT:cvt.obj
 0002:00002f10       LcidToLocaleNameTable      000000018005ef10     LIBCMT:winapinls.obj
 0002:00003d50       LocaleNameToIndexTable     000000018005fd50     LIBCMT:winapinls.obj
 0002:00004b90       ??_C@_15EMKDOKLE@?$AAa?$AAr?$AA?$AA@ 0000000180060b90     LIBCMT:winapinls.obj
 0002:00004b98       ??_C@_15KNPADPLH@?$AAb?$AAg?$AA?$AA@ 0000000180060b98     LIBCMT:winapinls.obj
 0002:00004ba0       ??_C@_15EDMHLDMO@?$AAc?$AAa?$AA?$AA@ 0000000180060ba0     LIBCMT:winapinls.obj
 0002:00004ba8       ??_C@_1O@BPEAJADD@?$AAz?$AAh?$AA?9?$AAC?$AAH?$AAS?$AA?$AA@ 0000000180060ba8     LIBCMT:winapinls.obj
 0002:00004bb8       ??_C@_15LJNHCMNK@?$AAc?$AAs?$AA?$AA@ 0000000180060bb8     LIBCMT:winapinls.obj
 0002:00004bc0       ??_C@_15FOMCIDHG@?$AAd?$AAa?$AA?$AA@ 0000000180060bc0     LIBCMT:winapinls.obj
 0002:00004bc8       ??_C@_15NBKABECB@?$AAd?$AAe?$AA?$AA@ 0000000180060bc8     LIBCMT:winapinls.obj
 0002:00004bd0       ??_C@_15GHPEIIAO@?$AAe?$AAl?$AA?$AA@ 0000000180060bd0     LIBCMT:winapinls.obj
 0002:00004bd8       ??_C@_15MNPNEAIF@?$AAe?$AAn?$AA?$AA@ 0000000180060bd8     LIBCMT:winapinls.obj
 0002:00004be0       ??_C@_15GPIOMPMH@?$AAe?$AAs?$AA?$AA@ 0000000180060be0     LIBCMT:winapinls.obj
 0002:00004be8       ??_C@_15NGLOAKJC@?$AAf?$AAi?$AA?$AA@ 0000000180060be8     LIBCMT:winapinls.obj
 0002:00004bf0       ??_C@_15FBKGNKAM@?$AAf?$AAr?$AA?$AA@ 0000000180060bf0     LIBCMT:winapinls.obj
 0002:00004bf8       ??_C@_15KGGCNEFK@?$AAh?$AAe?$AA?$AA@ 0000000180060bf8     LIBCMT:winapinls.obj
 0002:00004c00       ??_C@_15PGHLIDMF@?$AAh?$AAu?$AA?$AA@ 0000000180060c00     LIBCMT:winapinls.obj
 0002:00004c08       ??_C@_15BIEMAPLM@?$AAi?$AAs?$AA?$AA@ 0000000180060c08     LIBCMT:winapinls.obj
 0002:00004c10       ??_C@_15IFJLDHAF@?$AAi?$AAt?$AA?$AA@ 0000000180060c10     LIBCMT:winapinls.obj
 0002:00004c18       ??_C@_15GEMIOCAG@?$AAj?$AAa?$AA?$AA@ 0000000180060c18     LIBCMT:winapinls.obj
 0002:00004c20       ??_C@_15EPELEGJA@?$AAk?$AAo?$AA?$AA@ 0000000180060c20     LIBCMT:winapinls.obj
 0002:00004c28       ??_C@_15NDDHIMN@?$AAn?$AAl?$AA?$AA@ 0000000180060c28     LIBCMT:winapinls.obj
 0002:00004c30       ??_C@_15BPIGNHCD@?$AAn?$AAo?$AA?$AA@ 0000000180060c30     LIBCMT:winapinls.obj
 0002:00004c38       ??_C@_15DEOPBLCG@?$AAp?$AAl?$AA?$AA@ 0000000180060c38     LIBCMT:winapinls.obj
 0002:00004c40       ??_C@_15KBECGEFG@?$AAp?$AAt?$AA?$AA@ 0000000180060c40     LIBCMT:winapinls.obj
 0002:00004c48       ??_C@_15GLJCBFMD@?$AAr?$AAo?$AA?$AA@ 0000000180060c48     LIBCMT:winapinls.obj
 0002:00004c50       ??_C@_15FEDGKCDI@?$AAr?$AAu?$AA?$AA@ 0000000180060c50     LIBCMT:winapinls.obj
 0002:00004c58       ??_C@_15GLKMLLHM@?$AAh?$AAr?$AA?$AA@ 0000000180060c58     LIBCMT:winapinls.obj
 0002:00004c60       ??_C@_15CPKMFBDB@?$AAs?$AAk?$AA?$AA@ 0000000180060c60     LIBCMT:winapinls.obj
 0002:00004c68       ??_C@_15BAAIOGMK@?$AAs?$AAq?$AA?$AA@ 0000000180060c68     LIBCMT:winapinls.obj
 0002:00004c70       ??_C@_15INNPNOHD@?$AAs?$AAv?$AA?$AA@ 0000000180060c70     LIBCMT:winapinls.obj
 0002:00004c78       ??_C@_15CABMMOGH@?$AAt?$AAh?$AA?$AA@ 0000000180060c78     LIBCMT:winapinls.obj
 0002:00004c80       ??_C@_15BPLIHJJM@?$AAt?$AAr?$AA?$AA@ 0000000180060c80     LIBCMT:winapinls.obj
 0002:00004c88       ??_C@_15NEOEKKDJ@?$AAu?$AAr?$AA?$AA@ 0000000180060c88     LIBCMT:winapinls.obj
 0002:00004c90       ??_C@_15NFICGAJK@?$AAi?$AAd?$AA?$AA@ 0000000180060c90     LIBCMT:winapinls.obj
 0002:00004c98       ??_C@_15PJPFLCCM@?$AAu?$AAk?$AA?$AA@ 0000000180060c98     LIBCMT:winapinls.obj
 0002:00004ca0       ??_C@_15HPJPHDM@?$AAb?$AAe?$AA?$AA@ 0000000180060ca0     LIBCMT:winapinls.obj
 0002:00004ca8       ??_C@_15LCHLGJII@?$AAs?$AAl?$AA?$AA@ 0000000180060ca8     LIBCMT:winapinls.obj
 0002:00004cb0       ??_C@_15PCFJPHHO@?$AAe?$AAt?$AA?$AA@ 0000000180060cb0     LIBCMT:winapinls.obj
 0002:00004cb8       ??_C@_15HPFPGODN@?$AAl?$AAv?$AA?$AA@ 0000000180060cb8     LIBCMT:winapinls.obj
 0002:00004cc0       ??_C@_15NFFGKGLG@?$AAl?$AAt?$AA?$AA@ 0000000180060cc0     LIBCMT:winapinls.obj
 0002:00004cc8       ??_C@_15BDAKCCHN@?$AAf?$AAa?$AA?$AA@ 0000000180060cc8     LIBCMT:winapinls.obj
 0002:00004cd0       ??_C@_15NFGIAIAJ@?$AAv?$AAi?$AA?$AA@ 0000000180060cd0     LIBCMT:winapinls.obj
 0002:00004cd8       ??_C@_15LMKNDMHN@?$AAh?$AAy?$AA?$AA@ 0000000180060cd8     LIBCMT:winapinls.obj
 0002:00004ce0       ??_C@_15IJBHMCFL@?$AAa?$AAz?$AA?$AA@ 0000000180060ce0     LIBCMT:winapinls.obj
 0002:00004ce8       ??_C@_15EKOFJABL@?$AAe?$AAu?$AA?$AA@ 0000000180060ce8     LIBCMT:winapinls.obj
 0002:00004cf0       ??_C@_15BGHADCNK@?$AAm?$AAk?$AA?$AA@ 0000000180060cf0     LIBCMT:winapinls.obj
 0002:00004cf8       ??_C@_15JDNICKHM@?$AAa?$AAf?$AA?$AA@ 0000000180060cf8     LIBCMT:winapinls.obj
 0002:00004d00       ??_C@_15KPJEDBKD@?$AAk?$AAa?$AA?$AA@ 0000000180060d00     LIBCMT:winapinls.obj
 0002:00004d08       ??_C@_15PDNFFFEO@?$AAf?$AAo?$AA?$AA@ 0000000180060d08     LIBCMT:winapinls.obj
 0002:00004d10       ??_C@_15OMLEGLOC@?$AAh?$AAi?$AA?$AA@ 0000000180060d10     LIBCMT:winapinls.obj
 0002:00004d18       ??_C@_15IDNNENKK@?$AAm?$AAs?$AA?$AA@ 0000000180060d18     LIBCMT:winapinls.obj
 0002:00004d20       ??_C@_15MACJNBMH@?$AAk?$AAk?$AA?$AA@ 0000000180060d20     LIBCMT:winapinls.obj
 0002:00004d28       ??_C@_15DKDJEOND@?$AAk?$AAy?$AA?$AA@ 0000000180060d28     LIBCMT:winapinls.obj
 0002:00004d30       ??_C@_15DFGDLJBG@?$AAs?$AAw?$AA?$AA@ 0000000180060d30     LIBCMT:winapinls.obj
 0002:00004d38       ??_C@_15BBFAICNG@?$AAu?$AAz?$AA?$AA@ 0000000180060d38     LIBCMT:winapinls.obj
 0002:00004d40       ??_C@_15DKNDCGEA@?$AAt?$AAt?$AA?$AA@ 0000000180060d40     LIBCMT:winapinls.obj
 0002:00004d48       ??_C@_15MGIFMDPL@?$AAp?$AAa?$AA?$AA@ 0000000180060d48     LIBCMT:winapinls.obj
 0002:00004d50       ??_C@_15HCNDBBA@?$AAg?$AAu?$AA?$AA@ 0000000180060d50     LIBCMT:winapinls.obj
 0002:00004d58       ??_C@_15FNBEIBON@?$AAt?$AAa?$AA?$AA@ 0000000180060d58     LIBCMT:winapinls.obj
 0002:00004d60       ??_C@_15NCHGBGLK@?$AAt?$AAe?$AA?$AA@ 0000000180060d60     LIBCMT:winapinls.obj
 0002:00004d68       ??_C@_15PHPHCBPF@?$AAk?$AAn?$AA?$AA@ 0000000180060d68     LIBCMT:winapinls.obj
 0002:00004d70       ??_C@_15DLGBCKMP@?$AAm?$AAr?$AA?$AA@ 0000000180060d70     LIBCMT:winapinls.obj
 0002:00004d78       ??_C@_15EABBLBFF@?$AAs?$AAa?$AA?$AA@ 0000000180060d78     LIBCMT:winapinls.obj
 0002:00004d80       ??_C@_15CBKOMCOI@?$AAm?$AAn?$AA?$AA@ 0000000180060d80     LIBCMT:winapinls.obj
 0002:00004d88       ??_C@_15CKDMCJAF@?$AAg?$AAl?$AA?$AA@ 0000000180060d88     LIBCMT:winapinls.obj
 0002:00004d90       ??_C@_17CNJFBPG@?$AAk?$AAo?$AAk?$AA?$AA@ 0000000180060d90     LIBCMT:winapinls.obj
 0002:00004d98       ??_C@_17FFBJICPL@?$AAs?$AAy?$AAr?$AA?$AA@ 0000000180060d98     LIBCMT:winapinls.obj
 0002:00004da0       ??_C@_17KPNDCPAF@?$AAd?$AAi?$AAv?$AA?$AA@ 0000000180060da0     LIBCMT:winapinls.obj
 0002:00004da8       ??_C@_11LOCGONAA@?$AA?$AA@ 0000000180060da8     LIBCMT:winapinls.obj
 0002:00004db0       ??_C@_1M@OKAHONE@?$AAa?$AAr?$AA?9?$AAS?$AAA?$AA?$AA@ 0000000180060db0     LIBCMT:winapinls.obj
 0002:00004dc0       ??_C@_1M@FFFIGIGK@?$AAb?$AAg?$AA?9?$AAB?$AAG?$AA?$AA@ 0000000180060dc0     LIBCMT:winapinls.obj
 0002:00004dd0       ??_C@_1M@BJNKEDC@?$AAc?$AAa?$AA?9?$AAE?$AAS?$AA?$AA@ 0000000180060dd0     LIBCMT:winapinls.obj
 0002:00004de0       ??_C@_1M@IJJHFJHA@?$AAc?$AAs?$AA?9?$AAC?$AAZ?$AA?$AA@ 0000000180060de0     LIBCMT:winapinls.obj
 0002:00004df0       ??_C@_1M@CLPEOBGI@?$AAd?$AAa?$AA?9?$AAD?$AAK?$AA?$AA@ 0000000180060df0     LIBCMT:winapinls.obj
 0002:00004e00       ??_C@_1M@MCMADGCB@?$AAd?$AAe?$AA?9?$AAD?$AAE?$AA?$AA@ 0000000180060e00     LIBCMT:winapinls.obj
 0002:00004e10       ??_C@_1M@OOCKEMAM@?$AAe?$AAl?$AA?9?$AAG?$AAR?$AA?$AA@ 0000000180060e10     LIBCMT:winapinls.obj
 0002:00004e20       ??_C@_1M@DDNJFGID@?$AAf?$AAi?$AA?9?$AAF?$AAI?$AA?$AA@ 0000000180060e20     LIBCMT:winapinls.obj
 0002:00004e30       ??_C@_1M@GLIPPMAC@?$AAf?$AAr?$AA?9?$AAF?$AAR?$AA?$AA@ 0000000180060e30     LIBCMT:winapinls.obj
 0002:00004e40       ??_C@_1M@GFMCHPE@?$AAh?$AAe?$AA?9?$AAI?$AAL?$AA?$AA@ 0000000180060e40     LIBCMT:winapinls.obj
 0002:00004e50       ??_C@_1M@MHLPGNKM@?$AAh?$AAu?$AA?9?$AAH?$AAU?$AA?$AA@ 0000000180060e50     LIBCMT:winapinls.obj
 0002:00004e60       ??_C@_1M@LPDDNNPN@?$AAi?$AAs?$AA?9?$AAI?$AAS?$AA?$AA@ 0000000180060e60     LIBCMT:winapinls.obj
 0002:00004e70       ??_C@_1M@MADIPODN@?$AAi?$AAt?$AA?9?$AAI?$AAT?$AA?$AA@ 0000000180060e70     LIBCMT:winapinls.obj
 0002:00004e80       ??_C@_1M@IHBJJGG@?$AAn?$AAl?$AA?9?$AAN?$AAL?$AA?$AA@ 0000000180060e80     LIBCMT:winapinls.obj
 0002:00004e90       ??_C@_1M@EANAGDL@?$AAn?$AAb?$AA?9?$AAN?$AAO?$AA?$AA@ 0000000180060e90     LIBCMT:winapinls.obj
 0002:00004ea0       ??_C@_1M@NEIEMEGP@?$AAp?$AAl?$AA?9?$AAP?$AAL?$AA?$AA@ 0000000180060ea0     LIBCMT:winapinls.obj
 0002:00004eb0       ??_C@_1M@BOCFIGEP@?$AAp?$AAt?$AA?9?$AAB?$AAR?$AA?$AA@ 0000000180060eb0     LIBCMT:winapinls.obj
 0002:00004ec0       ??_C@_1M@IMPFOPBG@?$AAr?$AAo?$AA?9?$AAR?$AAO?$AA?$AA@ 0000000180060ec0     LIBCMT:winapinls.obj
 0002:00004ed0       ??_C@_1M@IDNNEJMM@?$AAr?$AAu?$AA?9?$AAR?$AAU?$AA?$AA@ 0000000180060ed0     LIBCMT:winapinls.obj
 0002:00004ee0       ??_C@_1M@LILEEOGM@?$AAh?$AAr?$AA?9?$AAH?$AAR?$AA?$AA@ 0000000180060ee0     LIBCMT:winapinls.obj
 0002:00004ef0       ??_C@_1M@FKIFEHPB@?$AAs?$AAk?$AA?9?$AAS?$AAK?$AA?$AA@ 0000000180060ef0     LIBCMT:winapinls.obj
 0002:00004f00       ??_C@_1M@LJMAMNPJ@?$AAs?$AAq?$AA?9?$AAA?$AAL?$AA?$AA@ 0000000180060f00     LIBCMT:winapinls.obj
 0002:00004f10       ??_C@_1M@GIAKDKJK@?$AAs?$AAv?$AA?9?$AAS?$AAE?$AA?$AA@ 0000000180060f10     LIBCMT:winapinls.obj
 0002:00004f20       ??_C@_1M@MKJKIKCL@?$AAt?$AAh?$AA?9?$AAT?$AAH?$AA?$AA@ 0000000180060f20     LIBCMT:winapinls.obj
 0002:00004f30       ??_C@_1M@MFLCCMPB@?$AAt?$AAr?$AA?9?$AAT?$AAR?$AA?$AA@ 0000000180060f30     LIBCMT:winapinls.obj
 0002:00004f40       ??_C@_1M@OIJHDKJN@?$AAu?$AAr?$AA?9?$AAP?$AAK?$AA?$AA@ 0000000180060f40     LIBCMT:winapinls.obj
 0002:00004f50       ??_C@_1M@LHIPCIEK@?$AAi?$AAd?$AA?9?$AAI?$AAD?$AA?$AA@ 0000000180060f50     LIBCMT:winapinls.obj
 0002:00004f60       ??_C@_1M@MFMOBGI@?$AAu?$AAk?$AA?9?$AAU?$AAA?$AA?$AA@ 0000000180060f60     LIBCMT:winapinls.obj
 0002:00004f70       ??_C@_1M@OBGLJIPL@?$AAb?$AAe?$AA?9?$AAB?$AAY?$AA?$AA@ 0000000180060f70     LIBCMT:winapinls.obj
 0002:00004f80       ??_C@_1M@BCFAJEAD@?$AAs?$AAl?$AA?9?$AAS?$AAI?$AA?$AA@ 0000000180060f80     LIBCMT:winapinls.obj
 0002:00004f90       ??_C@_1M@FKFFEDDN@?$AAe?$AAt?$AA?9?$AAE?$AAE?$AA?$AA@ 0000000180060f90     LIBCMT:winapinls.obj
 0002:00004fa0       ??_C@_1M@KGKKAACI@?$AAl?$AAv?$AA?9?$AAL?$AAV?$AA?$AA@ 0000000180060fa0     LIBCMT:winapinls.obj
 0002:00004fb0       ??_C@_1M@IFGBIJO@?$AAl?$AAt?$AA?9?$AAL?$AAT?$AA?$AA@ 0000000180060fb0     LIBCMT:winapinls.obj
 0002:00004fc0       ??_C@_1M@FGEAHEDM@?$AAf?$AAa?$AA?9?$AAI?$AAR?$AA?$AA@ 0000000180060fc0     LIBCMT:winapinls.obj
 0002:00004fd0       ??_C@_1M@KBMAIBFN@?$AAv?$AAi?$AA?9?$AAV?$AAN?$AA?$AA@ 0000000180060fd0     LIBCMT:winapinls.obj
 0002:00004fe0       ??_C@_1M@GPCBKDJK@?$AAh?$AAy?$AA?9?$AAA?$AAM?$AA?$AA@ 0000000180060fe0     LIBCMT:winapinls.obj
 0002:00004ff0       ??_C@_1BG@BECMDDJB@?$AAa?$AAz?$AA?9?$AAA?$AAZ?$AA?9?$AAL?$AAa?$AAt?$AAn?$AA?$AA@ 0000000180060ff0     LIBCMT:winapinls.obj
 0002:00005008       ??_C@_1M@MAOFCAEA@?$AAe?$AAu?$AA?9?$AAE?$AAS?$AA?$AA@ 0000000180061008     LIBCMT:winapinls.obj
 0002:00005018       ??_C@_1M@IGHABKPI@?$AAm?$AAk?$AA?9?$AAM?$AAK?$AA?$AA@ 0000000180061018     LIBCMT:winapinls.obj
 0002:00005028       ??_C@_1M@IAIGNEJG@?$AAt?$AAn?$AA?9?$AAZ?$AAA?$AA?$AA@ 0000000180061028     LIBCMT:winapinls.obj
 0002:00005038       ??_C@_1M@IIJCOJFA@?$AAx?$AAh?$AA?9?$AAZ?$AAA?$AA?$AA@ 0000000180061038     LIBCMT:winapinls.obj
 0002:00005048       ??_C@_1M@LGPJHNJH@?$AAz?$AAu?$AA?9?$AAZ?$AAA?$AA?$AA@ 0000000180061048     LIBCMT:winapinls.obj
 0002:00005058       ??_C@_1M@HOKAOIO@?$AAa?$AAf?$AA?9?$AAZ?$AAA?$AA?$AA@ 0000000180061058     LIBCMT:winapinls.obj
 0002:00005068       ??_C@_1M@DPCLHLIE@?$AAk?$AAa?$AA?9?$AAG?$AAE?$AA?$AA@ 0000000180061068     LIBCMT:winapinls.obj
 0002:00005078       ??_C@_1M@BLKMHJBI@?$AAf?$AAo?$AA?9?$AAF?$AAO?$AA?$AA@ 0000000180061078     LIBCMT:winapinls.obj
 0002:00005088       ??_C@_1M@LGGJAPPB@?$AAh?$AAi?$AA?9?$AAI?$AAN?$AA?$AA@ 0000000180061088     LIBCMT:winapinls.obj
 0002:00005098       ??_C@_1M@FIKPIHFE@?$AAm?$AAt?$AA?9?$AAM?$AAT?$AA?$AA@ 0000000180061098     LIBCMT:winapinls.obj
 0002:000050a8       ??_C@_1M@HEGGPBFA@?$AAs?$AAe?$AA?9?$AAN?$AAO?$AA?$AA@ 00000001800610a8     LIBCMT:winapinls.obj
 0002:000050b8       ??_C@_1M@EIBJEEPA@?$AAm?$AAs?$AA?9?$AAM?$AAY?$AA?$AA@ 00000001800610b8     LIBCMT:winapinls.obj
 0002:000050c8       ??_C@_1M@FHLBGMPP@?$AAk?$AAk?$AA?9?$AAK?$AAZ?$AA?$AA@ 00000001800610c8     LIBCMT:winapinls.obj
 0002:000050d8       ??_C@_1M@NGJJLCGI@?$AAk?$AAy?$AA?9?$AAK?$AAG?$AA?$AA@ 00000001800610d8     LIBCMT:winapinls.obj
 0002:000050e8       ??_C@_1M@GIENNBFC@?$AAs?$AAw?$AA?9?$AAK?$AAE?$AA?$AA@ 00000001800610e8     LIBCMT:winapinls.obj
 0002:000050f8       ??_C@_1BG@NDGMJIMJ@?$AAu?$AAz?$AA?9?$AAU?$AAZ?$AA?9?$AAL?$AAa?$AAt?$AAn?$AA?$AA@ 00000001800610f8     LIBCMT:winapinls.obj
 0002:00005110       ??_C@_1M@IDCCIHBC@?$AAt?$AAt?$AA?9?$AAR?$AAU?$AA?$AA@ 0000000180061110     LIBCMT:winapinls.obj
 0002:00005120       ??_C@_1M@LOICPMOJ@?$AAb?$AAn?$AA?9?$AAI?$AAN?$AA?$AA@ 0000000180061120     LIBCMT:winapinls.obj
 0002:00005130       ??_C@_1M@KPKKNEAH@?$AAp?$AAa?$AA?9?$AAI?$AAN?$AA?$AA@ 0000000180061130     LIBCMT:winapinls.obj
 0002:00005140       ??_C@_1M@PJGPPBOG@?$AAg?$AAu?$AA?9?$AAI?$AAN?$AA?$AA@ 0000000180061140     LIBCMT:winapinls.obj
 0002:00005150       ??_C@_1M@KMKMOPHI@?$AAt?$AAa?$AA?9?$AAI?$AAN?$AA?$AA@ 0000000180061150     LIBCMT:winapinls.obj
 0002:00005160       ??_C@_1M@KFEHEPAC@?$AAt?$AAe?$AA?9?$AAI?$AAN?$AA?$AA@ 0000000180061160     LIBCMT:winapinls.obj
 0002:00005170       ??_C@_1M@CDCLMGHI@?$AAk?$AAn?$AA?9?$AAI?$AAN?$AA?$AA@ 0000000180061170     LIBCMT:winapinls.obj
 0002:00005180       ??_C@_1M@MIODLDKF@?$AAm?$AAl?$AA?9?$AAI?$AAN?$AA?$AA@ 0000000180061180     LIBCMT:winapinls.obj
 0002:00005190       ??_C@_1M@PBIEACPO@?$AAm?$AAr?$AA?9?$AAI?$AAN?$AA?$AA@ 0000000180061190     LIBCMT:winapinls.obj
 0002:000051a0       ??_C@_1M@NIDEAGPH@?$AAs?$AAa?$AA?9?$AAI?$AAN?$AA?$AA@ 00000001800611a0     LIBCMT:winapinls.obj
 0002:000051b0       ??_C@_1M@FHIHCBIO@?$AAm?$AAn?$AA?9?$AAM?$AAN?$AA?$AA@ 00000001800611b0     LIBCMT:winapinls.obj
 0002:000051c0       ??_C@_1M@JAIJPENP@?$AAc?$AAy?$AA?9?$AAG?$AAB?$AA?$AA@ 00000001800611c0     LIBCMT:winapinls.obj
 0002:000051d0       ??_C@_1M@PHGFBEPN@?$AAg?$AAl?$AA?9?$AAE?$AAS?$AA?$AA@ 00000001800611d0     LIBCMT:winapinls.obj
 0002:000051e0       ??_C@_1O@KPIPDNCP@?$AAk?$AAo?$AAk?$AA?9?$AAI?$AAN?$AA?$AA@ 00000001800611e0     LIBCMT:winapinls.obj
 0002:000051f0       ??_C@_1O@KNHJLDJA@?$AAs?$AAy?$AAr?$AA?9?$AAS?$AAY?$AA?$AA@ 00000001800611f0     LIBCMT:winapinls.obj
 0002:00005200       ??_C@_1O@MKEKBLAH@?$AAd?$AAi?$AAv?$AA?9?$AAM?$AAV?$AA?$AA@ 0000000180061200     LIBCMT:winapinls.obj
 0002:00005210       ??_C@_1O@OHDCKDDF@?$AAq?$AAu?$AAz?$AA?9?$AAB?$AAO?$AA?$AA@ 0000000180061210     LIBCMT:winapinls.obj
 0002:00005220       ??_C@_1M@LEPJNLFD@?$AAn?$AAs?$AA?9?$AAZ?$AAA?$AA?$AA@ 0000000180061220     LIBCMT:winapinls.obj
 0002:00005230       ??_C@_1M@OMLEIIJB@?$AAm?$AAi?$AA?9?$AAN?$AAZ?$AA?$AA@ 0000000180061230     LIBCMT:winapinls.obj
 0002:00005240       ??_C@_1M@PMPEAILG@?$AAa?$AAr?$AA?9?$AAI?$AAQ?$AA?$AA@ 0000000180061240     LIBCMT:winapinls.obj
 0002:00005250       ??_C@_1M@CNKPNOEE@?$AAd?$AAe?$AA?9?$AAC?$AAH?$AA?$AA@ 0000000180061250     LIBCMT:winapinls.obj
 0002:00005260       ??_C@_1M@LKMGMLKO@?$AAe?$AAn?$AA?9?$AAG?$AAB?$AA?$AA@ 0000000180061260     LIBCMT:winapinls.obj
 0002:00005270       ??_C@_1M@PGKJFFGL@?$AAe?$AAs?$AA?9?$AAM?$AAX?$AA?$AA@ 0000000180061270     LIBCMT:winapinls.obj
 0002:00005280       ??_C@_1M@DNNANBDC@?$AAf?$AAr?$AA?9?$AAB?$AAE?$AA?$AA@ 0000000180061280     LIBCMT:winapinls.obj
 0002:00005290       ??_C@_1M@HLGMDFHM@?$AAi?$AAt?$AA?9?$AAC?$AAH?$AA?$AA@ 0000000180061290     LIBCMT:winapinls.obj
 0002:000052a0       ??_C@_1M@CLLBGJH@?$AAn?$AAl?$AA?9?$AAB?$AAE?$AA?$AA@ 00000001800612a0     LIBCMT:winapinls.obj
 0002:000052b0       ??_C@_1M@BODBOGLF@?$AAn?$AAn?$AA?9?$AAN?$AAO?$AA?$AA@ 00000001800612b0     LIBCMT:winapinls.obj
 0002:000052c0       ??_C@_1M@HFFAHKAD@?$AAp?$AAt?$AA?9?$AAP?$AAT?$AA?$AA@ 00000001800612c0     LIBCMT:winapinls.obj
 0002:000052d0       ??_C@_1BG@LNOAKHIE@?$AAs?$AAr?$AA?9?$AAS?$AAP?$AA?9?$AAL?$AAa?$AAt?$AAn?$AA?$AA@ 00000001800612d0     LIBCMT:winapinls.obj
 0002:000052e8       ??_C@_1M@HBMHBGAK@?$AAs?$AAv?$AA?9?$AAF?$AAI?$AA?$AA@ 00000001800612e8     LIBCMT:winapinls.obj
 0002:000052f8       ??_C@_1BG@DGCJGJBE@?$AAa?$AAz?$AA?9?$AAA?$AAZ?$AA?9?$AAC?$AAy?$AAr?$AAl?$AA?$AA@ 00000001800612f8     LIBCMT:winapinls.obj
 0002:00005310       ??_C@_1M@KEJDAAHB@?$AAs?$AAe?$AA?9?$AAS?$AAE?$AA?$AA@ 0000000180061310     LIBCMT:winapinls.obj
 0002:00005320       ??_C@_1M@HEIBJJAD@?$AAm?$AAs?$AA?9?$AAB?$AAN?$AA?$AA@ 0000000180061320     LIBCMT:winapinls.obj
 0002:00005330       ??_C@_1BG@PBGJMCEM@?$AAu?$AAz?$AA?9?$AAU?$AAZ?$AA?9?$AAC?$AAy?$AAr?$AAl?$AA?$AA@ 0000000180061330     LIBCMT:winapinls.obj
 0002:00005348       ??_C@_1O@LAOBCMDF@?$AAq?$AAu?$AAz?$AA?9?$AAE?$AAC?$AA?$AA@ 0000000180061348     LIBCMT:winapinls.obj
 0002:00005358       ??_C@_1M@POEEMAIO@?$AAa?$AAr?$AA?9?$AAE?$AAG?$AA?$AA@ 0000000180061358     LIBCMT:winapinls.obj
 0002:00005368       ??_C@_1M@EFAKDEDL@?$AAz?$AAh?$AA?9?$AAH?$AAK?$AA?$AA@ 0000000180061368     LIBCMT:winapinls.obj
 0002:00005378       ??_C@_1M@HKKIJHGI@?$AAd?$AAe?$AA?9?$AAA?$AAT?$AA?$AA@ 0000000180061378     LIBCMT:winapinls.obj
 0002:00005388       ??_C@_1M@KBFBEHJF@?$AAe?$AAn?$AA?9?$AAA?$AAU?$AA?$AA@ 0000000180061388     LIBCMT:winapinls.obj
 0002:00005398       ??_C@_1M@MNPLFAAH@?$AAe?$AAs?$AA?9?$AAE?$AAS?$AA?$AA@ 0000000180061398     LIBCMT:winapinls.obj
 0002:000053a8       ??_C@_1M@HJOOJFMA@?$AAf?$AAr?$AA?9?$AAC?$AAA?$AA?$AA@ 00000001800613a8     LIBCMT:winapinls.obj
 0002:000053b8       ??_C@_1BG@JPOFPNAB@?$AAs?$AAr?$AA?9?$AAS?$AAP?$AA?9?$AAC?$AAy?$AAr?$AAl?$AA?$AA@ 00000001800613b8     LIBCMT:winapinls.obj
 0002:000053d0       ??_C@_1M@LNFOCMOB@?$AAs?$AAe?$AA?9?$AAF?$AAI?$AA?$AA@ 00000001800613d0     LIBCMT:winapinls.obj
 0002:000053e0       ??_C@_1O@MGJBOAMB@?$AAq?$AAu?$AAz?$AA?9?$AAP?$AAE?$AA?$AA@ 00000001800613e0     LIBCMT:winapinls.obj
 0002:000053f0       ??_C@_1M@GJINLBOK@?$AAa?$AAr?$AA?9?$AAL?$AAY?$AA?$AA@ 00000001800613f0     LIBCMT:winapinls.obj
 0002:00005400       ??_C@_1M@GGMNHJNL@?$AAz?$AAh?$AA?9?$AAS?$AAG?$AA?$AA@ 0000000180061400     LIBCMT:winapinls.obj
 0002:00005410       ??_C@_1M@HOIKODND@?$AAd?$AAe?$AA?9?$AAL?$AAU?$AA?$AA@ 0000000180061410     LIBCMT:winapinls.obj
 0002:00005420       ??_C@_1M@DDOCCGFG@?$AAe?$AAn?$AA?9?$AAC?$AAA?$AA?$AA@ 0000000180061420     LIBCMT:winapinls.obj
 0002:00005430       ??_C@_1M@BNOEMJLF@?$AAe?$AAs?$AA?9?$AAG?$AAT?$AA?$AA@ 0000000180061430     LIBCMT:winapinls.obj
 0002:00005440       ??_C@_1M@EOGNKEK@?$AAf?$AAr?$AA?9?$AAC?$AAH?$AA?$AA@ 0000000180061440     LIBCMT:winapinls.obj
 0002:00005450       ??_C@_1M@FLIDJFHL@?$AAh?$AAr?$AA?9?$AAB?$AAA?$AA?$AA@ 0000000180061450     LIBCMT:winapinls.obj
 0002:00005460       ??_C@_1O@FMCELNAJ@?$AAs?$AAm?$AAj?$AA?9?$AAN?$AAO?$AA?$AA@ 0000000180061460     LIBCMT:winapinls.obj
 0002:00005470       ??_C@_1M@JHGLJMGJ@?$AAa?$AAr?$AA?9?$AAD?$AAZ?$AA?$AA@ 0000000180061470     LIBCMT:winapinls.obj
 0002:00005480       ??_C@_1M@JKKFDCNP@?$AAz?$AAh?$AA?9?$AAM?$AAO?$AA?$AA@ 0000000180061480     LIBCMT:winapinls.obj
 0002:00005490       ??_C@_1M@GEEFALPE@?$AAd?$AAe?$AA?9?$AAL?$AAI?$AA?$AA@ 0000000180061490     LIBCMT:winapinls.obj
 0002:000054a0       ??_C@_1M@IGEOFBG@?$AAe?$AAn?$AA?9?$AAN?$AAZ?$AA?$AA@ 00000001800614a0     LIBCMT:winapinls.obj
 0002:000054b0       ??_C@_1M@KDBONEHP@?$AAe?$AAs?$AA?9?$AAC?$AAR?$AA?$AA@ 00000001800614b0     LIBCMT:winapinls.obj
 0002:000054c0       ??_C@_1M@FHMDOHNN@?$AAf?$AAr?$AA?9?$AAL?$AAU?$AA?$AA@ 00000001800614c0     LIBCMT:winapinls.obj
 0002:000054d0       ??_C@_1BG@NFKKMAFG@?$AAb?$AAs?$AA?9?$AAB?$AAA?$AA?9?$AAL?$AAa?$AAt?$AAn?$AA?$AA@ 00000001800614d0     LIBCMT:winapinls.obj
 0002:000054e8       ??_C@_1O@IMNBEMCI@?$AAs?$AAm?$AAj?$AA?9?$AAS?$AAE?$AA?$AA@ 00000001800614e8     LIBCMT:winapinls.obj
 0002:000054f8       ??_C@_1M@DHHMBNDP@?$AAa?$AAr?$AA?9?$AAM?$AAA?$AA?$AA@ 00000001800614f8     LIBCMT:winapinls.obj
 0002:00005508       ??_C@_1M@BNBLJCGH@?$AAe?$AAn?$AA?9?$AAI?$AAE?$AA?$AA@ 0000000180061508     LIBCMT:winapinls.obj
 0002:00005518       ??_C@_1M@GEPAFMDL@?$AAe?$AAs?$AA?9?$AAP?$AAA?$AA?$AA@ 0000000180061518     LIBCMT:winapinls.obj
 0002:00005528       ??_C@_1M@OJONDMDL@?$AAf?$AAr?$AA?9?$AAM?$AAC?$AA?$AA@ 0000000180061528     LIBCMT:winapinls.obj
 0002:00005538       ??_C@_1BG@OBCNFJB@?$AAs?$AAr?$AA?9?$AAB?$AAA?$AA?9?$AAL?$AAa?$AAt?$AAn?$AA?$AA@ 0000000180061538     LIBCMT:winapinls.obj
 0002:00005550       ??_C@_1O@KEMEEGPO@?$AAs?$AAm?$AAa?$AA?9?$AAN?$AAO?$AA?$AA@ 0000000180061550     LIBCMT:winapinls.obj
 0002:00005560       ??_C@_1M@ELMGFODK@?$AAa?$AAr?$AA?9?$AAT?$AAN?$AA?$AA@ 0000000180061560     LIBCMT:winapinls.obj
 0002:00005570       ??_C@_1M@BHDLHFAF@?$AAe?$AAn?$AA?9?$AAZ?$AAA?$AA?$AA@ 0000000180061570     LIBCMT:winapinls.obj
 0002:00005580       ??_C@_1M@BMGIGLIF@?$AAe?$AAs?$AA?9?$AAD?$AAO?$AA?$AA@ 0000000180061580     LIBCMT:winapinls.obj
 0002:00005590       ??_C@_1BG@CMBHIPBE@?$AAs?$AAr?$AA?9?$AAB?$AAA?$AA?9?$AAC?$AAy?$AAr?$AAl?$AA?$AA@ 0000000180061590     LIBCMT:winapinls.obj
 0002:000055a8       ??_C@_1O@HEDBLHNP@?$AAs?$AAm?$AAa?$AA?9?$AAS?$AAE?$AA?$AA@ 00000001800615a8     LIBCMT:winapinls.obj
 0002:000055b8       ??_C@_1M@DAGCADIM@?$AAa?$AAr?$AA?9?$AAO?$AAM?$AA?$AA@ 00000001800615b8     LIBCMT:winapinls.obj
 0002:000055c8       ??_C@_1M@FODLMICG@?$AAe?$AAn?$AA?9?$AAJ?$AAM?$AA?$AA@ 00000001800615c8     LIBCMT:winapinls.obj
 0002:000055d8       ??_C@_1M@DNMLCIHB@?$AAe?$AAs?$AA?9?$AAV?$AAE?$AA?$AA@ 00000001800615d8     LIBCMT:winapinls.obj
 0002:000055e8       ??_C@_1O@EOKHMKJK@?$AAs?$AAm?$AAs?$AA?9?$AAF?$AAI?$AA?$AA@ 00000001800615e8     LIBCMT:winapinls.obj
 0002:000055f8       ??_C@_1M@CAFJMKOF@?$AAa?$AAr?$AA?9?$AAY?$AAE?$AA?$AA@ 00000001800615f8     LIBCMT:winapinls.obj
 0002:00005608       ??_C@_1M@CBFHIJLI@?$AAe?$AAn?$AA?9?$AAC?$AAB?$AA?$AA@ 0000000180061608     LIBCMT:winapinls.obj
 0002:00005618       ??_C@_1M@BGNFLDN@?$AAe?$AAs?$AA?9?$AAC?$AAO?$AA?$AA@ 0000000180061618     LIBCMT:winapinls.obj
 0002:00005628       ??_C@_1O@JMPHMAMC@?$AAs?$AAm?$AAn?$AA?9?$AAF?$AAI?$AA?$AA@ 0000000180061628     LIBCMT:winapinls.obj
 0002:00005638       ??_C@_1M@JLANABKE@?$AAa?$AAr?$AA?9?$AAS?$AAY?$AA?$AA@ 0000000180061638     LIBCMT:winapinls.obj
 0002:00005648       ??_C@_1M@HPKGCFGN@?$AAe?$AAn?$AA?9?$AAB?$AAZ?$AA?$AA@ 0000000180061648     LIBCMT:winapinls.obj
 0002:00005658       ??_C@_1M@OLJCMLGM@?$AAe?$AAs?$AA?9?$AAP?$AAE?$AA?$AA@ 0000000180061658     LIBCMT:winapinls.obj
 0002:00005668       ??_C@_1M@MKKGFKLE@?$AAa?$AAr?$AA?9?$AAJ?$AAO?$AA?$AA@ 0000000180061668     LIBCMT:winapinls.obj
 0002:00005678       ??_C@_1M@EKPGLDNI@?$AAe?$AAn?$AA?9?$AAT?$AAT?$AA?$AA@ 0000000180061678     LIBCMT:winapinls.obj
 0002:00005688       ??_C@_1M@OONGHFHE@?$AAe?$AAs?$AA?9?$AAA?$AAR?$AA?$AA@ 0000000180061688     LIBCMT:winapinls.obj
 0002:00005698       ??_C@_1M@OOJFGBHE@?$AAa?$AAr?$AA?9?$AAL?$AAB?$AA?$AA@ 0000000180061698     LIBCMT:winapinls.obj
 0002:000056a8       ??_C@_1M@GCEJHNEG@?$AAe?$AAn?$AA?9?$AAZ?$AAW?$AA?$AA@ 00000001800616a8     LIBCMT:winapinls.obj
 0002:000056b8       ??_C@_1M@JNOCAHJI@?$AAe?$AAs?$AA?9?$AAE?$AAC?$AA?$AA@ 00000001800616b8     LIBCMT:winapinls.obj
 0002:000056c8       ??_C@_1M@JEFHPGGB@?$AAa?$AAr?$AA?9?$AAK?$AAW?$AA?$AA@ 00000001800616c8     LIBCMT:winapinls.obj
 0002:000056d8       ??_C@_1M@MLKIBJOJ@?$AAe?$AAn?$AA?9?$AAP?$AAH?$AA?$AA@ 00000001800616d8     LIBCMT:winapinls.obj
 0002:000056e8       ??_C@_1M@BDNIPEND@?$AAe?$AAs?$AA?9?$AAC?$AAL?$AA?$AA@ 00000001800616e8     LIBCMT:winapinls.obj
 0002:000056f8       ??_C@_1M@MPNMEKBD@?$AAa?$AAr?$AA?9?$AAA?$AAE?$AA?$AA@ 00000001800616f8     LIBCMT:winapinls.obj
 0002:00005708       ??_C@_1M@KBJALCPI@?$AAe?$AAs?$AA?9?$AAU?$AAY?$AA?$AA@ 0000000180061708     LIBCMT:winapinls.obj
 0002:00005718       ??_C@_1M@LLCCOAGA@?$AAa?$AAr?$AA?9?$AAB?$AAH?$AA?$AA@ 0000000180061718     LIBCMT:winapinls.obj
 0002:00005728       ??_C@_1M@PBFNCDEL@?$AAe?$AAs?$AA?9?$AAP?$AAY?$AA?$AA@ 0000000180061728     LIBCMT:winapinls.obj
 0002:00005738       ??_C@_1M@EDGINPNP@?$AAa?$AAr?$AA?9?$AAQ?$AAA?$AA?$AA@ 0000000180061738     LIBCMT:winapinls.obj
 0002:00005748       ??_C@_1M@MKDBIIJI@?$AAe?$AAs?$AA?9?$AAB?$AAO?$AA?$AA@ 0000000180061748     LIBCMT:winapinls.obj
 0002:00005758       ??_C@_1M@CPKKEBLD@?$AAe?$AAs?$AA?9?$AAS?$AAV?$AA?$AA@ 0000000180061758     LIBCMT:winapinls.obj
 0002:00005768       ??_C@_1M@NDBGMMJL@?$AAe?$AAs?$AA?9?$AAH?$AAN?$AA?$AA@ 0000000180061768     LIBCMT:winapinls.obj
 0002:00005778       ??_C@_1M@JIJIBHDP@?$AAe?$AAs?$AA?9?$AAN?$AAI?$AA?$AA@ 0000000180061778     LIBCMT:winapinls.obj
 0002:00005788       ??_C@_1M@CGFMKEEK@?$AAe?$AAs?$AA?9?$AAP?$AAR?$AA?$AA@ 0000000180061788     LIBCMT:winapinls.obj
 0002:00005798       ??_C@_1O@ICJHKIIK@?$AAz?$AAh?$AA?9?$AAC?$AAH?$AAT?$AA?$AA@ 0000000180061798     LIBCMT:winapinls.obj
 0002:000057a8       ??_C@_15CLNEJCE@?$AAs?$AAr?$AA?$AA@ 00000001800617a8     LIBCMT:winapinls.obj
 0002:000057b0       ??_C@_1M@KAHEKEIG@?$AAa?$AAf?$AA?9?$AAz?$AAa?$AA?$AA@ 00000001800617b0     LIBCMT:winapinls.obj
 0002:000057c0       ??_C@_1M@GIECOABL@?$AAa?$AAr?$AA?9?$AAa?$AAe?$AA?$AA@ 00000001800617c0     LIBCMT:winapinls.obj
 0002:000057d0       ??_C@_1M@BMLMEKGI@?$AAa?$AAr?$AA?9?$AAb?$AAh?$AA?$AA@ 00000001800617d0     LIBCMT:winapinls.obj
 0002:000057e0       ??_C@_1M@DAPFDGGB@?$AAa?$AAr?$AA?9?$AAd?$AAz?$AA?$AA@ 00000001800617e0     LIBCMT:winapinls.obj
 0002:000057f0       ??_C@_1M@FJNKGKIG@?$AAa?$AAr?$AA?9?$AAe?$AAg?$AA?$AA@ 00000001800617f0     LIBCMT:winapinls.obj
 0002:00005800       ??_C@_1M@FLGKKCLO@?$AAa?$AAr?$AA?9?$AAi?$AAq?$AA?$AA@ 0000000180061800     LIBCMT:winapinls.obj
 0002:00005810       ??_C@_1M@GNDIPALM@?$AAa?$AAr?$AA?9?$AAj?$AAo?$AA?$AA@ 0000000180061810     LIBCMT:winapinls.obj
 0002:00005820       ??_C@_1M@DDMJFMGJ@?$AAa?$AAr?$AA?9?$AAk?$AAw?$AA?$AA@ 0000000180061820     LIBCMT:winapinls.obj
 0002:00005830       ??_C@_1M@EJALMLHM@?$AAa?$AAr?$AA?9?$AAl?$AAb?$AA?$AA@ 0000000180061830     LIBCMT:winapinls.obj
 0002:00005840       ??_C@_1M@MOBDBLOC@?$AAa?$AAr?$AA?9?$AAl?$AAy?$AA?$AA@ 0000000180061840     LIBCMT:winapinls.obj
 0002:00005850       ??_C@_1M@JAOCLHDH@?$AAa?$AAr?$AA?9?$AAm?$AAa?$AA?$AA@ 0000000180061850     LIBCMT:winapinls.obj
 0002:00005860       ??_C@_1M@JHPMKJIE@?$AAa?$AAr?$AA?9?$AAo?$AAm?$AA?$AA@ 0000000180061860     LIBCMT:winapinls.obj
 0002:00005870       ??_C@_1M@OEPGHFNH@?$AAa?$AAr?$AA?9?$AAq?$AAa?$AA?$AA@ 0000000180061870     LIBCMT:winapinls.obj
 0002:00005880       ??_C@_1M@KJDONENM@?$AAa?$AAr?$AA?9?$AAs?$AAa?$AA?$AA@ 0000000180061880     LIBCMT:winapinls.obj
 0002:00005890       ??_C@_1M@DMJDKLKM@?$AAa?$AAr?$AA?9?$AAs?$AAy?$AA?$AA@ 0000000180061890     LIBCMT:winapinls.obj
 0002:000058a0       ??_C@_1M@OMFIPEDC@?$AAa?$AAr?$AA?9?$AAt?$AAn?$AA?$AA@ 00000001800618a0     LIBCMT:winapinls.obj
 0002:000058b0       ??_C@_1M@IHMHGAON@?$AAa?$AAr?$AA?9?$AAy?$AAe?$AA?$AA@ 00000001800618b0     LIBCMT:winapinls.obj
 0002:000058c0       ??_C@_1BG@KDCPGJGB@?$AAa?$AAz?$AA?9?$AAa?$AAz?$AA?9?$AAc?$AAy?$AAr?$AAl?$AA?$AA@ 00000001800618c0     LIBCMT:winapinls.obj
 0002:000058d8       ??_C@_1BG@IBCKDDOE@?$AAa?$AAz?$AA?9?$AAa?$AAz?$AA?9?$AAl?$AAa?$AAt?$AAn?$AA?$AA@ 00000001800618d8     LIBCMT:winapinls.obj
 0002:000058f0       ??_C@_1M@EGPFDCPD@?$AAb?$AAe?$AA?9?$AAb?$AAy?$AA?$AA@ 00000001800618f0     LIBCMT:winapinls.obj
 0002:00005900       ??_C@_1M@PCMGMCGC@?$AAb?$AAg?$AA?9?$AAb?$AAg?$AA?$AA@ 0000000180061900     LIBCMT:winapinls.obj
 0002:00005910       ??_C@_1M@BJBMFGOB@?$AAb?$AAn?$AA?9?$AAi?$AAn?$AA?$AA@ 0000000180061910     LIBCMT:winapinls.obj
 0002:00005920       ??_C@_1BG@EAKMMACD@?$AAb?$AAs?$AA?9?$AAb?$AAa?$AA?9?$AAl?$AAa?$AAt?$AAn?$AA?$AA@ 0000000180061920     LIBCMT:winapinls.obj
 0002:00005938       ??_C@_1M@KGADAODK@?$AAc?$AAa?$AA?9?$AAe?$AAs?$AA?$AA@ 0000000180061938     LIBCMT:winapinls.obj
 0002:00005948       ??_C@_1M@COAJPDHI@?$AAc?$AAs?$AA?9?$AAc?$AAz?$AA?$AA@ 0000000180061948     LIBCMT:winapinls.obj
 0002:00005958       ??_C@_1M@DHBHFONH@?$AAc?$AAy?$AA?9?$AAg?$AAb?$AA?$AA@ 0000000180061958     LIBCMT:winapinls.obj
 0002:00005968       ??_C@_1M@IMGKELGA@?$AAd?$AAa?$AA?9?$AAd?$AAk?$AA?$AA@ 0000000180061968     LIBCMT:winapinls.obj
 0002:00005978       ??_C@_1M@NNDGDNGA@?$AAd?$AAe?$AA?9?$AAa?$AAt?$AA?$AA@ 0000000180061978     LIBCMT:winapinls.obj
 0002:00005988       ??_C@_1M@IKDBHEEM@?$AAd?$AAe?$AA?9?$AAc?$AAh?$AA?$AA@ 0000000180061988     LIBCMT:winapinls.obj
 0002:00005998       ??_C@_1M@GFFOJMCJ@?$AAd?$AAe?$AA?9?$AAd?$AAe?$AA?$AA@ 0000000180061998     LIBCMT:winapinls.obj
 0002:000059a8       ??_C@_1M@MDNLKBPM@?$AAd?$AAe?$AA?9?$AAl?$AAi?$AA?$AA@ 00000001800619a8     LIBCMT:winapinls.obj
 0002:000059b8       ??_C@_1M@NJBEEJNL@?$AAd?$AAe?$AA?9?$AAl?$AAu?$AA?$AA@ 00000001800619b8     LIBCMT:winapinls.obj
 0002:000059c8       ??_C@_1O@GNNELBAP@?$AAd?$AAi?$AAv?$AA?9?$AAm?$AAv?$AA?$AA@ 00000001800619c8     LIBCMT:winapinls.obj
 0002:000059d8       ??_C@_1M@EJLEOGAE@?$AAe?$AAl?$AA?9?$AAg?$AAr?$AA?$AA@ 00000001800619d8     LIBCMT:winapinls.obj
 0002:000059e8       ??_C@_1M@GMPONJN@?$AAe?$AAn?$AA?9?$AAa?$AAu?$AA?$AA@ 00000001800619e8     LIBCMT:winapinls.obj
 0002:000059f8       ??_C@_1M@NIDIIPGF@?$AAe?$AAn?$AA?9?$AAb?$AAz?$AA?$AA@ 00000001800619f8     LIBCMT:winapinls.obj
 0002:00005a08       ??_C@_1M@JEHMIMFO@?$AAe?$AAn?$AA?9?$AAc?$AAa?$AA?$AA@ 0000000180061a08     LIBCMT:winapinls.obj
 0002:00005a18       ??_C@_1M@IGMJCDLA@?$AAe?$AAn?$AA?9?$AAc?$AAb?$AA?$AA@ 0000000180061a18     LIBCMT:winapinls.obj
 0002:00005a28       ??_C@_1M@BNFIGBKG@?$AAe?$AAn?$AA?9?$AAg?$AAb?$AA?$AA@ 0000000180061a28     LIBCMT:winapinls.obj
 0002:00005a38       ??_C@_1M@LKIFDIGP@?$AAe?$AAn?$AA?9?$AAi?$AAe?$AA?$AA@ 0000000180061a38     LIBCMT:winapinls.obj
 0002:00005a48       ??_C@_1M@PJKFGCCO@?$AAe?$AAn?$AA?9?$AAj?$AAm?$AA?$AA@ 0000000180061a48     LIBCMT:winapinls.obj
 0002:00005a58       ??_C@_1M@KPPKEPBO@?$AAe?$AAn?$AA?9?$AAn?$AAz?$AA?$AA@ 0000000180061a58     LIBCMT:winapinls.obj
 0002:00005a68       ??_C@_1M@GMDGLDOB@?$AAe?$AAn?$AA?9?$AAp?$AAh?$AA?$AA@ 0000000180061a68     LIBCMT:winapinls.obj
 0002:00005a78       ??_C@_1M@ONGIBJNA@?$AAe?$AAn?$AA?9?$AAt?$AAt?$AA?$AA@ 0000000180061a78     LIBCMT:winapinls.obj
 0002:00005a88       ??_C@_1M@LLODPCMM@?$AAe?$AAn?$AA?9?$AAu?$AAs?$AA?$AA@ 0000000180061a88     LIBCMT:winapinls.obj
 0002:00005a98       ??_C@_1M@LAKFNPAN@?$AAe?$AAn?$AA?9?$AAz?$AAa?$AA?$AA@ 0000000180061a98     LIBCMT:winapinls.obj
 0002:00005aa8       ??_C@_1M@MFNHNHEO@?$AAe?$AAn?$AA?9?$AAz?$AAw?$AA?$AA@ 0000000180061aa8     LIBCMT:winapinls.obj
 0002:00005ab8       ??_C@_1M@EJEINPHM@?$AAe?$AAs?$AA?9?$AAa?$AAr?$AA?$AA@ 0000000180061ab8     LIBCMT:winapinls.obj
 0002:00005ac8       ??_C@_1M@GNKPCCJA@?$AAe?$AAs?$AA?9?$AAb?$AAo?$AA?$AA@ 0000000180061ac8     LIBCMT:winapinls.obj
 0002:00005ad8       ??_C@_1M@LEEGFONL@?$AAe?$AAs?$AA?9?$AAc?$AAl?$AA?$AA@ 0000000180061ad8     LIBCMT:winapinls.obj
 0002:00005ae8       ??_C@_1M@KGPDPBDF@?$AAe?$AAs?$AA?9?$AAc?$AAo?$AA?$AA@ 0000000180061ae8     LIBCMT:winapinls.obj
 0002:00005af8       ??_C@_1M@EIAHOHH@?$AAe?$AAs?$AA?9?$AAc?$AAr?$AA?$AA@ 0000000180061af8     LIBCMT:winapinls.obj
 0002:00005b08       ??_C@_1M@LLPGMBIN@?$AAe?$AAs?$AA?9?$AAd?$AAo?$AA?$AA@ 0000000180061b08     LIBCMT:winapinls.obj
 0002:00005b18       ??_C@_1M@DKHMKNJA@?$AAe?$AAs?$AA?9?$AAe?$AAc?$AA?$AA@ 0000000180061b18     LIBCMT:winapinls.obj
 0002:00005b28       ??_C@_1M@GKGFPKAP@?$AAe?$AAs?$AA?9?$AAe?$AAs?$AA?$AA@ 0000000180061b28     LIBCMT:winapinls.obj
 0002:00005b38       ??_C@_1M@LKHKGDLN@?$AAe?$AAs?$AA?9?$AAg?$AAt?$AA?$AA@ 0000000180061b38     LIBCMT:winapinls.obj
 0002:00005b48       ??_C@_1M@HEIIGGJD@?$AAe?$AAs?$AA?9?$AAh?$AAn?$AA?$AA@ 0000000180061b48     LIBCMT:winapinls.obj
 0002:00005b58       ??_C@_1M@FBDHPPGD@?$AAe?$AAs?$AA?9?$AAm?$AAx?$AA?$AA@ 0000000180061b58     LIBCMT:winapinls.obj
 0002:00005b68       ??_C@_1M@DPAGLNDH@?$AAe?$AAs?$AA?9?$AAn?$AAi?$AA?$AA@ 0000000180061b68     LIBCMT:winapinls.obj
 0002:00005b78       ??_C@_1M@MDGOPGDD@?$AAe?$AAs?$AA?9?$AAp?$AAa?$AA?$AA@ 0000000180061b78     LIBCMT:winapinls.obj
 0002:00005b88       ??_C@_1M@EMAMGBGE@?$AAe?$AAs?$AA?9?$AAp?$AAe?$AA?$AA@ 0000000180061b88     LIBCMT:winapinls.obj
 0002:00005b98       ??_C@_1M@IBMCAOEC@?$AAe?$AAs?$AA?9?$AAp?$AAr?$AA?$AA@ 0000000180061b98     LIBCMT:winapinls.obj
 0002:00005ba8       ??_C@_1M@FGMDIJED@?$AAe?$AAs?$AA?9?$AAp?$AAy?$AA?$AA@ 0000000180061ba8     LIBCMT:winapinls.obj
 0002:00005bb8       ??_C@_1M@IIDEOLLL@?$AAe?$AAs?$AA?9?$AAs?$AAv?$AA?$AA@ 0000000180061bb8     LIBCMT:winapinls.obj
 0002:00005bc8       ??_C@_1M@GAOBIPA@?$AAe?$AAs?$AA?9?$AAu?$AAy?$AA?$AA@ 0000000180061bc8     LIBCMT:winapinls.obj
 0002:00005bd8       ??_C@_1M@JKFFICHJ@?$AAe?$AAs?$AA?9?$AAv?$AAe?$AA?$AA@ 0000000180061bd8     LIBCMT:winapinls.obj
 0002:00005be8       ??_C@_1M@PNMLOJDF@?$AAe?$AAt?$AA?9?$AAe?$AAe?$AA?$AA@ 0000000180061be8     LIBCMT:winapinls.obj
 0002:00005bf8       ??_C@_1M@GHHLIKEI@?$AAe?$AAu?$AA?9?$AAe?$AAs?$AA?$AA@ 0000000180061bf8     LIBCMT:winapinls.obj
 0002:00005c08       ??_C@_1M@PBNONODE@?$AAf?$AAa?$AA?9?$AAi?$AAr?$AA?$AA@ 0000000180061c08     LIBCMT:winapinls.obj
 0002:00005c18       ??_C@_1M@JEEHPMIL@?$AAf?$AAi?$AA?9?$AAf?$AAi?$AA?$AA@ 0000000180061c18     LIBCMT:winapinls.obj
 0002:00005c28       ??_C@_1M@LMDCNDBA@?$AAf?$AAo?$AA?9?$AAf?$AAo?$AA?$AA@ 0000000180061c28     LIBCMT:winapinls.obj
 0002:00005c38       ??_C@_1M@JKEOHLDK@?$AAf?$AAr?$AA?9?$AAb?$AAe?$AA?$AA@ 0000000180061c38     LIBCMT:winapinls.obj
 0002:00005c48       ??_C@_1M@NOHADPMI@?$AAf?$AAr?$AA?9?$AAc?$AAa?$AA?$AA@ 0000000180061c48     LIBCMT:winapinls.obj
 0002:00005c58       ??_C@_1M@KDHIHAEC@?$AAf?$AAr?$AA?9?$AAc?$AAh?$AA?$AA@ 0000000180061c58     LIBCMT:winapinls.obj
 0002:00005c68       ??_C@_1M@MMBBFGAK@?$AAf?$AAr?$AA?9?$AAf?$AAr?$AA?$AA@ 0000000180061c68     LIBCMT:winapinls.obj
 0002:00005c78       ??_C@_1M@PAFNENNF@?$AAf?$AAr?$AA?9?$AAl?$AAu?$AA?$AA@ 0000000180061c78     LIBCMT:winapinls.obj
 0002:00005c88       ??_C@_1M@EOHDJGDD@?$AAf?$AAr?$AA?9?$AAm?$AAc?$AA?$AA@ 0000000180061c88     LIBCMT:winapinls.obj
 0002:00005c98       ??_C@_1M@FAPLLOPF@?$AAg?$AAl?$AA?9?$AAe?$AAs?$AA?$AA@ 0000000180061c98     LIBCMT:winapinls.obj
 0002:00005ca8       ??_C@_1M@FOPBFLOO@?$AAg?$AAu?$AA?9?$AAi?$AAn?$AA?$AA@ 0000000180061ca8     LIBCMT:winapinls.obj
 0002:00005cb8       ??_C@_1M@KBMCINPM@?$AAh?$AAe?$AA?9?$AAi?$AAl?$AA?$AA@ 0000000180061cb8     LIBCMT:winapinls.obj
 0002:00005cc8       ??_C@_1M@BBPHKFPJ@?$AAh?$AAi?$AA?9?$AAi?$AAn?$AA?$AA@ 0000000180061cc8     LIBCMT:winapinls.obj
 0002:00005cd8       ??_C@_1M@PMBNDPHD@?$AAh?$AAr?$AA?9?$AAb?$AAa?$AA?$AA@ 0000000180061cd8     LIBCMT:winapinls.obj
 0002:00005ce8       ??_C@_1M@BPCKOEGE@?$AAh?$AAr?$AA?9?$AAh?$AAr?$AA?$AA@ 0000000180061ce8     LIBCMT:winapinls.obj
 0002:00005cf8       ??_C@_1M@GACBMHKE@?$AAh?$AAu?$AA?9?$AAh?$AAu?$AA?$AA@ 0000000180061cf8     LIBCMT:winapinls.obj
 0002:00005d08       ??_C@_1M@MILPAJJC@?$AAh?$AAy?$AA?9?$AAa?$AAm?$AA?$AA@ 0000000180061d08     LIBCMT:winapinls.obj
 0002:00005d18       ??_C@_1M@BABBICEC@?$AAi?$AAd?$AA?9?$AAi?$AAd?$AA?$AA@ 0000000180061d18     LIBCMT:winapinls.obj
 0002:00005d28       ??_C@_1M@BIKNHHPF@?$AAi?$AAs?$AA?9?$AAi?$AAs?$AA?$AA@ 0000000180061d28     LIBCMT:winapinls.obj
 0002:00005d38       ??_C@_1M@NMPCJPHE@?$AAi?$AAt?$AA?9?$AAc?$AAh?$AA?$AA@ 0000000180061d38     LIBCMT:winapinls.obj
 0002:00005d48       ??_C@_1M@GHKGFEDF@?$AAi?$AAt?$AA?9?$AAi?$AAt?$AA?$AA@ 0000000180061d48     LIBCMT:winapinls.obj
 0002:00005d58       ??_C@_1M@NIEJCJJA@?$AAj?$AAa?$AA?9?$AAj?$AAp?$AA?$AA@ 0000000180061d58     LIBCMT:winapinls.obj
 0002:00005d68       ??_C@_1M@JILFNBIM@?$AAk?$AAa?$AA?9?$AAg?$AAe?$AA?$AA@ 0000000180061d68     LIBCMT:winapinls.obj
 0002:00005d78       ??_C@_1M@PACPMGPH@?$AAk?$AAk?$AA?9?$AAk?$AAz?$AA?$AA@ 0000000180061d78     LIBCMT:winapinls.obj
 0002:00005d88       ??_C@_1M@IELFGMHA@?$AAk?$AAn?$AA?9?$AAi?$AAn?$AA?$AA@ 0000000180061d88     LIBCMT:winapinls.obj
 0002:00005d98       ??_C@_1O@IBBJHCH@?$AAk?$AAo?$AAk?$AA?9?$AAi?$AAn?$AA?$AA@ 0000000180061d98     LIBCMT:winapinls.obj
 0002:00005da8       ??_C@_1M@DMHAEOGC@?$AAk?$AAo?$AA?9?$AAk?$AAr?$AA?$AA@ 0000000180061da8     LIBCMT:winapinls.obj
 0002:00005db8       ??_C@_1M@HBAHBIGA@?$AAk?$AAy?$AA?9?$AAk?$AAg?$AA?$AA@ 0000000180061db8     LIBCMT:winapinls.obj
 0002:00005dc8       ??_C@_1M@KPMILCJG@?$AAl?$AAt?$AA?9?$AAl?$AAt?$AA?$AA@ 0000000180061dc8     LIBCMT:winapinls.obj
 0002:00005dd8       ??_C@_1M@BDEKKCA@?$AAl?$AAv?$AA?9?$AAl?$AAv?$AA?$AA@ 0000000180061dd8     LIBCMT:winapinls.obj
 0002:00005de8       ??_C@_1M@ELCKCCJJ@?$AAm?$AAi?$AA?9?$AAn?$AAz?$AA?$AA@ 0000000180061de8     LIBCMT:winapinls.obj
 0002:00005df8       ??_C@_1M@CBOOLAPA@?$AAm?$AAk?$AA?9?$AAm?$AAk?$AA?$AA@ 0000000180061df8     LIBCMT:winapinls.obj
 0002:00005e08       ??_C@_1M@GPHNBJKN@?$AAm?$AAl?$AA?9?$AAi?$AAn?$AA?$AA@ 0000000180061e08     LIBCMT:winapinls.obj
 0002:00005e18       ??_C@_1M@PABJILIG@?$AAm?$AAn?$AA?9?$AAm?$AAn?$AA?$AA@ 0000000180061e18     LIBCMT:winapinls.obj
 0002:00005e28       ??_C@_1M@FGBKKIPG@?$AAm?$AAr?$AA?9?$AAi?$AAn?$AA?$AA@ 0000000180061e28     LIBCMT:winapinls.obj
 0002:00005e38       ??_C@_1M@NDBPDDAL@?$AAm?$AAs?$AA?9?$AAb?$AAn?$AA?$AA@ 0000000180061e38     LIBCMT:winapinls.obj
 0002:00005e48       ??_C@_1M@OPIHOOPI@?$AAm?$AAs?$AA?9?$AAm?$AAy?$AA?$AA@ 0000000180061e48     LIBCMT:winapinls.obj
 0002:00005e58       ??_C@_1M@PPDBCNFM@?$AAm?$AAt?$AA?9?$AAm?$AAt?$AA?$AA@ 0000000180061e58     LIBCMT:winapinls.obj
 0002:00005e68       ??_C@_1M@KDJDKMDD@?$AAn?$AAb?$AA?9?$AAn?$AAo?$AA?$AA@ 0000000180061e68     LIBCMT:winapinls.obj
 0002:00005e78       ??_C@_1M@KFCFLMJP@?$AAn?$AAl?$AA?9?$AAb?$AAe?$AA?$AA@ 0000000180061e78     LIBCMT:winapinls.obj
 0002:00005e88       ??_C@_1M@KPOPDDGO@?$AAn?$AAl?$AA?9?$AAn?$AAl?$AA?$AA@ 0000000180061e88     LIBCMT:winapinls.obj
 0002:00005e98       ??_C@_1M@LJKPEMLN@?$AAn?$AAn?$AA?9?$AAn?$AAo?$AA?$AA@ 0000000180061e98     LIBCMT:winapinls.obj
 0002:00005ea8       ??_C@_1M@BDGHHBFL@?$AAn?$AAs?$AA?9?$AAz?$AAa?$AA?$AA@ 0000000180061ea8     LIBCMT:winapinls.obj
 0002:00005eb8       ??_C@_1M@IDEHOAP@?$AAp?$AAa?$AA?9?$AAi?$AAn?$AA?$AA@ 0000000180061eb8     LIBCMT:winapinls.obj
 0002:00005ec8       ??_C@_1M@HDBKGOGH@?$AAp?$AAl?$AA?9?$AAp?$AAl?$AA?$AA@ 0000000180061ec8     LIBCMT:winapinls.obj
 0002:00005ed8       ??_C@_1M@LJLLCMEH@?$AAp?$AAt?$AA?9?$AAb?$AAr?$AA?$AA@ 0000000180061ed8     LIBCMT:winapinls.obj
 0002:00005ee8       ??_C@_1M@NCMONAAL@?$AAp?$AAt?$AA?9?$AAp?$AAt?$AA?$AA@ 0000000180061ee8     LIBCMT:winapinls.obj
 0002:00005ef8       ??_C@_1O@EAKMAJDN@?$AAq?$AAu?$AAz?$AA?9?$AAb?$AAo?$AA?$AA@ 0000000180061ef8     LIBCMT:winapinls.obj
 0002:00005f08       ??_C@_1O@BHHPIGDN@?$AAq?$AAu?$AAz?$AA?9?$AAe?$AAc?$AA?$AA@ 0000000180061f08     LIBCMT:winapinls.obj
 0002:00005f18       ??_C@_1O@GBAPEKMJ@?$AAq?$AAu?$AAz?$AA?9?$AAp?$AAe?$AA?$AA@ 0000000180061f18     LIBCMT:winapinls.obj
 0002:00005f28       ??_C@_1M@CLGLEFBO@?$AAr?$AAo?$AA?9?$AAr?$AAo?$AA?$AA@ 0000000180061f28     LIBCMT:winapinls.obj
 0002:00005f38       ??_C@_1M@CEEDODME@?$AAr?$AAu?$AA?9?$AAr?$AAu?$AA?$AA@ 0000000180061f38     LIBCMT:winapinls.obj
 0002:00005f48       ??_C@_1M@HPKKKMPP@?$AAs?$AAa?$AA?9?$AAi?$AAn?$AA?$AA@ 0000000180061f48     LIBCMT:winapinls.obj
 0002:00005f58       ??_C@_1M@BKMAIGOJ@?$AAs?$AAe?$AA?9?$AAf?$AAi?$AA?$AA@ 0000000180061f58     LIBCMT:winapinls.obj
 0002:00005f68       ??_C@_1M@NDPIFLFI@?$AAs?$AAe?$AA?9?$AAn?$AAo?$AA?$AA@ 0000000180061f68     LIBCMT:winapinls.obj
 0002:00005f78       ??_C@_1M@DANKKHJ@?$AAs?$AAe?$AA?9?$AAs?$AAe?$AA?$AA@ 0000000180061f78     LIBCMT:winapinls.obj
 0002:00005f88       ??_C@_1M@PNBLONPJ@?$AAs?$AAk?$AA?9?$AAs?$AAk?$AA?$AA@ 0000000180061f88     LIBCMT:winapinls.obj
 0002:00005f98       ??_C@_1M@LFMODOAL@?$AAs?$AAl?$AA?9?$AAs?$AAi?$AA?$AA@ 0000000180061f98     LIBCMT:winapinls.obj
 0002:00005fa8       ??_C@_1O@DFKOMPG@?$AAs?$AAm?$AAa?$AA?9?$AAn?$AAo?$AA?$AA@ 0000000180061fa8     LIBCMT:winapinls.obj
 0002:00005fb8       ??_C@_1O@NDKPBNNH@?$AAs?$AAm?$AAa?$AA?9?$AAs?$AAe?$AA?$AA@ 0000000180061fb8     LIBCMT:winapinls.obj
 0002:00005fc8       ??_C@_1O@PLLKBHAB@?$AAs?$AAm?$AAj?$AA?9?$AAn?$AAo?$AA?$AA@ 0000000180061fc8     LIBCMT:winapinls.obj
 0002:00005fd8       ??_C@_1O@CLEPOGCA@?$AAs?$AAm?$AAj?$AA?9?$AAs?$AAe?$AA?$AA@ 0000000180061fd8     LIBCMT:winapinls.obj
 0002:00005fe8       ??_C@_1O@DLGJGKMK@?$AAs?$AAm?$AAn?$AA?9?$AAf?$AAi?$AA?$AA@ 0000000180061fe8     LIBCMT:winapinls.obj
 0002:00005ff8       ??_C@_1O@OJDJGAJC@?$AAs?$AAm?$AAs?$AA?9?$AAf?$AAi?$AA?$AA@ 0000000180061ff8     LIBCMT:winapinls.obj
 0002:00006008       ??_C@_1M@BOFOGHPB@?$AAs?$AAq?$AA?9?$AAa?$AAl?$AA?$AA@ 0000000180062008     LIBCMT:winapinls.obj
 0002:00006018       ??_C@_1BG@LJBBIPGB@?$AAs?$AAr?$AA?9?$AAb?$AAa?$AA?9?$AAc?$AAy?$AAr?$AAl?$AA?$AA@ 0000000180062018     LIBCMT:winapinls.obj
 0002:00006030       ??_C@_1BG@JLBENFOE@?$AAs?$AAr?$AA?9?$AAb?$AAa?$AA?9?$AAl?$AAa?$AAt?$AAn?$AA?$AA@ 0000000180062030     LIBCMT:winapinls.obj
 0002:00006048       ??_C@_1BG@KODPNHE@?$AAs?$AAr?$AA?9?$AAs?$AAp?$AA?9?$AAc?$AAy?$AAr?$AAl?$AA?$AA@ 0000000180062048     LIBCMT:winapinls.obj
 0002:00006060       ??_C@_1BG@CIOGKHPB@?$AAs?$AAr?$AA?9?$AAs?$AAp?$AA?9?$AAl?$AAa?$AAt?$AAn?$AA?$AA@ 0000000180062060     LIBCMT:winapinls.obj
 0002:00006078       ??_C@_1M@NGFJLMAC@?$AAs?$AAv?$AA?9?$AAf?$AAi?$AA?$AA@ 0000000180062078     LIBCMT:winapinls.obj
 0002:00006088       ??_C@_1M@MPJEJAJC@?$AAs?$AAv?$AA?9?$AAs?$AAe?$AA?$AA@ 0000000180062088     LIBCMT:winapinls.obj
 0002:00006098       ??_C@_1M@MPNDHLFK@?$AAs?$AAw?$AA?9?$AAk?$AAe?$AA?$AA@ 0000000180062098     LIBCMT:winapinls.obj
 0002:000060a8       ??_C@_1O@KOHBJJI@?$AAs?$AAy?$AAr?$AA?9?$AAs?$AAy?$AA?$AA@ 00000001800620a8     LIBCMT:winapinls.obj
 0002:000060b8       ??_C@_1M@LDCEFHA@?$AAt?$AAa?$AA?9?$AAi?$AAn?$AA?$AA@ 00000001800620b8     LIBCMT:winapinls.obj
 0002:000060c8       ??_C@_1M@CNJOFAK@?$AAt?$AAe?$AA?9?$AAi?$AAn?$AA?$AA@ 00000001800620c8     LIBCMT:winapinls.obj
 0002:000060d8       ??_C@_1M@GNAECACD@?$AAt?$AAh?$AA?9?$AAt?$AAh?$AA?$AA@ 00000001800620d8     LIBCMT:winapinls.obj
 0002:000060e8       ??_C@_1M@CHBIHOJO@?$AAt?$AAn?$AA?9?$AAz?$AAa?$AA?$AA@ 00000001800620e8     LIBCMT:winapinls.obj
 0002:000060f8       ??_C@_1M@GCCMIGPJ@?$AAt?$AAr?$AA?9?$AAt?$AAr?$AA?$AA@ 00000001800620f8     LIBCMT:winapinls.obj
 0002:00006108       ??_C@_1M@CELMCNBK@?$AAt?$AAt?$AA?9?$AAr?$AAu?$AA?$AA@ 0000000180062108     LIBCMT:winapinls.obj
 0002:00006118       ??_C@_1M@KLMCELGA@?$AAu?$AAk?$AA?9?$AAu?$AAa?$AA?$AA@ 0000000180062118     LIBCMT:winapinls.obj
 0002:00006128       ??_C@_1M@EPAJJAJF@?$AAu?$AAr?$AA?9?$AAp?$AAk?$AA?$AA@ 0000000180062128     LIBCMT:winapinls.obj
 0002:00006138       ??_C@_1BG@GEGPMCDJ@?$AAu?$AAz?$AA?9?$AAu?$AAz?$AA?9?$AAc?$AAy?$AAr?$AAl?$AA?$AA@ 0000000180062138     LIBCMT:winapinls.obj
 0002:00006150       ??_C@_1BG@EGGKJILM@?$AAu?$AAz?$AA?9?$AAu?$AAz?$AA?9?$AAl?$AAa?$AAt?$AAn?$AA?$AA@ 0000000180062150     LIBCMT:winapinls.obj
 0002:00006168       ??_C@_1M@GFOCLFF@?$AAv?$AAi?$AA?9?$AAv?$AAn?$AA?$AA@ 0000000180062168     LIBCMT:winapinls.obj
 0002:00006178       ??_C@_1M@CPAMEDFI@?$AAx?$AAh?$AA?9?$AAz?$AAa?$AA?$AA@ 0000000180062178     LIBCMT:winapinls.obj
 0002:00006188       ??_C@_1O@EBKIFIGN@?$AAz?$AAh?$AA?9?$AAc?$AAh?$AAs?$AA?$AA@ 0000000180062188     LIBCMT:winapinls.obj
 0002:00006198       ??_C@_1O@NMHPGANE@?$AAz?$AAh?$AA?9?$AAc?$AAh?$AAt?$AA?$AA@ 0000000180062198     LIBCMT:winapinls.obj
 0002:000061a8       ??_C@_1M@LPINJOMC@?$AAz?$AAh?$AA?9?$AAc?$AAn?$AA?$AA@ 00000001800621a8     LIBCMT:winapinls.obj
 0002:000061b8       ??_C@_1M@OCJEJODD@?$AAz?$AAh?$AA?9?$AAh?$AAk?$AA?$AA@ 00000001800621b8     LIBCMT:winapinls.obj
 0002:000061c8       ??_C@_1M@DNDLJINH@?$AAz?$AAh?$AA?9?$AAm?$AAo?$AA?$AA@ 00000001800621c8     LIBCMT:winapinls.obj
 0002:000061d8       ??_C@_1M@MBFDNDND@?$AAz?$AAh?$AA?9?$AAs?$AAg?$AA?$AA@ 00000001800621d8     LIBCMT:winapinls.obj
 0002:000061e8       ??_C@_1M@IMEPLEPE@?$AAz?$AAh?$AA?9?$AAt?$AAw?$AA?$AA@ 00000001800621e8     LIBCMT:winapinls.obj
 0002:000061f8       ??_C@_1M@BBGHNHJP@?$AAz?$AAu?$AA?9?$AAz?$AAa?$AA?$AA@ 00000001800621f8     LIBCMT:winapinls.obj
 0002:00006220       ??_C@_03KHJOGHMM@exp?$AA@  0000000180062220     LIBCMT:fpexcept.obj
 0002:00006224       ??_C@_03JGHBODFD@pow?$AA@  0000000180062224     LIBCMT:fpexcept.obj
 0002:00006228       ??_C@_03MGHMBJCF@log?$AA@  0000000180062228     LIBCMT:fpexcept.obj
 0002:0000622c       ??_C@_05HGHHAHAP@log10?$AA@ 000000018006222c     LIBCMT:fpexcept.obj
 0002:00006234       ??_C@_04COOMCNPB@sinh?$AA@ 0000000180062234     LIBCMT:fpexcept.obj
 0002:0000623c       ??_C@_04HPJJNFIM@cosh?$AA@ 000000018006223c     LIBCMT:fpexcept.obj
 0002:00006244       ??_C@_04FJHINJAO@tanh?$AA@ 0000000180062244     LIBCMT:fpexcept.obj
 0002:0000624c       ??_C@_04FIHNOPOL@asin?$AA@ 000000018006224c     LIBCMT:fpexcept.obj
 0002:00006254       ??_C@_04PDIFKINK@acos?$AA@ 0000000180062254     LIBCMT:fpexcept.obj
 0002:0000625c       ??_C@_04MLLJIGOK@atan?$AA@ 000000018006225c     LIBCMT:fpexcept.obj
 0002:00006264       ??_C@_05KNGEOGJB@atan2?$AA@ 0000000180062264     LIBCMT:fpexcept.obj
 0002:0000626c       ??_C@_04EIAKFFMI@sqrt?$AA@ 000000018006226c     LIBCMT:fpexcept.obj
 0002:00006274       ??_C@_03BLEJJJBH@sin?$AA@  0000000180062274     LIBCMT:fpexcept.obj
 0002:00006278       ??_C@_03LALBNOCG@cos?$AA@  0000000180062278     LIBCMT:fpexcept.obj
 0002:0000627c       ??_C@_03IIINPABG@tan?$AA@  000000018006227c     LIBCMT:fpexcept.obj
 0002:00006280       ??_C@_04GFPJNGEK@ceil?$AA@ 0000000180062280     LIBCMT:fpexcept.obj
 0002:00006288       ??_C@_05PBJFFIGL@floor?$AA@ 0000000180062288     LIBCMT:fpexcept.obj
 0002:00006290       ??_C@_04ODHECPBC@fabs?$AA@ 0000000180062290     LIBCMT:fpexcept.obj
 0002:00006298       ??_C@_04EHEDPDJG@modf?$AA@ 0000000180062298     LIBCMT:fpexcept.obj
 0002:000062a0       ??_C@_05CEJMAHNP@ldexp?$AA@ 00000001800622a0     LIBCMT:fpexcept.obj
 0002:000062a8       ??_C@_05KBKMEMPO@_cabs?$AA@ 00000001800622a8     LIBCMT:fpexcept.obj
 0002:000062b0       ??_C@_04KEPJIHGP@fmod?$AA@ 00000001800622b0     LIBCMT:fpexcept.obj
 0002:000062b8       ??_C@_05GKKHEGJL@frexp?$AA@ 00000001800622b8     LIBCMT:fpexcept.obj
 0002:000062c0       ??_C@_03MJLDFKDL@_y0?$AA@  00000001800622c0     LIBCMT:fpexcept.obj
 0002:000062c4       ??_C@_03NAKIGLHK@_y1?$AA@  00000001800622c4     LIBCMT:fpexcept.obj
 0002:000062c8       ??_C@_03ONILCKOB@_yn?$AA@  00000001800622c8     LIBCMT:fpexcept.obj
 0002:000062cc       ??_C@_05JGDBENOH@_logb?$AA@ 00000001800622cc     LIBCMT:fpexcept.obj
 0002:000062d8       ??_C@_0L@KDOEJCKC@_nextafter?$AA@ 00000001800622d8     LIBCMT:fpexcept.obj
 0002:000062f0       __lookuptable_s            00000001800622f0     LIBCMT:outputs.obj
 0002:00006668       ??_C@_08EHJDFFNH@__based?$CI?$AA@ 0000000180062668     LIBCMT:undname.obj
 0002:00006678       ??_C@_07KOLFKCDI@__cdecl?$AA@ 0000000180062678     LIBCMT:undname.obj
 0002:00006680       ??_C@_08GHMPAG@__pascal?$AA@ 0000000180062680     LIBCMT:undname.obj
 0002:00006690       ??_C@_09IFJBGAPI@__stdcall?$AA@ 0000000180062690     LIBCMT:undname.obj
 0002:000066a0       ??_C@_0L@NPHFGOKO@__thiscall?$AA@ 00000001800626a0     LIBCMT:undname.obj
 0002:000066b0       ??_C@_0L@JMKHOMEK@__fastcall?$AA@ 00000001800626b0     LIBCMT:undname.obj
 0002:000066c0       ??_C@_0N@BCKKPABJ@__vectorcall?$AA@ 00000001800626c0     LIBCMT:undname.obj
 0002:000066d0       ??_C@_09HIJEGCPM@__clrcall?$AA@ 00000001800626d0     LIBCMT:undname.obj
 0002:000066dc       ??_C@_06GHPCKEAG@__eabi?$AA@ 00000001800626dc     LIBCMT:undname.obj
 0002:000066e8       ??_C@_07JOMMBBKO@__ptr64?$AA@ 00000001800626e8     LIBCMT:undname.obj
 0002:000066f0       ??_C@_0L@PILCLIHE@__restrict?$AA@ 00000001800626f0     LIBCMT:undname.obj
 0002:00006700       ??_C@_0M@GFIIJFMG@__unaligned?$AA@ 0000000180062700     LIBCMT:undname.obj
 0002:00006710       ??_C@_09DHDLOLLB@restrict?$CI?$AA@ 0000000180062710     LIBCMT:undname.obj
 0002:0000671c       ??_C@_04NIHEBCM@?5new?$AA@ 000000018006271c     LIBCMT:undname.obj
 0002:00006728       ??_C@_07FPCDHGMM@?5delete?$AA@ 0000000180062728     LIBCMT:undname.obj
 0002:00006730       ??_C@_01NEMOKFLO@?$DN?$AA@ 0000000180062730     LIBCMT:undname.obj
 0002:00006734       ??_C@_02GPIOPFAK@?$DO?$DO?$AA@ 0000000180062734     LIBCMT:undname.obj
 0002:00006738       ??_C@_02FODMEDOG@?$DM?$DM?$AA@ 0000000180062738     LIBCMT:undname.obj
 0002:0000673c       ??_C@_01DCLJPIOD@?$CB?$AA@ 000000018006273c     LIBCMT:undname.obj
 0002:00006740       ??_C@_02EGOFBIJA@?$DN?$DN?$AA@ 0000000180062740     LIBCMT:undname.obj
 0002:00006744       ??_C@_02FDNJECIE@?$CB?$DN?$AA@ 0000000180062744     LIBCMT:undname.obj
 0002:00006748       ??_C@_02GPECMEKF@?$FL?$FN?$AA@ 0000000180062748     LIBCMT:undname.obj
 0002:00006750       ??_C@_08LHJFAFGD@operator?$AA@ 0000000180062750     LIBCMT:undname.obj
 0002:0000675c       ??_C@_02HBOOOICD@?9?$DO?$AA@ 000000018006275c     LIBCMT:undname.obj
 0002:00006760       ??_C@_01NBENCBCI@?$CK?$AA@ 0000000180062760     LIBCMT:undname.obj
 0002:00006764       ??_C@_02ECNGHCIF@?$CL?$CL?$AA@ 0000000180062764     LIBCMT:undname.obj
 0002:00006768       ??_C@_02BAABKJLB@?9?9?$AA@ 0000000180062768     LIBCMT:undname.obj
 0002:0000676c       ??_C@_01JOAMLHOP@?9?$AA@   000000018006276c     LIBCMT:undname.obj
 0002:00006770       ??_C@_01MIFGBAGJ@?$CL?$AA@ 0000000180062770     LIBCMT:undname.obj
 0002:00006774       ??_C@_01HNPIGOCE@?$CG?$AA@ 0000000180062774     LIBCMT:undname.obj
 0002:00006778       ??_C@_03MNHNFDLC@?9?$DO?$CK?$AA@ 0000000180062778     LIBCMT:undname.obj
 0002:0000677c       ??_C@_01KMDKNFGN@?1?$AA@   000000018006277c     LIBCMT:undname.obj
 0002:00006780       ??_C@_01FGNFDNOH@?$CF?$AA@ 0000000180062780     LIBCMT:undname.obj
 0002:00006784       ??_C@_01MNNFJEPP@?$DM?$AA@ 0000000180062784     LIBCMT:undname.obj
 0002:00006788       ??_C@_02EHCHHCKH@?$DM?$DN?$AA@ 0000000180062788     LIBCMT:undname.obj
 0002:0000678c       ??_C@_01PPODPGHN@?$DO?$AA@ 000000018006278c     LIBCMT:undname.obj
 0002:00006790       ??_C@_02EEKDKGMJ@?$DO?$DN?$AA@ 0000000180062790     LIBCMT:undname.obj
 0002:00006794       ??_C@_01IHBHIGKO@?0?$AA@   0000000180062794     LIBCMT:undname.obj
 0002:00006798       ??_C@_02HCKGKOFO@?$CI?$CJ?$AA@ 0000000180062798     LIBCMT:undname.obj
 0002:0000679c       ??_C@_01PJKLJHI@?$HO?$AA@  000000018006279c     LIBCMT:undname.obj
 0002:000067a0       ??_C@_01JKBOJNNK@?$FO?$AA@ 00000001800627a0     LIBCMT:undname.obj
 0002:000067a4       ??_C@_01DNKMNLPK@?$HM?$AA@ 00000001800627a4     LIBCMT:undname.obj
 0002:000067a8       ??_C@_02PPKAJPJL@?$CG?$CG?$AA@ 00000001800627a8     LIBCMT:undname.obj
 0002:000067ac       ??_C@_02NONPIBCD@?$HM?$HM?$AA@ 00000001800627ac     LIBCMT:undname.obj
 0002:000067b0       ??_C@_02FPIMKNGF@?$CK?$DN?$AA@ 00000001800627b0     LIBCMT:undname.obj
 0002:000067b4       ??_C@_02FOEOMHFC@?$CL?$DN?$AA@ 00000001800627b4     LIBCMT:undname.obj
 0002:000067b8       ??_C@_02FKMDLLOA@?9?$DN?$AA@ 00000001800627b8     LIBCMT:undname.obj
 0002:000067bc       ??_C@_02FJEHGPIO@?1?$DN?$AA@ 00000001800627bc     LIBCMT:undname.obj
 0002:000067c0       ??_C@_02FENAOKFI@?$CF?$DN?$AA@ 00000001800627c0     LIBCMT:undname.obj
 0002:000067c4       ??_C@_03IKFCCPFF@?$DO?$DO?$DN?$AA@ 00000001800627c4     LIBCMT:undname.obj
 0002:000067c8       ??_C@_03CDNPDDLA@?$DM?$DM?$DN?$AA@ 00000001800627c8     LIBCMT:undname.obj
 0002:000067cc       ??_C@_02FGJGFEAB@?$CG?$DN?$AA@ 00000001800627cc     LIBCMT:undname.obj
 0002:000067d0       ??_C@_02DHLNPPGH@?$HM?$DN?$AA@ 00000001800627d0     LIBCMT:undname.obj
 0002:000067d4       ??_C@_02MHEGNOJ@?$FO?$DN?$AA@ 00000001800627d4     LIBCMT:undname.obj
 0002:000067d8       ??_C@_09IFPLHPGF@?$GAvftable?8?$AA@ 00000001800627d8     LIBCMT:undname.obj
 0002:000067e8       ??_C@_09BLBHBJP@?$GAvbtable?8?$AA@ 00000001800627e8     LIBCMT:undname.obj
 0002:000067f8       ??_C@_07FEEIOKP@?$GAvcall?8?$AA@ 00000001800627f8     LIBCMT:undname.obj
 0002:00006800       ??_C@_08LLFFHHDJ@?$GAtypeof?8?$AA@ 0000000180062800     LIBCMT:undname.obj
 0002:00006810       ??_C@_0BF@KDPPACIK@?$GAlocal?5static?5guard?8?$AA@ 0000000180062810     LIBCMT:undname.obj
 0002:00006828       ??_C@_08OBABFOLI@?$GAstring?8?$AA@ 0000000180062828     LIBCMT:undname.obj
 0002:00006838       ??_C@_0BD@JDLKDPAB@?$GAvbase?5destructor?8?$AA@ 0000000180062838     LIBCMT:undname.obj
 0002:00006850       ??_C@_0BN@DEGPLNFK@?$GAvector?5deleting?5destructor?8?$AA@ 0000000180062850     LIBCMT:undname.obj
 0002:00006870       ??_C@_0BO@OBMKPJIG@?$GAdefault?5constructor?5closure?8?$AA@ 0000000180062870     LIBCMT:undname.obj
 0002:00006890       ??_C@_0BN@IMDCHIKM@?$GAscalar?5deleting?5destructor?8?$AA@ 0000000180062890     LIBCMT:undname.obj
 0002:000068b0       ??_C@_0BO@PFGOCPJJ@?$GAvector?5constructor?5iterator?8?$AA@ 00000001800628b0     LIBCMT:undname.obj
 0002:000068d0       ??_C@_0BN@LFPFMEDL@?$GAvector?5destructor?5iterator?8?$AA@ 00000001800628d0     LIBCMT:undname.obj
 0002:000068f0       ??_C@_0CE@IKBNEHA@?$GAvector?5vbase?5constructor?5iterat@ 00000001800628f0     LIBCMT:undname.obj
 0002:00006918       ??_C@_0BL@NILFHHPC@?$GAvirtual?5displacement?5map?8?$AA@ 0000000180062918     LIBCMT:undname.obj
 0002:00006938       ??_C@_0CB@JONCMFFK@?$GAeh?5vector?5constructor?5iterator?8@ 0000000180062938     LIBCMT:undname.obj
 0002:00006960       ??_C@_0CA@GCEOPDGL@?$GAeh?5vector?5destructor?5iterator?8?$AA@ 0000000180062960     LIBCMT:undname.obj
 0002:00006980       ??_C@_0CH@OOJPLCPH@?$GAeh?5vector?5vbase?5constructor?5ite@ 0000000180062980     LIBCMT:undname.obj
 0002:000069a8       ??_C@_0BL@LLKPOHJI@?$GAcopy?5constructor?5closure?8?$AA@ 00000001800629a8     LIBCMT:undname.obj
 0002:000069c8       ??_C@_0BA@KBCDOMBN@?$GAudt?5returning?8?$AA@ 00000001800629c8     LIBCMT:undname.obj
 0002:000069d8       ??_C@_03KLGMFNMG@?$GAEH?$AA@ 00000001800629d8     LIBCMT:undname.obj
 0002:000069dc       ??_C@_05KHLCHHI@?$GARTTI?$AA@ 00000001800629dc     LIBCMT:undname.obj
 0002:000069e8       ??_C@_0BA@KKLDJDLB@?$GAlocal?5vftable?8?$AA@ 00000001800629e8     LIBCMT:undname.obj
 0002:000069f8       ??_C@_0CE@IIHCMGGL@?$GAlocal?5vftable?5constructor?5closu@ 00000001800629f8     LIBCMT:undname.obj
 0002:00006a1c       ??_C@_06FHBGPFGH@?5new?$FL?$FN?$AA@ 0000000180062a1c     LIBCMT:undname.obj
 0002:00006a28       ??_C@_09LBNFPBCA@?5delete?$FL?$FN?$AA@ 0000000180062a28     LIBCMT:undname.obj
 0002:00006a38       ??_C@_0P@HJKNJFNN@?$GAomni?5callsig?8?$AA@ 0000000180062a38     LIBCMT:undname.obj
 0002:00006a48       ??_C@_0BL@CNOONJFP@?$GAplacement?5delete?5closure?8?$AA@ 0000000180062a48     LIBCMT:undname.obj
 0002:00006a68       ??_C@_0BN@CKNJLHMB@?$GAplacement?5delete?$FL?$FN?5closure?8?$AA@ 0000000180062a68     LIBCMT:undname.obj
 0002:00006a88       ??_C@_0CG@CFDHKGGD@?$GAmanaged?5vector?5constructor?5iter@ 0000000180062a88     LIBCMT:undname.obj
 0002:00006ab0       ??_C@_0CF@IMGKMJNO@?$GAmanaged?5vector?5destructor?5itera@ 0000000180062ab0     LIBCMT:undname.obj
 0002:00006ad8       ??_C@_0CG@HLDDJMAG@?$GAeh?5vector?5copy?5constructor?5iter@ 0000000180062ad8     LIBCMT:undname.obj
 0002:00006b00       ??_C@_0CM@FCBBDIGB@?$GAeh?5vector?5vbase?5copy?5constructo@ 0000000180062b00     LIBCMT:undname.obj
 0002:00006b30       ??_C@_0BL@CLIPGLGB@?$GAdynamic?5initializer?5for?5?8?$AA@ 0000000180062b30     LIBCMT:undname.obj
 0002:00006b50       ??_C@_0CB@PDBIFEP@?$GAdynamic?5atexit?5destructor?5for?5?8@ 0000000180062b50     LIBCMT:undname.obj
 0002:00006b78       ??_C@_0CD@CGAJBKEJ@?$GAvector?5copy?5constructor?5iterato@ 0000000180062b78     LIBCMT:undname.obj
 0002:00006ba0       ??_C@_0CJ@GJELGAMM@?$GAvector?5vbase?5copy?5constructor?5i@ 0000000180062ba0     LIBCMT:undname.obj
 0002:00006bd0       ??_C@_0CL@FGIJHLCE@?$GAmanaged?5vector?5copy?5constructor@ 0000000180062bd0     LIBCMT:undname.obj
 0002:00006c00       ??_C@_0BM@PMGGMLDN@?$GAlocal?5static?5thread?5guard?8?$AA@ 0000000180062c00     LIBCMT:undname.obj
 0002:00006c20       ??_C@_0BC@DAFEJGAK@?5Type?5Descriptor?8?$AA@ 0000000180062c20     LIBCMT:undname.obj
 0002:00006c38       ??_C@_0BM@LDKODKLH@?5Base?5Class?5Descriptor?5at?5?$CI?$AA@ 0000000180062c38     LIBCMT:undname.obj
 0002:00006c58       ??_C@_0BD@LGICGFMM@?5Base?5Class?5Array?8?$AA@ 0000000180062c58     LIBCMT:undname.obj
 0002:00006c70       ??_C@_0BN@MECKDCOJ@?5Class?5Hierarchy?5Descriptor?8?$AA@ 0000000180062c70     LIBCMT:undname.obj
 0002:00006c90       ??_C@_0BK@CFCOFLF@?5Complete?5Object?5Locator?8?$AA@ 0000000180062c90     LIBCMT:undname.obj
 0002:00006cb0       __newctype                 0000000180062cb0     LIBCMT:ctype.obj
 0002:00006fb0       _wctype                    0000000180062fb0     LIBCMT:ctype.obj
 0002:000071c0       __newclmap                 00000001800631c0     LIBCMT:ctype.obj
 0002:00007340       __newcumap                 0000000180063340     LIBCMT:ctype.obj
 0002:000074c0       __rg_language_count        00000001800634c0     LIBCMT:getqloc.obj
 0002:000074c4       __rg_country_count         00000001800634c4     LIBCMT:getqloc.obj
 0002:000074c8       ??_C@_06PGGFOGJG@1?$CDSNAN?$AA@ 00000001800634c8     LIBCMT:x10fout.obj
 0002:000074d0       ??_C@_05PHHOCPM@1?$CDIND?$AA@ 00000001800634d0     LIBCMT:x10fout.obj
 0002:000074d8       ??_C@_05DNEBIAHO@1?$CDINF?$AA@ 00000001800634d8     LIBCMT:x10fout.obj
 0002:000074e0       ??_C@_06IMKFLFPG@1?$CDQNAN?$AA@ 00000001800634e0     LIBCMT:x10fout.obj
 0002:000074e8       ??_C@_1BA@BALFACEM@?$AAC?$AAO?$AAN?$AAO?$AAU?$AAT?$AA$?$AA?$AA@ 00000001800634e8     LIBCMT:initcon.obj
 0002:000074f8       ??_C@_0BA@JFNIOLAK@string?5too?5long?$AA@ 00000001800634f8     main.obj
 0002:00007508       ??_C@_0BA@FIPBKFBN@?4?4?2src?2main?4cpp?$AA@ 0000000180063508     main.obj
 0002:00007518       ??_C@_06KICEIFMJ@pkcs11?$AA@ 0000000180063518     main.obj
 0002:00007520       ??_C@_0BI@CFPLBAOH@invalid?5string?5position?$AA@ 0000000180063520     main.obj
 0002:00007538       ??_C@_0BA@OIIBEHIA@Win32?5error?5?$CFlu?$AA@ 0000000180063538     dl.obj
 0002:00007548       ??_C@_09MNJOIBHB@CKA_CLASS?$AA@ 0000000180063548     const.obj
 0002:00007558       ??_C@_09BMJHJKDI@CKA_TOKEN?$AA@ 0000000180063558     const.obj
 0002:00007568       ??_C@_0M@FBFGEIOB@CKA_PRIVATE?$AA@ 0000000180063568     const.obj
 0002:00007578       ??_C@_09DBMIJKH@CKA_LABEL?$AA@ 0000000180063578     const.obj
 0002:00007588       ??_C@_0BA@BJPNDGCD@CKA_APPLICATION?$AA@ 0000000180063588     const.obj
 0002:00007598       ??_C@_09IMGKMHFA@CKA_VALUE?$AA@ 0000000180063598     const.obj
 0002:000075a8       ??_C@_0O@EIMGJED@CKA_OBJECT_ID?$AA@ 00000001800635a8     const.obj
 0002:000075b8       ??_C@_0BF@NIPCIKBM@CKA_CERTIFICATE_TYPE?$AA@ 00000001800635b8     const.obj
 0002:000075d0       ??_C@_0L@NOFCELAB@CKA_ISSUER?$AA@ 00000001800635d0     const.obj
 0002:000075e0       ??_C@_0BC@BOKEBFKJ@CKA_SERIAL_NUMBER?$AA@ 00000001800635e0     const.obj
 0002:000075f8       ??_C@_0O@DFAMGKNE@CKA_AC_ISSUER?$AA@ 00000001800635f8     const.obj
 0002:00007608       ??_C@_09PELPBJEM@CKA_OWNER?$AA@ 0000000180063608     const.obj
 0002:00007618       ??_C@_0P@BHBAJIJE@CKA_ATTR_TYPES?$AA@ 0000000180063618     const.obj
 0002:00007628       ??_C@_0M@KNAFECA@CKA_TRUSTED?$AA@ 0000000180063628     const.obj
 0002:00007638       ??_C@_0BJ@OGLKFOGM@CKA_CERTIFICATE_CATEGORY?$AA@ 0000000180063638     const.obj
 0002:00007658       ??_C@_0BO@FDPJNJFD@CKA_JAVA_MIDP_SECURITY_DOMAIN?$AA@ 0000000180063658     const.obj
 0002:00007678       ??_C@_07MKKDEAIP@CKA_URL?$AA@ 0000000180063678     const.obj
 0002:00007680       ??_C@_0BP@KNOCOJAA@CKA_HASH_OF_SUBJECT_PUBLIC_KEY?$AA@ 0000000180063680     const.obj
 0002:000076a0       ??_C@_0BO@IBLJGNPM@CKA_HASH_OF_ISSUER_PUBLIC_KEY?$AA@ 00000001800636a0     const.obj
 0002:000076c0       ??_C@_0BI@GMHHCKDH@CKA_NAME_HASH_ALGORITHM?$AA@ 00000001800636c0     const.obj
 0002:000076d8       ??_C@_0BA@GONONMAG@CKA_CHECK_VALUE?$AA@ 00000001800636d8     const.obj
 0002:000076e8       ??_C@_0N@COPLHMK@CKA_KEY_TYPE?$AA@ 00000001800636e8     const.obj
 0002:000076f8       ??_C@_0M@BAHLPKHO@CKA_SUBJECT?$AA@ 00000001800636f8     const.obj
 0002:00007704       ??_C@_06GPEMOHIJ@CKA_ID?$AA@ 0000000180063704     const.obj
 0002:00007710       ??_C@_0O@HLDDMML@CKA_SENSITIVE?$AA@ 0000000180063710     const.obj
 0002:00007720       ??_C@_0M@FABFPAAO@CKA_ENCRYPT?$AA@ 0000000180063720     const.obj
 0002:00007730       ??_C@_0M@JOLIKEGK@CKA_DECRYPT?$AA@ 0000000180063730     const.obj
 0002:00007740       ??_C@_08LFGOKAJG@CKA_WRAP?$AA@ 0000000180063740     const.obj
 0002:00007750       ??_C@_0L@JMAMPINJ@CKA_UNWRAP?$AA@ 0000000180063750     const.obj
 0002:00007760       ??_C@_08BHDKJFKF@CKA_SIGN?$AA@ 0000000180063760     const.obj
 0002:00007770       ??_C@_0BB@MHHCGIDB@CKA_SIGN_RECOVER?$AA@ 0000000180063770     const.obj
 0002:00007788       ??_C@_0L@FMFGOAKF@CKA_VERIFY?$AA@ 0000000180063788     const.obj
 0002:00007798       ??_C@_0BD@CJDHDBME@CKA_VERIFY_RECOVER?$AA@ 0000000180063798     const.obj
 0002:000077b0       ??_C@_0L@FGEGJDGP@CKA_DERIVE?$AA@ 00000001800637b0     const.obj
 0002:000077c0       ??_C@_0P@BOLEFJMA@CKA_START_DATE?$AA@ 00000001800637c0     const.obj
 0002:000077d0       ??_C@_0N@GDAKMNCO@CKA_END_DATE?$AA@ 00000001800637d0     const.obj
 0002:000077e0       ??_C@_0M@KEOPPPCG@CKA_MODULUS?$AA@ 00000001800637e0     const.obj
 0002:000077f0       ??_C@_0BB@DLIFBMGC@CKA_MODULUS_BITS?$AA@ 00000001800637f0     const.obj
 0002:00007808       ??_C@_0BE@CMNBNIGE@CKA_PUBLIC_EXPONENT?$AA@ 0000000180063808     const.obj
 0002:00007820       ??_C@_0BF@DIDKBPGC@CKA_PRIVATE_EXPONENT?$AA@ 0000000180063820     const.obj
 0002:00007838       ??_C@_0M@IOACCKDG@CKA_PRIME_1?$AA@ 0000000180063838     const.obj
 0002:00007848       ??_C@_0M@KFCPHJPF@CKA_PRIME_2?$AA@ 0000000180063848     const.obj
 0002:00007858       ??_C@_0P@BFFMMLGM@CKA_EXPONENT_1?$AA@ 0000000180063858     const.obj
 0002:00007868       ??_C@_0P@DOHBJIKP@CKA_EXPONENT_2?$AA@ 0000000180063868     const.obj
 0002:00007878       ??_C@_0BA@MPLAMIAN@CKA_COEFFICIENT?$AA@ 0000000180063878     const.obj
 0002:00007888       ??_C@_09FIJIMLOF@CKA_PRIME?$AA@ 0000000180063888     const.obj
 0002:00007898       ??_C@_0N@DGGEIOHF@CKA_SUBPRIME?$AA@ 0000000180063898     const.obj
 0002:000078a8       ??_C@_08HHNFNBBP@CKA_BASE?$AA@ 00000001800638a8     const.obj
 0002:000078b8       ??_C@_0P@DMODBPL@CKA_PRIME_BITS?$AA@ 00000001800638b8     const.obj
 0002:000078c8       ??_C@_0BC@DJKCHCHJ@CKA_SUBPRIME_BITS?$AA@ 00000001800638c8     const.obj
 0002:000078e0       ??_C@_0BD@GPMDAJHI@CKA_SUB_PRIME_BITS?$AA@ 00000001800638e0     const.obj
 0002:000078f8       ??_C@_0P@MCCLKOIC@CKA_VALUE_BITS?$AA@ 00000001800638f8     const.obj
 0002:00007908       ??_C@_0O@FHNLFBHO@CKA_VALUE_LEN?$AA@ 0000000180063908     const.obj
 0002:00007918       ??_C@_0BA@NDJMKFHM@CKA_EXTRACTABLE?$AA@ 0000000180063918     const.obj
 0002:00007928       ??_C@_09DJJPIHP@CKA_LOCAL?$AA@ 0000000180063928     const.obj
 0002:00007938       ??_C@_0BG@OCOJMEEN@CKA_NEVER_EXTRACTABLE?$AA@ 0000000180063938     const.obj
 0002:00007950       ??_C@_0BF@HEPAFEGJ@CKA_ALWAYS_SENSITIVE?$AA@ 0000000180063950     const.obj
 0002:00007968       ??_C@_0BG@BFKFDIBJ@CKA_KEY_GEN_MECHANISM?$AA@ 0000000180063968     const.obj
 0002:00007980       ??_C@_0P@LLJCBKBH@CKA_MODIFIABLE?$AA@ 0000000180063980     const.obj
 0002:00007990       ??_C@_0N@FBBCDNKM@CKA_COPYABLE?$AA@ 0000000180063990     const.obj
 0002:000079a0       ??_C@_0BA@DFJHENEO@CKA_DESTROYABLE?$AA@ 00000001800639a0     const.obj
 0002:000079b0       ??_C@_0BB@LHIKFHLC@CKA_ECDSA_PARAMS?$AA@ 00000001800639b0     const.obj
 0002:000079c8       ??_C@_0O@HFKMDJKC@CKA_EC_PARAMS?$AA@ 00000001800639c8     const.obj
 0002:000079d8       ??_C@_0N@JMIMLOFG@CKA_EC_POINT?$AA@ 00000001800639d8     const.obj
 0002:000079e8       ??_C@_0BD@EEKLDBEH@CKA_SECONDARY_AUTH?$AA@ 00000001800639e8     const.obj
 0002:00007a00       ??_C@_0BD@HFFEGCLO@CKA_AUTH_PIN_FLAGS?$AA@ 0000000180063a00     const.obj
 0002:00007a18       ??_C@_0BI@NKKNOGMJ@CKA_ALWAYS_AUTHENTICATE?$AA@ 0000000180063a18     const.obj
 0002:00007a30       ??_C@_0BG@GLDMFBP@CKA_WRAP_WITH_TRUSTED?$AA@ 0000000180063a30     const.obj
 0002:00007a48       ??_C@_0BC@PFNCMDAC@CKA_WRAP_TEMPLATE?$AA@ 0000000180063a48     const.obj
 0002:00007a60       ??_C@_0BE@EOLAOOJF@CKA_UNWRAP_TEMPLATE?$AA@ 0000000180063a60     const.obj
 0002:00007a78       ??_C@_0BE@KIEHPMIK@CKA_DERIVE_TEMPLATE?$AA@ 0000000180063a78     const.obj
 0002:00007a90       ??_C@_0P@IFDDFMEC@CKA_OTP_FORMAT?$AA@ 0000000180063a90     const.obj
 0002:00007aa0       ??_C@_0P@LGOPIGEL@CKA_OTP_LENGTH?$AA@ 0000000180063aa0     const.obj
 0002:00007ab0       ??_C@_0BG@CGHJCFKF@CKA_OTP_TIME_INTERVAL?$AA@ 0000000180063ab0     const.obj
 0002:00007ac8       ??_C@_0BL@DOFHBFKK@CKA_OTP_USER_FRIENDLY_MODE?$AA@ 0000000180063ac8     const.obj
 0002:00007ae8       ??_C@_0BO@CMDGKCMC@CKA_OTP_CHALLENGE_REQUIREMENT?$AA@ 0000000180063ae8     const.obj
 0002:00007b08       ??_C@_0BJ@HBKNDDAM@CKA_OTP_TIME_REQUIREMENT?$AA@ 0000000180063b08     const.obj
 0002:00007b28       ??_C@_0BM@CJHJDJAK@CKA_OTP_COUNTER_REQUIREMENT?$AA@ 0000000180063b28     const.obj
 0002:00007b48       ??_C@_0BI@CFNBLBFG@CKA_OTP_PIN_REQUIREMENT?$AA@ 0000000180063b48     const.obj
 0002:00007b60       ??_C@_0BA@HILMAGNA@CKA_OTP_COUNTER?$AA@ 0000000180063b60     const.obj
 0002:00007b70       ??_C@_0N@DOGNPFBM@CKA_OTP_TIME?$AA@ 0000000180063b70     const.obj
 0002:00007b80       ??_C@_0BI@PENNHEOI@CKA_OTP_USER_IDENTIFIER?$AA@ 0000000180063b80     const.obj
 0002:00007b98       ??_C@_0BL@CAIILMB@CKA_OTP_SERVICE_IDENTIFIER?$AA@ 0000000180063b98     const.obj
 0002:00007bb8       ??_C@_0BF@FMEPMPEE@CKA_OTP_SERVICE_LOGO?$AA@ 0000000180063bb8     const.obj
 0002:00007bd0       ??_C@_0BK@IJGJNOIN@CKA_OTP_SERVICE_LOGO_TYPE?$AA@ 0000000180063bd0     const.obj
 0002:00007bf0       ??_C@_0BF@GKJMHNLN@CKA_GOSTR3410_PARAMS?$AA@ 0000000180063bf0     const.obj
 0002:00007c08       ??_C@_0BF@HNOHGJPO@CKA_GOSTR3411_PARAMS?$AA@ 0000000180063c08     const.obj
 0002:00007c20       ??_C@_0BF@OGOCAJCC@CKA_GOST28147_PARAMS?$AA@ 0000000180063c20     const.obj
 0002:00007c38       ??_C@_0BE@CBDMMIKH@CKA_HW_FEATURE_TYPE?$AA@ 0000000180063c38     const.obj
 0002:00007c50       ??_C@_0BC@HLOIELLI@CKA_RESET_ON_INIT?$AA@ 0000000180063c50     const.obj
 0002:00007c68       ??_C@_0O@ODIDJMPO@CKA_HAS_RESET?$AA@ 0000000180063c68     const.obj
 0002:00007c78       ??_C@_0M@NKBGOHJJ@CKA_PIXEL_X?$AA@ 0000000180063c78     const.obj
 0002:00007c88       ??_C@_0M@MDANNGNI@CKA_PIXEL_Y?$AA@ 0000000180063c88     const.obj
 0002:00007c98       ??_C@_0P@NBKHPJCD@CKA_RESOLUTION?$AA@ 0000000180063c98     const.obj
 0002:00007ca8       ??_C@_0O@MMPLNHHG@CKA_CHAR_ROWS?$AA@ 0000000180063ca8     const.obj
 0002:00007cb8       ??_C@_0BB@GAMGHEJC@CKA_CHAR_COLUMNS?$AA@ 0000000180063cb8     const.obj
 0002:00007cd0       ??_C@_09HEHDEICJ@CKA_COLOR?$AA@ 0000000180063cd0     const.obj
 0002:00007ce0       ??_C@_0BD@GGGEJHBH@CKA_BITS_PER_PIXEL?$AA@ 0000000180063ce0     const.obj
 0002:00007cf8       ??_C@_0O@JMGAKAPL@CKA_CHAR_SETS?$AA@ 0000000180063cf8     const.obj
 0002:00007d08       ??_C@_0BF@FOICJAOC@CKA_ENCODING_METHODS?$AA@ 0000000180063d08     const.obj
 0002:00007d20       ??_C@_0P@LJEHMMBD@CKA_MIME_TYPES?$AA@ 0000000180063d20     const.obj
 0002:00007d30       ??_C@_0BD@KJGKFAHN@CKA_MECHANISM_TYPE?$AA@ 0000000180063d30     const.obj
 0002:00007d48       ??_C@_0BM@OAGFCKMD@CKA_REQUIRED_CMS_ATTRIBUTES?$AA@ 0000000180063d48     const.obj
 0002:00007d68       ??_C@_0BL@NEKOJPON@CKA_DEFAULT_CMS_ATTRIBUTES?$AA@ 0000000180063d68     const.obj
 0002:00007d88       ??_C@_0BN@MEAJAIHL@CKA_SUPPORTED_CMS_ATTRIBUTES?$AA@ 0000000180063d88     const.obj
 0002:00007da8       ??_C@_0BH@LBLLCPA@CKA_ALLOWED_MECHANISMS?$AA@ 0000000180063da8     const.obj
 0002:00007dc0       ??_C@_0BD@PGOEHMGB@CKA_VENDOR_DEFINED?$AA@ 0000000180063dc0     const.obj
 0002:00007dd8       ??_C@_0P@LDEOADAA@CKF_RW_SESSION?$AA@ 0000000180063dd8     const.obj
 0002:00007de8       ??_C@_0BD@FLGIELOP@CKF_SERIAL_SESSION?$AA@ 0000000180063de8     const.obj
 0002:00007dfc       ??_C@_06LNEBBADM@CKF_HW?$AA@ 0000000180063dfc     const.obj
 0002:00007e08       ??_C@_0M@LCMJOLHH@CKF_ENCRYPT?$AA@ 0000000180063e08     const.obj
 0002:00007e18       ??_C@_0M@HMGELPBD@CKF_DECRYPT?$AA@ 0000000180063e18     const.obj
 0002:00007e28       ??_C@_0L@PCCBHIGM@CKF_DIGEST?$AA@ 0000000180063e28     const.obj
 0002:00007e38       ??_C@_08NCJNKLCL@CKF_SIGN?$AA@ 0000000180063e38     const.obj
 0002:00007e48       ??_C@_0BB@FMHDGHCL@CKF_SIGN_RECOVER?$AA@ 0000000180063e48     const.obj
 0002:00007e60       ??_C@_0L@DIDHINGM@CKF_VERIFY?$AA@ 0000000180063e60     const.obj
 0002:00007e70       ??_C@_0BD@JKFENIP@CKF_VERIFY_RECOVER?$AA@ 0000000180063e70     const.obj
 0002:00007e88       ??_C@_0N@NADAPAOM@CKF_GENERATE?$AA@ 0000000180063e88     const.obj
 0002:00007e98       ??_C@_0BG@ELHJDMBC@CKF_GENERATE_KEY_PAIR?$AA@ 0000000180063e98     const.obj
 0002:00007eb0       ??_C@_08HAMJJOBI@CKF_WRAP?$AA@ 0000000180063eb0     const.obj
 0002:00007ec0       ??_C@_0L@PIGNJFBA@CKF_UNWRAP?$AA@ 0000000180063ec0     const.obj
 0002:00007ed0       ??_C@_0L@DCCHPOKG@CKF_DERIVE?$AA@ 0000000180063ed0     const.obj
 0002:00007ee0       ??_C@_07LMLJMLFB@CKF_RNG?$AA@ 0000000180063ee0     const.obj
 0002:00007ee8       ??_C@_0BE@OHHPDCDB@CKF_WRITE_PROTECTED?$AA@ 0000000180063ee8     const.obj
 0002:00007f00       ??_C@_0BD@DLJPKAJI@CKF_LOGIN_REQUIRED?$AA@ 0000000180063f00     const.obj
 0002:00007f18       ??_C@_0BJ@EOIOMEJC@CKF_USER_PIN_INITIALIZED?$AA@ 0000000180063f18     const.obj
 0002:00007f38       ??_C@_0BL@MOAHCAHD@CKF_RESTORE_KEY_NOT_NEEDED?$AA@ 0000000180063f38     const.obj
 0002:00007f58       ??_C@_0BD@BBCNMFCH@CKF_CLOCK_ON_TOKEN?$AA@ 0000000180063f58     const.obj
 0002:00007f70       ??_C@_0CC@GKJBDOMB@CKF_PROTECTED_AUTHENTICATION_PAT@ 0000000180063f70     const.obj
 0002:00007f98       ??_C@_0BL@IICNNGGJ@CKF_DUAL_CRYPTO_OPERATIONS?$AA@ 0000000180063f98     const.obj
 0002:00007fb8       ??_C@_0BG@FEGGHBFI@CKF_TOKEN_INITIALIZED?$AA@ 0000000180063fb8     const.obj
 0002:00007fd0       ??_C@_0BN@GBMOAPJL@CKF_SECONDARY_AUTHENTICATION?$AA@ 0000000180063fd0     const.obj
 0002:00007ff0       ??_C@_0BH@BNOBOCHH@CKF_USER_PIN_COUNT_LOW?$AA@ 0000000180063ff0     const.obj
 0002:00008008       ??_C@_0BH@KPBOOPAG@CKF_USER_PIN_FINAL_TRY?$AA@ 0000000180064008     const.obj
 0002:00008020       ??_C@_0BE@DGMHOPHL@CKF_USER_PIN_LOCKED?$AA@ 0000000180064020     const.obj
 0002:00008038       ??_C@_0BL@JJJPLKGB@CKF_USER_PIN_TO_BE_CHANGED?$AA@ 0000000180064038     const.obj
 0002:00008058       ??_C@_0BF@MHPCNKHA@CKF_SO_PIN_COUNT_LOW?$AA@ 0000000180064058     const.obj
 0002:00008070       ??_C@_0BF@HFANNHAB@CKF_SO_PIN_FINAL_TRY?$AA@ 0000000180064070     const.obj
 0002:00008088       ??_C@_0BC@EEEFGMMA@CKF_SO_PIN_LOCKED?$AA@ 0000000180064088     const.obj
 0002:000080a0       ??_C@_0BJ@CJNJEMKI@CKF_SO_PIN_TO_BE_CHANGED?$AA@ 00000001800640a0     const.obj
 0002:000080c0       ??_C@_0BA@ODKADHEH@CKF_ERROR_STATE?$AA@ 00000001800640c0     const.obj
 0002:000080d0       ??_C@_08MJIJIMGD@CKO_DATA?$AA@ 00000001800640d0     const.obj
 0002:000080e0       ??_C@_0BA@KIIJPOAM@CKO_CERTIFICATE?$AA@ 00000001800640e0     const.obj
 0002:000080f0       ??_C@_0P@DDMNKKJA@CKO_PUBLIC_KEY?$AA@ 00000001800640f0     const.obj
 0002:00008100       ??_C@_0BA@MACCBKAF@CKO_PRIVATE_KEY?$AA@ 0000000180064100     const.obj
 0002:00008110       ??_C@_0P@CKLICCHE@CKO_SECRET_KEY?$AA@ 0000000180064110     const.obj
 0002:00008120       ??_C@_0P@FNCCNEKH@CKO_HW_FEATURE?$AA@ 0000000180064120     const.obj
 0002:00008130       ??_C@_0BG@JHAKICJD@CKO_DOMAIN_PARAMETERS?$AA@ 0000000180064130     const.obj
 0002:00008148       ??_C@_0O@CBCIMGMG@CKO_MECHANISM?$AA@ 0000000180064148     const.obj
 0002:00008158       ??_C@_0M@DEDDCLLD@CKO_OTP_KEY?$AA@ 0000000180064158     const.obj
 0002:00008168       ??_C@_0BD@LHMAIEPH@CKO_VENDOR_DEFINED?$AA@ 0000000180064168     const.obj
 0002:00008180       ??_C@_07ECIDEPCK@CKK_RSA?$AA@ 0000000180064180     const.obj
 0002:00008188       ??_C@_07DHPBEHGJ@CKK_DSA?$AA@ 0000000180064188     const.obj
 0002:00008190       ??_C@_06IBJBCDHH@CKK_DH?$AA@ 0000000180064190     const.obj
 0002:00008198       ??_C@_09EHHNGJJE@CKK_ECDSA?$AA@ 0000000180064198     const.obj
 0002:000081a4       ??_C@_06GDKHJAIL@CKK_EC?$AA@ 00000001800641a4     const.obj
 0002:000081b0       ??_C@_0N@BCIJHHFG@CKK_X9_42_DH?$AA@ 00000001800641b0     const.obj
 0002:000081c0       ??_C@_07HHDJIIPN@CKK_KEA?$AA@ 00000001800641c0     const.obj
 0002:000081c8       ??_C@_0BD@OLNKPNLG@CKK_GENERIC_SECRET?$AA@ 00000001800641c8     const.obj
 0002:000081e0       ??_C@_07FKLHMGGP@CKK_RC2?$AA@ 00000001800641e0     const.obj
 0002:000081e8       ??_C@_07MONGBOJ@CKK_RC4?$AA@ 00000001800641e8     const.obj
 0002:000081f0       ??_C@_07FHKOOIHI@CKK_DES?$AA@ 00000001800641f0     const.obj
 0002:000081f8       ??_C@_08LDPJADJH@CKK_DES2?$AA@ 00000001800641f8     const.obj
 0002:00008208       ??_C@_08KKOCDCNG@CKK_DES3?$AA@ 0000000180064208     const.obj
 0002:00008218       ??_C@_08LNBMIEPB@CKK_CAST?$AA@ 0000000180064218     const.obj
 0002:00008228       ??_C@_09DOGMLLDO@CKK_CAST3?$AA@ 0000000180064228     const.obj
 0002:00008238       ??_C@_09GIDGBMLI@CKK_CAST5?$AA@ 0000000180064238     const.obj
 0002:00008248       ??_C@_0M@IHAPAKJL@CKK_CAST128?$AA@ 0000000180064248     const.obj
 0002:00008258       ??_C@_07BFPGFAKI@CKK_RC5?$AA@ 0000000180064258     const.obj
 0002:00008260       ??_C@_08OPGMFFLE@CKK_IDEA?$AA@ 0000000180064260     const.obj
 0002:00008270       ??_C@_0N@LOMEFFDK@CKK_SKIPJACK?$AA@ 0000000180064270     const.obj
 0002:00008280       ??_C@_09OCAFBLAI@CKK_BATON?$AA@ 0000000180064280     const.obj
 0002:00008290       ??_C@_0M@GBNPIGIF@CKK_JUNIPER?$AA@ 0000000180064290     const.obj
 0002:000082a0       ??_C@_08OEIOIKGK@CKK_CDMF?$AA@ 00000001800642a0     const.obj
 0002:000082b0       ??_C@_07GAHABIEK@CKK_AES?$AA@ 00000001800642b0     const.obj
 0002:000082b8       ??_C@_0N@EGCADKMO@CKK_BLOWFISH?$AA@ 00000001800642b8     const.obj
 0002:000082c8       ??_C@_0M@FDOKMNMN@CKK_TWOFISH?$AA@ 00000001800642c8     const.obj
 0002:000082d8       ??_C@_0M@MDPANNCO@CKK_SECURID?$AA@ 00000001800642d8     const.obj
 0002:000082e8       ??_C@_08ELDABBFC@CKK_HOTP?$AA@ 00000001800642e8     const.obj
 0002:000082f8       ??_C@_08JHPGGFID@CKK_ACTI?$AA@ 00000001800642f8     const.obj
 0002:00008308       ??_C@_0N@KOMCPMJJ@CKK_CAMELLIA?$AA@ 0000000180064308     const.obj
 0002:00008318       ??_C@_08KDHEOPFC@CKK_ARIA?$AA@ 0000000180064318     const.obj
 0002:00008328       ??_C@_0N@CCDDGEEB@CKK_MD5_HMAC?$AA@ 0000000180064328     const.obj
 0002:00008338       ??_C@_0P@JIGDLMLH@CKK_SHA_1_HMAC?$AA@ 0000000180064338     const.obj
 0002:00008348       ??_C@_0BD@PDLMGBMB@CKK_RIPEMD128_HMAC?$AA@ 0000000180064348     const.obj
 0002:00008360       ??_C@_0BD@EEBJCBFM@CKK_RIPEMD160_HMAC?$AA@ 0000000180064360     const.obj
 0002:00008378       ??_C@_0BA@CGOAOOOP@CKK_SHA256_HMAC?$AA@ 0000000180064378     const.obj
 0002:00008388       ??_C@_0BA@DNABPOFE@CKK_SHA384_HMAC?$AA@ 0000000180064388     const.obj
 0002:00008398       ??_C@_0BA@DCIEKJMP@CKK_SHA512_HMAC?$AA@ 0000000180064398     const.obj
 0002:000083a8       ??_C@_0BA@LLLKPGNP@CKK_SHA224_HMAC?$AA@ 00000001800643a8     const.obj
 0002:000083b8       ??_C@_08PHEJLH@CKK_SEED?$AA@ 00000001800643b8     const.obj
 0002:000083c8       ??_C@_0O@LAHABEIA@CKK_GOSTR3410?$AA@ 00000001800643c8     const.obj
 0002:000083d8       ??_C@_0O@KJGLCFMB@CKK_GOSTR3411?$AA@ 00000001800643d8     const.obj
 0002:000083e8       ??_C@_0O@LBAAIONF@CKK_GOST28147?$AA@ 00000001800643e8     const.obj
 0002:000083f8       ??_C@_0BD@MEMIKDDI@CKK_VENDOR_DEFINED?$AA@ 00000001800643f8     const.obj
 0002:00008410       ??_C@_0BK@OBHLJKJH@CKM_RSA_PKCS_KEY_PAIR_GEN?$AA@ 0000000180064410     const.obj
 0002:00008430       ??_C@_0N@OLBLKKAI@CKM_RSA_PKCS?$AA@ 0000000180064430     const.obj
 0002:00008440       ??_C@_0N@BPDMNCHE@CKM_RSA_9796?$AA@ 0000000180064440     const.obj
 0002:00008450       ??_C@_0O@HNECCHDE@CKM_RSA_X_509?$AA@ 0000000180064450     const.obj
 0002:00008460       ??_C@_0BB@PFDLLNOO@CKM_MD2_RSA_PKCS?$AA@ 0000000180064460     const.obj
 0002:00008478       ??_C@_0BB@NMAAKIGN@CKM_MD5_RSA_PKCS?$AA@ 0000000180064478     const.obj
 0002:00008490       ??_C@_0BC@GEDKBFJH@CKM_SHA1_RSA_PKCS?$AA@ 0000000180064490     const.obj
 0002:000084a8       ??_C@_0BH@KOJKGLEP@CKM_RIPEMD128_RSA_PKCS?$AA@ 00000001800644a8     const.obj
 0002:000084c0       ??_C@_0BH@BHFPLBHF@CKM_RIPEMD160_RSA_PKCS?$AA@ 00000001800644c0     const.obj
 0002:000084d8       ??_C@_0BC@HHGGIMIL@CKM_RSA_PKCS_OAEP?$AA@ 00000001800644d8     const.obj
 0002:000084f0       ??_C@_0BL@DKJDPLF@CKM_RSA_X9_31_KEY_PAIR_GEN?$AA@ 00000001800644f0     const.obj
 0002:00008510       ??_C@_0O@PFDEIGOP@CKM_RSA_X9_31?$AA@ 0000000180064510     const.obj
 0002:00008520       ??_C@_0BD@JFALCJIF@CKM_SHA1_RSA_X9_31?$AA@ 0000000180064520     const.obj
 0002:00008538       ??_C@_0BB@BJHMJPF@CKM_RSA_PKCS_PSS?$AA@ 0000000180064538     const.obj
 0002:00008550       ??_C@_0BG@NLCOAKHI@CKM_SHA1_RSA_PKCS_PSS?$AA@ 0000000180064550     const.obj
 0002:00008568       ??_C@_0BF@PJEPAELN@CKM_DSA_KEY_PAIR_GEN?$AA@ 0000000180064568     const.obj
 0002:00008580       ??_C@_07OBKIKEHE@CKM_DSA?$AA@ 0000000180064580     const.obj
 0002:00008588       ??_C@_0N@DFJLJJIG@CKM_DSA_SHA1?$AA@ 0000000180064588     const.obj
 0002:00008598       ??_C@_0P@GKHKEMFB@CKM_DSA_SHA224?$AA@ 0000000180064598     const.obj
 0002:000085a8       ??_C@_0P@FNADDIFG@CKM_DSA_SHA256?$AA@ 00000001800645a8     const.obj
 0002:000085b8       ??_C@_0P@NPFBKOOC@CKM_DSA_SHA384?$AA@ 00000001800645b8     const.obj
 0002:000085c8       ??_C@_0P@KDLBGNDH@CKM_DSA_SHA512?$AA@ 00000001800645c8     const.obj
 0002:000085d8       ??_C@_0BJ@MJHCJMDD@CKM_DH_PKCS_KEY_PAIR_GEN?$AA@ 00000001800645d8     const.obj
 0002:000085f8       ??_C@_0BD@EMECGPAM@CKM_DH_PKCS_DERIVE?$AA@ 00000001800645f8     const.obj
 0002:00008610       ??_C@_0BK@NBLCIMC@CKM_X9_42_DH_KEY_PAIR_GEN?$AA@ 0000000180064610     const.obj
 0002:00008630       ??_C@_0BE@DMJPFJAH@CKM_X9_42_DH_DERIVE?$AA@ 0000000180064630     const.obj
 0002:00008648       ??_C@_0BL@GBPDDHLB@CKM_X9_42_DH_HYBRID_DERIVE?$AA@ 0000000180064648     const.obj
 0002:00008668       ??_C@_0BF@IHFMHLNP@CKM_X9_42_MQV_DERIVE?$AA@ 0000000180064668     const.obj
 0002:00008680       ??_C@_0BE@BMOIGCLP@CKM_SHA256_RSA_PKCS?$AA@ 0000000180064680     const.obj
 0002:00008698       ??_C@_0BE@HLNADBF@CKM_SHA384_RSA_PKCS?$AA@ 0000000180064698     const.obj
 0002:000086b0       ??_C@_0BE@NCEECMBK@CKM_SHA512_RSA_PKCS?$AA@ 00000001800646b0     const.obj
 0002:000086c8       ??_C@_0BI@CMGKNOP@CKM_SHA256_RSA_PKCS_PSS?$AA@ 00000001800646c8     const.obj
 0002:000086e0       ??_C@_0BI@CEKMJFGE@CKM_SHA384_RSA_PKCS_PSS?$AA@ 00000001800646e0     const.obj
 0002:000086f8       ??_C@_0BI@HMBJPIEA@CKM_SHA512_RSA_PKCS_PSS?$AA@ 00000001800646f8     const.obj
 0002:00008710       ??_C@_0BE@DABMDCPB@CKM_SHA224_RSA_PKCS?$AA@ 0000000180064710     const.obj
 0002:00008728       ??_C@_0BI@FHLJOEAL@CKM_SHA224_RSA_PKCS_PSS?$AA@ 0000000180064728     const.obj
 0002:00008740       ??_C@_0BA@GLCNOBHE@CKM_RC2_KEY_GEN?$AA@ 0000000180064740     const.obj
 0002:00008750       ??_C@_0M@HNFJBDHO@CKM_RC2_ECB?$AA@ 0000000180064750     const.obj
 0002:00008760       ??_C@_0M@EAOLBHNE@CKM_RC2_CBC?$AA@ 0000000180064760     const.obj
 0002:00008770       ??_C@_0M@KCHCNOLO@CKM_RC2_MAC?$AA@ 0000000180064770     const.obj
 0002:00008780       ??_C@_0BE@FNMFPMO@CKM_RC2_MAC_GENERAL?$AA@ 0000000180064780     const.obj
 0002:00008798       ??_C@_0BA@OPAKMKMC@CKM_RC2_CBC_PAD?$AA@ 0000000180064798     const.obj
 0002:000087a8       ??_C@_0BA@GGDDJBDD@CKM_RC4_KEY_GEN?$AA@ 00000001800647a8     const.obj
 0002:000087b8       ??_C@_07NKLEICPE@CKM_RC4?$AA@ 00000001800647b8     const.obj
 0002:000087c0       ??_C@_0BA@FOJIAMGF@CKM_DES_KEY_GEN?$AA@ 00000001800647c0     const.obj
 0002:000087d0       ??_C@_0M@GHPFMCBH@CKM_DES_ECB?$AA@ 00000001800647d0     const.obj
 0002:000087e0       ??_C@_0M@FKEHMGLN@CKM_DES_CBC?$AA@ 00000001800647e0     const.obj
 0002:000087f0       ??_C@_0M@LINOAPNH@CKM_DES_MAC?$AA@ 00000001800647f0     const.obj
 0002:00008800       ??_C@_0BE@IDECLCBJ@CKM_DES_MAC_GENERAL?$AA@ 0000000180064800     const.obj
 0002:00008818       ??_C@_0BA@NKLPCHND@CKM_DES_CBC_PAD?$AA@ 0000000180064818     const.obj
 0002:00008828       ??_C@_0BB@BDCIAPFB@CKM_DES2_KEY_GEN?$AA@ 0000000180064828     const.obj
 0002:00008840       ??_C@_0BB@PMOKGEGP@CKM_DES3_KEY_GEN?$AA@ 0000000180064840     const.obj
 0002:00008858       ??_C@_0N@DADECIGL@CKM_DES3_ECB?$AA@ 0000000180064858     const.obj
 0002:00008868       ??_C@_0N@NIGCMMB@CKM_DES3_CBC?$AA@ 0000000180064868     const.obj
 0002:00008878       ??_C@_0N@OPBPOFKL@CKM_DES3_MAC?$AA@ 0000000180064878     const.obj
 0002:00008888       ??_C@_0BF@IPOKBBFF@CKM_DES3_MAC_GENERAL?$AA@ 0000000180064888     const.obj
 0002:000088a0       ??_C@_0BB@HIMNEPNJ@CKM_DES3_CBC_PAD?$AA@ 00000001800648a0     const.obj
 0002:000088b8       ??_C@_0BG@HIBJLFGI@CKM_DES3_CMAC_GENERAL?$AA@ 00000001800648b8     const.obj
 0002:000088d0       ??_C@_0O@GMNNKMPE@CKM_DES3_CMAC?$AA@ 00000001800648d0     const.obj
 0002:000088e0       ??_C@_0BB@PGNMIPEJ@CKM_CDMF_KEY_GEN?$AA@ 00000001800648e0     const.obj
 0002:000088f8       ??_C@_0N@PEPBDONN@CKM_CDMF_ECB?$AA@ 00000001800648f8     const.obj
 0002:00008908       ??_C@_0N@MJEDDKHH@CKM_CDMF_CBC?$AA@ 0000000180064908     const.obj
 0002:00008918       ??_C@_0N@CLNKPDBN@CKM_CDMF_MAC?$AA@ 0000000180064918     const.obj
 0002:00008928       ??_C@_0BF@MGMNKGJN@CKM_CDMF_MAC_GENERAL?$AA@ 0000000180064928     const.obj
 0002:00008940       ??_C@_0BB@HCPLKEPP@CKM_CDMF_CBC_PAD?$AA@ 0000000180064940     const.obj
 0002:00008958       ??_C@_0O@ICFOIGDM@CKM_DES_OFB64?$AA@ 0000000180064958     const.obj
 0002:00008968       ??_C@_0N@OJEFCEGN@CKM_DES_OFB8?$AA@ 0000000180064968     const.obj
 0002:00008978       ??_C@_0O@PFJMEGEH@CKM_DES_CFB64?$AA@ 0000000180064978     const.obj
 0002:00008988       ??_C@_0N@CMLFMJGM@CKM_DES_CFB8?$AA@ 0000000180064988     const.obj
 0002:00008998       ??_C@_07IBNLHEDO@CKM_MD2?$AA@ 0000000180064998     const.obj
 0002:000089a0       ??_C@_0N@PCBJAIM@CKM_MD2_HMAC?$AA@ 00000001800649a0     const.obj
 0002:000089b0       ??_C@_0BF@NEKNCEJE@CKM_MD2_HMAC_GENERAL?$AA@ 00000001800649b0     const.obj
 0002:000089c8       ??_C@_07MOJKOCPJ@CKM_MD5?$AA@ 00000001800649c8     const.obj
 0002:000089d0       ??_C@_0N@MKIGKOAC@CKM_MD5_HMAC?$AA@ 00000001800649d0     const.obj
 0002:000089e0       ??_C@_0BF@EPKMCLIO@CKM_MD5_HMAC_GENERAL?$AA@ 00000001800649e0     const.obj
 0002:000089f8       ??_C@_09DCLGMACE@CKM_SHA_1?$AA@ 00000001800649f8     const.obj
 0002:00008a08       ??_C@_0P@DIIGGDGK@CKM_SHA_1_HMAC?$AA@ 0000000180064a08     const.obj
 0002:00008a18       ??_C@_0BH@NDJMGNPG@CKM_SHA_1_HMAC_GENERAL?$AA@ 0000000180064a18     const.obj
 0002:00008a30       ??_C@_0O@OGMFFKCN@CKM_RIPEMD128?$AA@ 0000000180064a30     const.obj
 0002:00008a40       ??_C@_0BD@FEIINGMJ@CKM_RIPEMD128_HMAC?$AA@ 0000000180064a40     const.obj
 0002:00008a58       ??_C@_0BL@ODNLBGKC@CKM_RIPEMD128_HMAC_GENERAL?$AA@ 0000000180064a58     const.obj
 0002:00008a78       ??_C@_0O@CJBFHIPJ@CKM_RIPEMD160?$AA@ 0000000180064a78     const.obj
 0002:00008a88       ??_C@_0BD@ODCNJGFE@CKM_RIPEMD160_HMAC?$AA@ 0000000180064a88     const.obj
 0002:00008aa0       ??_C@_0BL@PIGDJGKC@CKM_RIPEMD160_HMAC_GENERAL?$AA@ 0000000180064aa0     const.obj
 0002:00008ac0       ??_C@_0L@HLGIEEGG@CKM_SHA256?$AA@ 0000000180064ac0     const.obj
 0002:00008ad0       ??_C@_0BA@NOCCKFFJ@CKM_SHA256_HMAC?$AA@ 0000000180064ad0     const.obj
 0002:00008ae0       ??_C@_0BI@FCAKPCFO@CKM_SHA256_HMAC_GENERAL?$AA@ 0000000180064ae0     const.obj
 0002:00008af8       ??_C@_0L@EMBBDAGB@CKM_SHA224?$AA@ 0000000180064af8     const.obj
 0002:00008b08       ??_C@_0BA@EDHILNGJ@CKM_SHA224_HMAC?$AA@ 0000000180064b08     const.obj
 0002:00008b18       ??_C@_0BI@HHFLLLK@CKM_SHA224_HMAC_GENERAL?$AA@ 0000000180064b18     const.obj
 0002:00008b30       ??_C@_0L@PJDKNCNC@CKM_SHA384?$AA@ 0000000180064b30     const.obj
 0002:00008b40       ??_C@_0BA@MFMDLFOC@CKM_SHA384_HMAC?$AA@ 0000000180064b40     const.obj
 0002:00008b50       ??_C@_0BI@HEGAMKNF@CKM_SHA384_HMAC_GENERAL?$AA@ 0000000180064b50     const.obj
 0002:00008b68       ??_C@_0L@IFNKBBAH@CKM_SHA512?$AA@ 0000000180064b68     const.obj
 0002:00008b78       ??_C@_0BA@MKEGOCHJ@CKM_SHA512_HMAC?$AA@ 0000000180064b78     const.obj
 0002:00008b88       ??_C@_0BI@CMNFKHPB@CKM_SHA512_HMAC_GENERAL?$AA@ 0000000180064b88     const.obj
 0002:00008ba0       ??_C@_0BE@NDDGGDLF@CKM_SECURID_KEY_GEN?$AA@ 0000000180064ba0     const.obj
 0002:00008bb8       ??_C@_0M@MOOOKNGJ@CKM_SECURID?$AA@ 0000000180064bb8     const.obj
 0002:00008bc8       ??_C@_0BB@JPIMJPAF@CKM_HOTP_KEY_GEN?$AA@ 0000000180064bc8     const.obj
 0002:00008be0       ??_C@_08CIOACEGI@CKM_HOTP?$AA@ 0000000180064be0     const.obj
 0002:00008bf0       ??_C@_08PECGFALJ@CKM_ACTI?$AA@ 0000000180064bf0     const.obj
 0002:00008c00       ??_C@_0BB@MGKIHCEO@CKM_ACTI_KEY_GEN?$AA@ 0000000180064c00     const.obj
 0002:00008c18       ??_C@_0BB@LBKEEGEB@CKM_CAST_KEY_GEN?$AA@ 0000000180064c18     const.obj
 0002:00008c30       ??_C@_0N@MFOOHELK@CKM_CAST_ECB?$AA@ 0000000180064c30     const.obj
 0002:00008c40       ??_C@_0N@PIFMHABA@CKM_CAST_CBC?$AA@ 0000000180064c40     const.obj
 0002:00008c50       ??_C@_0N@BKMFLJHK@CKM_CAST_MAC?$AA@ 0000000180064c50     const.obj
 0002:00008c60       ??_C@_0BF@JCFJAEHA@CKM_CAST_MAC_GENERAL?$AA@ 0000000180064c60     const.obj
 0002:00008c78       ??_C@_0BB@DFIDGNPH@CKM_CAST_CBC_PAD?$AA@ 0000000180064c78     const.obj
 0002:00008c90       ??_C@_0BC@MAAGLMPE@CKM_CAST3_KEY_GEN?$AA@ 0000000180064c90     const.obj
 0002:00008ca8       ??_C@_0O@JIPBOMII@CKM_CAST3_ECB?$AA@ 0000000180064ca8     const.obj
 0002:00008cb8       ??_C@_0O@KFEDOICC@CKM_CAST3_CBC?$AA@ 0000000180064cb8     const.obj
 0002:00008cc8       ??_C@_0O@EHNKCBEI@CKM_CAST3_MAC?$AA@ 0000000180064cc8     const.obj
 0002:00008cd8       ??_C@_0BG@LLJFNDBP@CKM_CAST3_MAC_GENERAL?$AA@ 0000000180064cd8     const.obj
 0002:00008cf0       ??_C@_0BC@EECBJHEC@CKM_CAST3_CBC_PAD?$AA@ 0000000180064cf0     const.obj
 0002:00008d08       ??_C@_0BC@MNBIMMLD@CKM_CAST5_KEY_GEN?$AA@ 0000000180064d08     const.obj
 0002:00008d20       ??_C@_0BE@GKPDNDPI@CKM_CAST128_KEY_GEN?$AA@ 0000000180064d20     const.obj
 0002:00008d38       ??_C@_0O@EOKIAPJF@CKM_CAST5_ECB?$AA@ 0000000180064d38     const.obj
 0002:00008d48       ??_C@_0BA@MNEKEMIC@CKM_CAST128_ECB?$AA@ 0000000180064d48     const.obj
 0002:00008d58       ??_C@_0O@HDBKALDP@CKM_CAST5_CBC?$AA@ 0000000180064d58     const.obj
 0002:00008d68       ??_C@_0BA@PAPIEICI@CKM_CAST128_CBC?$AA@ 0000000180064d68     const.obj
 0002:00008d78       ??_C@_0O@JBIDMCFF@CKM_CAST5_MAC?$AA@ 0000000180064d78     const.obj
 0002:00008d88       ??_C@_0BA@BCGBIBEC@CKM_CAST128_MAC?$AA@ 0000000180064d88     const.obj
 0002:00008d98       ??_C@_0BG@EDFHJIKJ@CKM_CAST5_MAC_GENERAL?$AA@ 0000000180064d98     const.obj
 0002:00008db0       ??_C@_0BI@ONAALPLE@CKM_CAST128_MAC_GENERAL?$AA@ 0000000180064db0     const.obj
 0002:00008dc8       ??_C@_0BC@EJDPOHAF@CKM_CAST5_CBC_PAD?$AA@ 0000000180064dc8     const.obj
 0002:00008de0       ??_C@_0BE@OONEPIEO@CKM_CAST128_CBC_PAD?$AA@ 0000000180064de0     const.obj
 0002:00008df8       ??_C@_0BA@IJPBPKAN@CKM_RC5_KEY_GEN?$AA@ 0000000180064df8     const.obj
 0002:00008e08       ??_C@_0M@GAFMCDMG@CKM_RC5_ECB?$AA@ 0000000180064e08     const.obj
 0002:00008e18       ??_C@_0M@FNOOCHGM@CKM_RC5_CBC?$AA@ 0000000180064e18     const.obj
 0002:00008e28       ??_C@_0M@LPHHOOAG@CKM_RC5_MAC?$AA@ 0000000180064e28     const.obj
 0002:00008e38       ??_C@_0BE@GABBPFAO@CKM_RC5_MAC_GENERAL?$AA@ 0000000180064e38     const.obj
 0002:00008e50       ??_C@_0BA@NNGNBLL@CKM_RC5_CBC_PAD?$AA@ 0000000180064e50     const.obj
 0002:00008e60       ??_C@_0BB@JEJMBDFD@CKM_IDEA_KEY_GEN?$AA@ 0000000180064e60     const.obj
 0002:00008e78       ??_C@_0N@EPDFMKJM@CKM_IDEA_ECB?$AA@ 0000000180064e78     const.obj
 0002:00008e88       ??_C@_0N@HCIHMODG@CKM_IDEA_CBC?$AA@ 0000000180064e88     const.obj
 0002:00008e98       ??_C@_0N@JABOAHFM@CKM_IDEA_MAC?$AA@ 0000000180064e98     const.obj
 0002:00008ea8       ??_C@_0BF@FOKFBPID@CKM_IDEA_MAC_GENERAL?$AA@ 0000000180064ea8     const.obj
 0002:00008ec0       ??_C@_0BB@BALLDIOF@CKM_IDEA_CBC_PAD?$AA@ 0000000180064ec0     const.obj
 0002:00008ed8       ??_C@_0BL@NCMPGHNL@CKM_GENERIC_SECRET_KEY_GEN?$AA@ 0000000180064ed8     const.obj
 0002:00008ef8       ??_C@_0BN@DLDCOLBJ@CKM_CONCATENATE_BASE_AND_KEY?$AA@ 0000000180064ef8     const.obj
 0002:00008f18       ??_C@_0BO@IINIHHLK@CKM_CONCATENATE_BASE_AND_DATA?$AA@ 0000000180064f18     const.obj
 0002:00008f38       ??_C@_0BO@FKDIIACA@CKM_CONCATENATE_DATA_AND_BASE?$AA@ 0000000180064f38     const.obj
 0002:00008f58       ??_C@_0BG@MNIFHBJK@CKM_XOR_BASE_AND_DATA?$AA@ 0000000180064f58     const.obj
 0002:00008f70       ??_C@_0BJ@EDILCHAN@CKM_EXTRACT_KEY_FROM_KEY?$AA@ 0000000180064f70     const.obj
 0002:00008f90       ??_C@_0BM@NHKFNFEO@CKM_SSL3_PRE_MASTER_KEY_GEN?$AA@ 0000000180064f90     const.obj
 0002:00008fb0       ??_C@_0BL@KCCJNLHH@CKM_SSL3_MASTER_KEY_DERIVE?$AA@ 0000000180064fb0     const.obj
 0002:00008fd0       ??_C@_0BM@HLLECAII@CKM_SSL3_KEY_AND_MAC_DERIVE?$AA@ 0000000180064fd0     const.obj
 0002:00008ff0       ??_C@_0BO@KNJNAFCK@CKM_SSL3_MASTER_KEY_DERIVE_DH?$AA@ 0000000180064ff0     const.obj
 0002:00009010       ??_C@_0BL@LJLIOIBN@CKM_TLS_PRE_MASTER_KEY_GEN?$AA@ 0000000180065010     const.obj
 0002:00009030       ??_C@_0BK@NEBCGPOA@CKM_TLS_MASTER_KEY_DERIVE?$AA@ 0000000180065030     const.obj
 0002:00009050       ??_C@_0BL@BFKJBNNL@CKM_TLS_KEY_AND_MAC_DERIVE?$AA@ 0000000180065050     const.obj
 0002:00009070       ??_C@_0BN@GEGDCJLB@CKM_TLS_MASTER_KEY_DERIVE_DH?$AA@ 0000000180065070     const.obj
 0002:00009090       ??_C@_0M@JAJJBNAB@CKM_TLS_PRF?$AA@ 0000000180065090     const.obj
 0002:000090a0       ??_C@_0BB@CJIBEHBL@CKM_SSL3_MD5_MAC?$AA@ 00000001800650a0     const.obj
 0002:000090b8       ??_C@_0BC@BLBOONOH@CKM_SSL3_SHA1_MAC?$AA@ 00000001800650b8     const.obj
 0002:000090d0       ??_C@_0BH@NOFOKBGP@CKM_MD5_KEY_DERIVATION?$AA@ 00000001800650d0     const.obj
 0002:000090e8       ??_C@_0BH@POMMNNCE@CKM_MD2_KEY_DERIVATION?$AA@ 00000001800650e8     const.obj
 0002:00009100       ??_C@_0BI@NGNLOANI@CKM_SHA1_KEY_DERIVATION?$AA@ 0000000180065100     const.obj
 0002:00009118       ??_C@_0BK@KAGJBDKG@CKM_SHA256_KEY_DERIVATION?$AA@ 0000000180065118     const.obj
 0002:00009138       ??_C@_0BK@FABMMMNC@CKM_SHA384_KEY_DERIVATION?$AA@ 0000000180065138     const.obj
 0002:00009158       ??_C@_0BK@JCPHGICE@CKM_SHA512_KEY_DERIVATION?$AA@ 0000000180065158     const.obj
 0002:00009178       ??_C@_0BK@JFHLIJAF@CKM_SHA224_KEY_DERIVATION?$AA@ 0000000180065178     const.obj
 0002:00009198       ??_C@_0BE@KKBFPBMN@CKM_PBE_MD2_DES_CBC?$AA@ 0000000180065198     const.obj
 0002:000091b0       ??_C@_0BE@EIMJOKLE@CKM_PBE_MD5_DES_CBC?$AA@ 00000001800651b0     const.obj
 0002:000091c8       ??_C@_0BF@IBJCEGJI@CKM_PBE_MD5_CAST_CBC?$AA@ 00000001800651c8     const.obj
 0002:000091e0       ??_C@_0BG@EGFJCNAG@CKM_PBE_MD5_CAST3_CBC?$AA@ 00000001800651e0     const.obj
 0002:000091f8       ??_C@_0BG@JAAAMOBL@CKM_PBE_MD5_CAST5_CBC?$AA@ 00000001800651f8     const.obj
 0002:00009210       ??_C@_0BI@OKBOHMKL@CKM_PBE_MD5_CAST128_CBC?$AA@ 0000000180065210     const.obj
 0002:00009228       ??_C@_0BH@NJEBJDJE@CKM_PBE_SHA1_CAST5_CBC?$AA@ 0000000180065228     const.obj
 0002:00009240       ??_C@_0BJ@EDNPJMCH@CKM_PBE_SHA1_CAST128_CBC?$AA@ 0000000180065240     const.obj
 0002:00009260       ??_C@_0BF@MFEKAAIC@CKM_PBE_SHA1_RC4_128?$AA@ 0000000180065260     const.obj
 0002:00009278       ??_C@_0BE@OMMECEEP@CKM_PBE_SHA1_RC4_40?$AA@ 0000000180065278     const.obj
 0002:00009290       ??_C@_0BK@JEIMHKND@CKM_PBE_SHA1_DES3_EDE_CBC?$AA@ 0000000180065290     const.obj
 0002:000092b0       ??_C@_0BK@HLEOBBON@CKM_PBE_SHA1_DES2_EDE_CBC?$AA@ 00000001800652b0     const.obj
 0002:000092d0       ??_C@_0BJ@DAHOHFOG@CKM_PBE_SHA1_RC2_128_CBC?$AA@ 00000001800652d0     const.obj
 0002:000092f0       ??_C@_0BI@BCKLIJGF@CKM_PBE_SHA1_RC2_40_CBC?$AA@ 00000001800652f0     const.obj
 0002:00009308       ??_C@_0BA@MPPPCCLA@CKM_PKCS5_PBKD2?$AA@ 0000000180065308     const.obj
 0002:00009318       ??_C@_0BM@PGBFCDHB@CKM_PBA_SHA1_WITH_SHA1_HMAC?$AA@ 0000000180065318     const.obj
 0002:00009338       ??_C@_0BM@KLDDLLJG@CKM_WTLS_PRE_MASTER_KEY_GEN?$AA@ 0000000180065338     const.obj
 0002:00009358       ??_C@_0BL@OIKILELJ@CKM_WTLS_MASTER_KEY_DERIVE?$AA@ 0000000180065358     const.obj
 0002:00009378       ??_C@_0CC@HGCABNL@CKM_WTLS_MASTER_KEY_DERIVE_DH_EC@ 0000000180065378     const.obj
 0002:000093a0       ??_C@_0N@JCEFCPPJ@CKM_WTLS_PRF?$AA@ 00000001800653a0     const.obj
 0002:000093b0       ??_C@_0CD@GNLPMPCJ@CKM_WTLS_SERVER_KEY_AND_MAC_DERI@ 00000001800653b0     const.obj
 0002:000093d8       ??_C@_0CD@LKIEEMLE@CKM_WTLS_CLIENT_KEY_AND_MAC_DERI@ 00000001800653d8     const.obj
 0002:00009400       ??_C@_0BD@OKGAENEH@CKM_KEY_WRAP_LYNKS?$AA@ 0000000180065400     const.obj
 0002:00009418       ??_C@_0BG@DEGGLGNC@CKM_KEY_WRAP_SET_OAEP?$AA@ 0000000180065418     const.obj
 0002:00009430       ??_C@_0BF@NNHPCMOP@CKM_CAMELLIA_KEY_GEN?$AA@ 0000000180065430     const.obj
 0002:00009448       ??_C@_0BB@DANECFEA@CKM_CAMELLIA_ECB?$AA@ 0000000180065448     const.obj
 0002:00009460       ??_C@_0BB@NGGCBOK@CKM_CAMELLIA_CBC?$AA@ 0000000180065460     const.obj
 0002:00009478       ??_C@_0BB@OPPPOIIA@CKM_CAMELLIA_MAC?$AA@ 0000000180065478     const.obj
 0002:00009490       ??_C@_0BJ@FMGFBFBH@CKM_CAMELLIA_MAC_GENERAL?$AA@ 0000000180065490     const.obj
 0002:000094b0       ??_C@_0BF@FJFIAHFJ@CKM_CAMELLIA_CBC_PAD?$AA@ 00000001800654b0     const.obj
 0002:000094c8       ??_C@_0BO@LNNHHOHA@CKM_CAMELLIA_ECB_ENCRYPT_DATA?$AA@ 00000001800654c8     const.obj
 0002:000094e8       ??_C@_0BO@NHAIDAB@CKM_CAMELLIA_CBC_ENCRYPT_DATA?$AA@ 00000001800654e8     const.obj
 0002:00009508       ??_C@_0BB@EGBENNDI@CKM_CAMELLIA_CTR?$AA@ 0000000180065508     const.obj
 0002:00009520       ??_C@_0BB@CHKABKOF@CKM_ARIA_KEY_GEN?$AA@ 0000000180065520     const.obj
 0002:00009538       ??_C@_0N@IJJJDKFM@CKM_ARIA_ECB?$AA@ 0000000180065538     const.obj
 0002:00009548       ??_C@_0N@LECLDOPG@CKM_ARIA_CBC?$AA@ 0000000180065548     const.obj
 0002:00009558       ??_C@_0N@FGLCPHJM@CKM_ARIA_MAC?$AA@ 0000000180065558     const.obj
 0002:00009568       ??_C@_0BF@EIPGKOID@CKM_ARIA_MAC_GENERAL?$AA@ 0000000180065568     const.obj
 0002:00009580       ??_C@_0BB@KDIHDBFD@CKM_ARIA_CBC_PAD?$AA@ 0000000180065580     const.obj
 0002:00009598       ??_C@_0BK@ICNJOHMH@CKM_ARIA_ECB_ENCRYPT_DATA?$AA@ 0000000180065598     const.obj
 0002:000095b8       ??_C@_0BK@DCHOBKLG@CKM_ARIA_CBC_ENCRYPT_DATA?$AA@ 00000001800655b8     const.obj
 0002:000095d8       ??_C@_0BB@GHEIFEIE@CKM_SEED_KEY_GEN?$AA@ 00000001800655d8     const.obj
 0002:000095f0       ??_C@_0N@OKLMJDFO@CKM_SEED_ECB?$AA@ 00000001800655f0     const.obj
 0002:00009600       ??_C@_0N@NHAOJHPE@CKM_SEED_CBC?$AA@ 0000000180065600     const.obj
 0002:00009610       ??_C@_0N@DFJHFOJO@CKM_SEED_MAC?$AA@ 0000000180065610     const.obj
 0002:00009620       ??_C@_0BF@FBBDKGFL@CKM_SEED_MAC_GENERAL?$AA@ 0000000180065620     const.obj
 0002:00009638       ??_C@_0BB@ODGPHPDC@CKM_SEED_CBC_PAD?$AA@ 0000000180065638     const.obj
 0002:00009650       ??_C@_0BK@MKMBEAOD@CKM_SEED_ECB_ENCRYPT_DATA?$AA@ 0000000180065650     const.obj
 0002:00009670       ??_C@_0BK@HKGGLNJC@CKM_SEED_CBC_ENCRYPT_DATA?$AA@ 0000000180065670     const.obj
 0002:00009690       ??_C@_0BF@JNDHCOKC@CKM_SKIPJACK_KEY_GEN?$AA@ 0000000180065690     const.obj
 0002:000096a8       ??_C@_0BD@PLEDKDEI@CKM_SKIPJACK_ECB64?$AA@ 00000001800656a8     const.obj
 0002:000096c0       ??_C@_0BD@KIMGAOIA@CKM_SKIPJACK_CBC64?$AA@ 00000001800656c0     const.obj
 0002:000096d8       ??_C@_0BD@JCDIAPFO@CKM_SKIPJACK_OFB64?$AA@ 00000001800656d8     const.obj
 0002:000096f0       ??_C@_0BD@OFPKMPCF@CKM_SKIPJACK_CFB64?$AA@ 00000001800656f0     const.obj
 0002:00009708       ??_C@_0BD@LFGLKKEI@CKM_SKIPJACK_CFB32?$AA@ 0000000180065708     const.obj
 0002:00009720       ??_C@_0BD@NCIDLLCC@CKM_SKIPJACK_CFB16?$AA@ 0000000180065720     const.obj
 0002:00009738       ??_C@_0BC@JAEGPBPG@CKM_SKIPJACK_CFB8?$AA@ 0000000180065738     const.obj
 0002:00009750       ??_C@_0BC@HFDPFPIK@CKM_SKIPJACK_WRAP?$AA@ 0000000180065750     const.obj
 0002:00009768       ??_C@_0BK@MKGMCJAE@CKM_SKIPJACK_PRIVATE_WRAP?$AA@ 0000000180065768     const.obj
 0002:00009788       ??_C@_0BE@HHGJGCDH@CKM_SKIPJACK_RELAYX?$AA@ 0000000180065788     const.obj
 0002:000097a0       ??_C@_0BF@IKHLGABC@CKM_KEA_KEY_PAIR_GEN?$AA@ 00000001800657a0     const.obj
 0002:000097b8       ??_C@_0BD@LHFBDAI@CKM_KEA_KEY_DERIVE?$AA@ 00000001800657b8     const.obj
 0002:000097d0       ??_C@_0BH@OAFJBGIE@CKM_FORTEZZA_TIMESTAMP?$AA@ 00000001800657d0     const.obj
 0002:000097e8       ??_C@_0BC@KHPBPJKK@CKM_BATON_KEY_GEN?$AA@ 00000001800657e8     const.obj
 0002:00009800       ??_C@_0BB@IFLPLEJA@CKM_BATON_ECB128?$AA@ 0000000180065800     const.obj
 0002:00009818       ??_C@_0BA@JIPJGEHA@CKM_BATON_ECB96?$AA@ 0000000180065818     const.obj
 0002:00009828       ??_C@_0BB@BAFDHLLP@CKM_BATON_CBC128?$AA@ 0000000180065828     const.obj
 0002:00009840       ??_C@_0BC@FOPNGGDE@CKM_BATON_COUNTER?$AA@ 0000000180065840     const.obj
 0002:00009858       ??_C@_0BC@CHNDACFN@CKM_BATON_SHUFFLE?$AA@ 0000000180065858     const.obj
 0002:00009870       ??_C@_0P@KAACMDHE@CKM_BATON_WRAP?$AA@ 0000000180065870     const.obj
 0002:00009880       ??_C@_0BH@LFKOBJKD@CKM_ECDSA_KEY_PAIR_GEN?$AA@ 0000000180065880     const.obj
 0002:00009898       ??_C@_0BE@KMPKBEBP@CKM_EC_KEY_PAIR_GEN?$AA@ 0000000180065898     const.obj
 0002:000098b0       ??_C@_09IBBCGABD@CKM_ECDSA?$AA@ 00000001800658b0     const.obj
 0002:000098c0       ??_C@_0P@EKJCFLOL@CKM_ECDSA_SHA1?$AA@ 00000001800658c0     const.obj
 0002:000098d0       ??_C@_0BB@MPEDIFCO@CKM_ECDSA_SHA224?$AA@ 00000001800658d0     const.obj
 0002:000098e8       ??_C@_0BB@PIDKPBCJ@CKM_ECDSA_SHA256?$AA@ 00000001800658e8     const.obj
 0002:00009900       ??_C@_0BB@HKGIGHJN@CKM_ECDSA_SHA384?$AA@ 0000000180065900     const.obj
 0002:00009918       ??_C@_0BB@GIIKEEI@CKM_ECDSA_SHA512?$AA@ 0000000180065918     const.obj
 0002:00009930       ??_C@_0BB@BMMNGMPO@CKM_ECDH1_DERIVE?$AA@ 0000000180065930     const.obj
 0002:00009948       ??_C@_0BK@FFLEIJJF@CKM_ECDH1_COFACTOR_DERIVE?$AA@ 0000000180065948     const.obj
 0002:00009968       ??_C@_0BB@IEDJBEDE@CKM_ECMQV_DERIVE?$AA@ 0000000180065968     const.obj
 0002:00009980       ??_C@_0BE@PJNOFODH@CKM_JUNIPER_KEY_GEN?$AA@ 0000000180065980     const.obj
 0002:00009998       ??_C@_0BD@HEOBCHOI@CKM_JUNIPER_ECB128?$AA@ 0000000180065998     const.obj
 0002:000099b0       ??_C@_0BD@OBANOIMH@CKM_JUNIPER_CBC128?$AA@ 00000001800659b0     const.obj
 0002:000099c8       ??_C@_0BE@NCMBKJ@CKM_JUNIPER_COUNTER?$AA@ 00000001800659c8     const.obj
 0002:000099e0       ??_C@_0BE@HJPMKFMA@CKM_JUNIPER_SHUFFLE?$AA@ 00000001800659e0     const.obj
 0002:000099f8       ??_C@_0BB@LEPBPOGP@CKM_JUNIPER_WRAP?$AA@ 00000001800659f8     const.obj
 0002:00009a10       ??_C@_0N@DEBCKGMK@CKM_FASTHASH?$AA@ 0000000180065a10     const.obj
 0002:00009a20       ??_C@_0BA@MGDLHLHF@CKM_AES_KEY_GEN?$AA@ 0000000180065a20     const.obj
 0002:00009a30       ??_C@_0M@CPBFMMHD@CKM_AES_ECB?$AA@ 0000000180065a30     const.obj
 0002:00009a40       ??_C@_0M@BCKHMINJ@CKM_AES_CBC?$AA@ 0000000180065a40     const.obj
 0002:00009a50       ??_C@_0M@PADOABLD@CKM_AES_MAC?$AA@ 0000000180065a50     const.obj
 0002:00009a60       ??_C@_0BE@PJBLGPAP@CKM_AES_MAC_GENERAL?$AA@ 0000000180065a60     const.obj
 0002:00009a78       ??_C@_0BA@ECBMFAMD@CKM_AES_CBC_PAD?$AA@ 0000000180065a78     const.obj
 0002:00009a88       ??_C@_0M@FJNFDEAL@CKM_AES_CTR?$AA@ 0000000180065a88     const.obj
 0002:00009a98       ??_C@_0M@EAMOAFEK@CKM_AES_CTS?$AA@ 0000000180065a98     const.obj
 0002:00009aa8       ??_C@_0N@HPKOBFEG@CKM_AES_CMAC?$AA@ 0000000180065aa8     const.obj
 0002:00009ab8       ??_C@_0BF@PDNBPMPM@CKM_AES_CMAC_GENERAL?$AA@ 0000000180065ab8     const.obj
 0002:00009ad0       ??_C@_0BF@GOHJEKBG@CKM_BLOWFISH_KEY_GEN?$AA@ 0000000180065ad0     const.obj
 0002:00009ae8       ??_C@_0BB@MAHAHCH@CKM_BLOWFISH_CBC?$AA@ 0000000180065ae8     const.obj
 0002:00009b00       ??_C@_0BE@MKPMNLBE@CKM_TWOFISH_KEY_GEN?$AA@ 0000000180065b00     const.obj
 0002:00009b18       ??_C@_0BA@CIMJIJPH@CKM_TWOFISH_CBC?$AA@ 0000000180065b18     const.obj
 0002:00009b28       ??_C@_0M@CIEBIDH@CKM_AES_GCM?$AA@ 0000000180065b28     const.obj
 0002:00009b38       ??_C@_0M@INOGIPGA@CKM_AES_CCM?$AA@ 0000000180065b38     const.obj
 0002:00009b48       ??_C@_0BB@DMGAFMAF@CKM_AES_KEY_WRAP?$AA@ 0000000180065b48     const.obj
 0002:00009b60       ??_C@_0BF@IMOJAKII@CKM_AES_KEY_WRAP_PAD?$AA@ 0000000180065b60     const.obj
 0002:00009b78       ??_C@_0BF@OKFOGBKA@CKM_BLOWFISH_CBC_PAD?$AA@ 0000000180065b78     const.obj
 0002:00009b90       ??_C@_0BE@EONLPAKC@CKM_TWOFISH_CBC_PAD?$AA@ 0000000180065b90     const.obj
 0002:00009ba8       ??_C@_0BJ@OJPJGIBI@CKM_DES_ECB_ENCRYPT_DATA?$AA@ 0000000180065ba8     const.obj
 0002:00009bc8       ??_C@_0BJ@FJFOJFGJ@CKM_DES_CBC_ENCRYPT_DATA?$AA@ 0000000180065bc8     const.obj
 0002:00009be8       ??_C@_0BK@FAPKCIGP@CKM_DES3_ECB_ENCRYPT_DATA?$AA@ 0000000180065be8     const.obj
 0002:00009c08       ??_C@_0BK@OAFNNFBO@CKM_DES3_CBC_ENCRYPT_DATA?$AA@ 0000000180065c08     const.obj
 0002:00009c28       ??_C@_0BJ@GENKOPDN@CKM_AES_ECB_ENCRYPT_DATA?$AA@ 0000000180065c28     const.obj
 0002:00009c48       ??_C@_0BJ@NEHNBCEM@CKM_AES_CBC_ENCRYPT_DATA?$AA@ 0000000180065c48     const.obj
 0002:00009c68       ??_C@_0BL@NPBHOGHC@CKM_GOSTR3410_KEY_PAIR_GEN?$AA@ 0000000180065c68     const.obj
 0002:00009c88       ??_C@_0O@FPENLBGA@CKM_GOSTR3410?$AA@ 0000000180065c88     const.obj
 0002:00009c98       ??_C@_0BN@KBAAKHGA@CKM_GOSTR3410_WITH_GOSTR3411?$AA@ 0000000180065c98     const.obj
 0002:00009cb8       ??_C@_0BH@IANPANIH@CKM_GOSTR3410_KEY_WRAP?$AA@ 0000000180065cb8     const.obj
 0002:00009cd0       ??_C@_0BF@ELAKEGLI@CKM_GOSTR3410_DERIVE?$AA@ 0000000180065cd0     const.obj
 0002:00009ce8       ??_C@_0O@EGFGIACB@CKM_GOSTR3411?$AA@ 0000000180065ce8     const.obj
 0002:00009cf8       ??_C@_0BD@IJMDNIHF@CKM_GOSTR3411_HMAC?$AA@ 0000000180065cf8     const.obj
 0002:00009d10       ??_C@_0BG@HPNFBDGF@CKM_GOST28147_KEY_GEN?$AA@ 0000000180065d10     const.obj
 0002:00009d28       ??_C@_0BC@LDMMHLNE@CKM_GOST28147_ECB?$AA@ 0000000180065d28     const.obj
 0002:00009d40       ??_C@_0O@FODNCLDF@CKM_GOST28147?$AA@ 0000000180065d40     const.obj
 0002:00009d50       ??_C@_0BC@GMOHLGBE@CKM_GOST28147_MAC?$AA@ 0000000180065d50     const.obj
 0002:00009d68       ??_C@_0BH@CBGOKCAJ@CKM_GOST28147_KEY_WRAP?$AA@ 0000000180065d68     const.obj
 0002:00009d80       ??_C@_0BG@DPNLPBHD@CKM_DSA_PARAMETER_GEN?$AA@ 0000000180065d80     const.obj
 0002:00009d98       ??_C@_0BK@DFOLGCMM@CKM_DH_PKCS_PARAMETER_GEN?$AA@ 0000000180065d98     const.obj
 0002:00009db8       ??_C@_0BL@PPJFMJPC@CKM_X9_42_DH_PARAMETER_GEN?$AA@ 0000000180065db8     const.obj
 0002:00009dd8       ??_C@_0M@EGGDOOPM@CKM_AES_OFB?$AA@ 0000000180065dd8     const.obj
 0002:00009de8       ??_C@_0O@BDLFINAD@CKM_AES_CFB64?$AA@ 0000000180065de8     const.obj
 0002:00009df8       ??_C@_0N@GGCCIMCD@CKM_AES_CFB8?$AA@ 0000000180065df8     const.obj
 0002:00009e08       ??_C@_0P@BHNPBMMH@CKM_AES_CFB128?$AA@ 0000000180065e08     const.obj
 0002:00009e18       ??_C@_0BF@LJNGLJHM@CKM_RSA_PKCS_TPM_1_1?$AA@ 0000000180065e18     const.obj
 0002:00009e30       ??_C@_0BK@GLEFODON@CKM_RSA_PKCS_OAEP_TPM_1_1?$AA@ 0000000180065e30     const.obj
 0002:00009e50       ??_C@_0BD@GDPMBEDA@CKM_VENDOR_DEFINED?$AA@ 0000000180065e50     const.obj
 0002:00009e68       ??_C@_08CEGPCOPD@CKC_WTLS?$AA@ 0000000180065e68     const.obj
 0002:00009e78       ??_C@_09PADEFIJJ@CKC_X_509?$AA@ 0000000180065e78     const.obj
 0002:00009e88       ??_C@_0BE@LOMFCFIN@CKC_X_509_ATTR_CERT?$AA@ 0000000180065e88     const.obj
 0002:00009ea0       ??_C@_0O@LNPKBFHL@CKG_MGF1_SHA1?$AA@ 0000000180065ea0     const.obj
 0002:00009eb0       ??_C@_0BA@BIBPOAMM@CKG_MGF1_SHA256?$AA@ 0000000180065eb0     const.obj
 0002:00009ec0       ??_C@_0BA@JKENHGHI@CKG_MGF1_SHA384?$AA@ 0000000180065ec0     const.obj
 0002:00009ed0       ??_C@_0BA@OGKNLFKN@CKG_MGF1_SHA512?$AA@ 0000000180065ed0     const.obj
 0002:00009ee0       ??_C@_0BA@CPGGJEML@CKG_MGF1_SHA224?$AA@ 0000000180065ee0     const.obj
 0002:00009ef0       ??_C@_08PJNOIMHF@CKD_NULL?$AA@ 0000000180065ef0     const.obj
 0002:00009f00       ??_C@_0N@CEKIKENJ@CKD_SHA1_KDF?$AA@ 0000000180065f00     const.obj
 0002:00009f10       ??_C@_0BC@JNMFLCOL@CKD_SHA1_KDF_ASN1?$AA@ 0000000180065f10     const.obj
 0002:00009f28       ??_C@_0BJ@OBBAENNF@CKD_SHA1_KDF_CONCATENATE?$AA@ 0000000180065f28     const.obj
 0002:00009f48       ??_C@_0P@CLDBBLAM@CKD_SHA224_KDF?$AA@ 0000000180065f48     const.obj
 0002:00009f58       ??_C@_0P@KDFOIEIJ@CKD_SHA256_KDF?$AA@ 0000000180065f58     const.obj
 0002:00009f68       ??_C@_0P@EDOLEENM@CKD_SHA384_KDF?$AA@ 0000000180065f68     const.obj
 0002:00009f78       ??_C@_0P@MGEFOLJF@CKD_SHA512_KDF?$AA@ 0000000180065f78     const.obj
 0002:00009f88       ??_C@_0BE@MEBPDIIH@CKD_CPDIVERSIFY_KDF?$AA@ 0000000180065f88     const.obj
 0002:00009fa0       ??_C@_0BC@PGANCHEB@CK_PARAMS_AES_CBC?$AA@ 0000000180065fa0     const.obj
 0002:00009fb8       ??_C@_0BC@GJEMGAPI@CK_PARAMS_AES_CCM?$AA@ 0000000180065fb8     const.obj
 0002:00009fd0       ??_C@_0BC@OGCOPHKP@CK_PARAMS_AES_GCM?$AA@ 0000000180065fd0     const.obj
 0002:00009fe8       ??_C@_0BH@POHNPNAB@CK_PARAMS_AES_GCM_v240?$AA@ 0000000180065fe8     const.obj
 0002:0000a000       ??_C@_0BD@LHIGNENH@CK_PARAMS_RSA_OAEP?$AA@ 0000000180066000     const.obj
 0002:0000a018       ??_C@_0BC@FLKDDIIK@CK_PARAMS_RSA_PSS?$AA@ 0000000180066018     const.obj
 0002:0000a030       ??_C@_0BA@DPPGFPFH@CK_PARAMS_EC_DH?$AA@ 0000000180066030     const.obj
 0002:0000a040       ??_C@_0CD@KMGFEEJ@CKF_LIBRARY_CANT_CREATE_OS_THREA@ 0000000180066040     const.obj
 0002:0000a068       ??_C@_0BC@LPGDCDHO@CKF_OS_LOCKING_OK?$AA@ 0000000180066068     const.obj
 0002:0000a07c       ??_C@_06IGJCJKG@CKU_SO?$AA@ 000000018006607c     const.obj
 0002:0000a088       ??_C@_08NBLMOGBA@CKU_USER?$AA@ 0000000180066088     const.obj
 0002:0000a098       ??_C@_0BF@FHFANCKO@CKU_CONTEXT_SPECIFIC?$AA@ 0000000180066098     const.obj
 0002:0000a0b0       ??_7_Ref_count_base@std@@6B@ 00000001800660b0     error.obj
 0002:0000a0d0       ??_7?$_Ref_count@V?$basic_string@DU?$char_traits@D@std@@V?$allocator@D@2@@std@@@std@@6B@ 00000001800660d0     error.obj
 0002:0000a0f0       ??_C@_00CNPNBAHC@?$AA@     00000001800660f0     error.obj
 0002:0000a0f4       ??_C@_02DPKJAMEF@?$CFd?$AA@ 00000001800660f4     error.obj
 0002:0000a0f8       ??_C@_01EEMJAFIK@?6?$AA@   00000001800660f8     error.obj
 0002:0000a100       ??_C@_0BH@HHEKKLAD@?5?5?5?5at?5Error?5?$CInative?$CJ?5?$AA@ 0000000180066100     error.obj
 0002:0000a118       ??_C@_01JLIPDDHJ@?3?$AA@   0000000180066118     error.obj
 0002:0000a120       ??_C@_0O@NIPGCINC@Unknown?5error?$AA@ 0000000180066120     template.obj
 0002:0000a130       ??_C@_0O@MEKKFKMC@v2c_ATTRIBUTE?$AA@ 0000000180066130     template.obj
 0002:0000a140       ??_C@_0BL@KPJNJNFO@Parameter?51?5MSUT?5be?5Object?$AA@ 0000000180066140     template.obj
 0002:0000a15c       ??_C@_04GPMDFGEJ@type?$AA@ 000000018006615c     template.obj
 0002:0000a168       ??_C@_0BN@CMBFNKCC@Member?5?8type?8?5MUST?5be?5Number?$AA@ 0000000180066168     template.obj
 0002:0000a188       ??_C@_05MFEJDJP@value?$AA@ 0000000180066188     template.obj
 0002:0000a190       ??_C@_0CD@PKLDBAPO@Member?5?8value?8?5MUST?5has?5wrong?5ty@ 0000000180066190     template.obj
 0002:0000a1b8       ??_C@_0O@LCAAJCCP@c2v_ATTRIBUTE?$AA@ 00000001800661b8     template.obj
 0002:0000a1c8       ??_C@_0BF@KENGPIJN@Parameter?51?5is?5EMPTY?$AA@ 00000001800661c8     template.obj
 0002:0000a1e0       ??_C@_0BB@FPOGEKLC@Attributes?3?3Push?$AA@ 00000001800661e0     template.obj
 0002:0000a1f8       ??_C@_0BD@LEJBMGFG@Attributes?3?3FromV8?$AA@ 00000001800661f8     template.obj
 0002:0000a210       ??_C@_0BK@PHFFAGDE@Parameter?51?5MUST?5be?5Array?$AA@ 0000000180066210     template.obj
 0002:0000a22c       ??_C@_06IJDLPEM@length?$AA@ 000000018006622c     template.obj
 0002:0000a238       ??_C@_0BB@BBPPICNG@Attributes?3?3ToV8?$AA@ 0000000180066238     template.obj
 0002:0000a250       ??_7?$_Ref_count@VError@@@std@@6B@ 0000000180066250     template.obj
 0002:0000a270       ??_7?$_Ref_count@UCK_ATTRIBUTE@@@std@@6B@ 0000000180066270     template.obj
 0002:0000a290       ??_7Attributes@@6B@        0000000180066290     template.obj
 0002:0000a2a8       ??_7ParamAesGCMv240@@6B@   00000001800662a8     mech.obj
 0002:0000a2c0       ??_7?$_Ref_count@VParamRsaOAEP@@@std@@6B@ 00000001800662c0     mech.obj
 0002:0000a2e0       ??_7?$_Ref_count@VParamAesGCM@@@std@@6B@ 00000001800662e0     mech.obj
 0002:0000a300       ??_7?$_Ref_count@VParamBuffer@@@std@@6B@ 0000000180066300     mech.obj
 0002:0000a320       ??_7?$_Ref_count@VParamAesCBC@@@std@@6B@ 0000000180066320     mech.obj
 0002:0000a340       ??_7?$_Ref_count@VParamEcdh1@@@std@@6B@ 0000000180066340     mech.obj
 0002:0000a360       ??_7?$_Ref_count@VParamAesCCM@@@std@@6B@ 0000000180066360     mech.obj
 0002:0000a380       ??_7ParamAesCBC@@6B@       0000000180066380     mech.obj
 0002:0000a398       ??_7?$_Ref_count@VParamAesGCMv240@@@std@@6B@ 0000000180066398     mech.obj
 0002:0000a3b8       ??_7ParamAesCCM@@6B@       00000001800663b8     mech.obj
 0002:0000a3d0       ??_7ParamBuffer@@6B@       00000001800663d0     mech.obj
 0002:0000a3e8       ??_7ParamAesGCM@@6B@       00000001800663e8     mech.obj
 0002:0000a400       ??_7ParamRsaPSS@@6B@       0000000180066400     mech.obj
 0002:0000a418       ??_7Mechanism@@6B@         0000000180066418     mech.obj
 0002:0000a430       ??_7ParamRsaOAEP@@6B@      0000000180066430     mech.obj
 0002:0000a448       ??_7?$_Ref_count@VParamRsaPSS@@@std@@6B@ 0000000180066448     mech.obj
 0002:0000a468       ??_7ParamEcdh1@@6B@        0000000180066468     mech.obj
 0002:0000a480       ??_C@_0BC@LLPBBJHL@Mechanism?3?3FromV8?$AA@ 0000000180066480     mech.obj
 0002:0000a498       ??_C@_0BL@PHLKAJDF@Parameter?51?5MUST?5be?5Object?$AA@ 0000000180066498     mech.obj
 0002:0000a4b8       ??_C@_09ONMFBHMB@mechanism?$AA@ 00000001800664b8     mech.obj
 0002:0000a4c8       ??_C@_0CF@KOEEJHBJ@Attribute?5?8mechanism?8?5MUST?5be?5Nu@ 00000001800664c8     mech.obj
 0002:0000a4f0       ??_C@_09DAGAJHIH@parameter?$AA@ 00000001800664f0     mech.obj
 0002:0000a500       ??_C@_0DF@LILFIINM@Attribute?5?8parameter?8?5MUST?5be?5Nu@ 0000000180066500     mech.obj
 0002:0000a538       ??_C@_0BP@JKFGFBNH@Unknown?5type?5Mech?5param?5in?5use?$AA@ 0000000180066538     mech.obj
 0002:0000a558       ??_C@_0BA@IHGIBOEJ@Mechanism?3?3ToV8?$AA@ 0000000180066558     mech.obj
 0002:0000a568       ??_C@_0BE@EENKKFMG@ParamBuffer?3?3FromV8?$AA@ 0000000180066568     param.obj
 0002:0000a580       ??_C@_0DM@MMIHLDEP@Cannot?5create?5ParamBuffer?4?5Param@ 0000000180066580     param.obj
 0002:0000a5c0       ??_C@_0BD@OLBABOEK@vector?$DMT?$DO?5too?5long?$AA@ 00000001800665c0     param.obj
 0002:0000a5d8       ??_C@_0BE@DCDJDJKA@ParamAesCBC?3?3FromV8?$AA@ 00000001800665d8     param_aes.obj
 0002:0000a5ec       ??_C@_02DONNAIDC@iv?$AA@   00000001800665ec     param_aes.obj
 0002:0000a5f0       ??_C@_0BO@OOIIGGLM@Attribute?5?8iv?8?5MUST?5be?5BUFFER?$AA@ 00000001800665f0     param_aes.obj
 0002:0000a610       ??_C@_04PJOLNDGD@data?$AA@ 0000000180066610     param_aes.obj
 0002:0000a618       ??_C@_0CH@HAJGMIKE@Attribute?5?8data?8?5MUST?5be?5NULL?5?$HM?5@ 0000000180066618     param_aes.obj
 0002:0000a640       ??_C@_0BE@ONHONGND@ParamAesCCM?3?3FromV8?$AA@ 0000000180066640     param_aes.obj
 0002:0000a658       ??_C@_07LDPMHAML@dataLen?$AA@ 0000000180066658     param_aes.obj
 0002:0000a660       ??_C@_0CD@JFNEHNHP@Attribute?5?8dataLen?8?5MUST?5be?5NUMB@ 0000000180066660     param_aes.obj
 0002:0000a688       ??_C@_0CJ@NIJOFAE@Attribute?5?8nonce?8?5MUST?5be?5NULL?5?$HM@ 0000000180066688     param_aes.obj
 0002:0000a6b4       ??_C@_03BFKFLPDB@aad?$AA@  00000001800666b4     param_aes.obj
 0002:0000a6b8       ??_C@_0CH@HKFDBLIC@Attribute?5?8aad?8?5MUST?5be?5NULL?5?$HM?$HM?5@ 00000001800666b8     param_aes.obj
 0002:0000a6e0       ??_C@_06PBGIHEKB@macLen?$AA@ 00000001800666e0     param_aes.obj
 0002:0000a6e8       ??_C@_0CC@GLIGMIKG@Attribute?5?8macLen?8?5MUST?5be?5NUMBE@ 00000001800666e8     param_aes.obj
 0002:0000a710       ??_C@_0BE@OOHIONKM@ParamAesGCM?3?3FromV8?$AA@ 0000000180066710     param_aes.obj
 0002:0000a728       ??_C@_07LJAAJOFG@tagBits?$AA@ 0000000180066728     param_aes.obj
 0002:0000a730       ??_C@_0CD@LODIOKMN@Attribute?5?8tagBits?8?5MUST?5be?5NUMB@ 0000000180066730     param_aes.obj
 0002:0000a754       ??_C@_06JCDBJOHC@ivBits?$AA@ 0000000180066754     param_aes.obj
 0002:0000a760       ??_C@_0CC@IHDIBDMH@Attribute?5?8ivBits?8?5MUST?5be?5NUMBE@ 0000000180066760     param_aes.obj
 0002:0000a788       ??_C@_0CG@BOJEAOPA@Attribute?5?8iv?8?5MUST?5be?5NULL?5?$HM?$HM?5B@ 0000000180066788     param_aes.obj
 0002:0000a7b0       ??_C@_0BI@BIFCNBFH@ParamAesGCMv240?3?3FromV8?$AA@ 00000001800667b0     param_aes.obj
 0002:0000a7c8       ??_C@_0BF@CLLMPEPK@ParamRsaOAEP?3?3FromV8?$AA@ 00000001800667c8     param_rsa.obj
 0002:0000a7e0       ??_C@_03GJMIBOLJ@mgf?$AA@  00000001800667e0     param_rsa.obj
 0002:0000a7e8       ??_C@_0BP@NFGPJHCA@Attribute?5?8mgf?8?5MUST?5be?5NUMBER?$AA@ 00000001800667e8     param_rsa.obj
 0002:0000a808       ??_C@_06OEKOLKIL@source?$AA@ 0000000180066808     param_rsa.obj
 0002:0000a810       ??_C@_0CC@HCCFNMCI@Attribute?5?8source?8?5MUST?5be?5NUMBE@ 0000000180066810     param_rsa.obj
 0002:0000a838       ??_C@_07NIDPGPFG@hashAlg?$AA@ 0000000180066838     param_rsa.obj
 0002:0000a840       ??_C@_0CD@GBDPOIKL@Attribute?5?8hashAlg?8?5MUST?5be?5NUMB@ 0000000180066840     param_rsa.obj
 0002:0000a868       ??_C@_0L@GEIFAJHP@sourceData?$AA@ 0000000180066868     param_rsa.obj
 0002:0000a878       ??_C@_0BE@BOFNANDC@ParamRsaPSS?3?3FromV8?$AA@ 0000000180066878     param_rsa.obj
 0002:0000a890       ??_C@_07ICAHNAPN@saltLen?$AA@ 0000000180066890     param_rsa.obj
 0002:0000a898       ??_C@_0CD@NNEMMLN@Attribute?5?8saltLen?8?5MUST?5be?5NUMB@ 0000000180066898     param_rsa.obj
 0002:0000a8c0       ??_C@_0BD@LJEHMEIF@ParamEcdh1?3?3FromV8?$AA@ 00000001800668c0     param_ecdh.obj
 0002:0000a8d4       ??_C@_03EOOFPPDM@kdf?$AA@  00000001800668d4     param_ecdh.obj
 0002:0000a8d8       ??_C@_0BP@PCBKIMFM@Attribute?5?8kdf?8?5MUST?5be?5NUMBER?$AA@ 00000001800668d8     param_ecdh.obj
 0002:0000a8f8       ??_C@_0L@NPPJOHOE@sharedData?$AA@ 00000001800668f8     param_ecdh.obj
 0002:0000a908       ??_C@_0CN@KLKKFJGO@Attribute?5?8sharedData?8?5MUST?5be?5N@ 0000000180066908     param_ecdh.obj
 0002:0000a938       ??_C@_0L@BOFCMOKN@publicData?$AA@ 0000000180066938     param_ecdh.obj
 0002:0000a948       ??_C@_0CG@GKLENOHI@Attribute?5?8publicData?8?5MUST?5be?5B@ 0000000180066948     param_ecdh.obj
 0002:0000a970       ??_7?$_Ref_count@VAttributes@@@std@@6B@ 0000000180066970     pkcs11.obj
 0002:0000a990       ??_7?$_Ref_count_obj@UCK_TOKEN_INFO@@@std@@6B@ 0000000180066990     pkcs11.obj
 0002:0000a990       ??_7?$_Ref_count_obj@UCK_SESSION_INFO@@@std@@6B@ 0000000180066990     pkcs11.obj
 0002:0000a990       ??_7?$_Ref_count_obj@UCK_INFO@@@std@@6B@ 0000000180066990     pkcs11.obj
 0002:0000a990       ??_7?$_Ref_count_obj@UCK_SLOT_INFO@@@std@@6B@ 0000000180066990     pkcs11.obj
 0002:0000a990       ??_7?$_Ref_count_obj@UKEY_PAIR@@@std@@6B@ 0000000180066990     pkcs11.obj
 0002:0000a990       ??_7?$_Ref_count_obj@UCK_MECHANISM_INFO@@@std@@6B@ 0000000180066990     pkcs11.obj
 0002:0000a9b0       ??_C@_02GMHACPFF@?$CFu?$AA@ 00000001800669b0     pkcs11.obj
 0002:0000a9b4       ??_C@_03FKNCMABI@?$CFlu?$AA@ 00000001800669b4     pkcs11.obj
 0002:0000a9b8       ??_C@_06MLBJGKKG@CKR_OK?$AA@ 00000001800669b8     pkcs11.obj
 0002:0000a9c0       ??_C@_0L@JIDCKNME@CKR_CANCEL?$AA@ 00000001800669c0     pkcs11.obj
 0002:0000a9d0       ??_C@_0BA@HHDKGBBP@CKR_HOST_MEMORY?$AA@ 00000001800669d0     pkcs11.obj
 0002:0000a9e0       ??_C@_0BE@FOAEJLLC@CKR_SLOT_ID_INVALID?$AA@ 00000001800669e0     pkcs11.obj
 0002:0000a9f8       ??_C@_0BC@BPPOLCIH@CKR_GENERAL_ERROR?$AA@ 00000001800669f8     pkcs11.obj
 0002:0000aa10       ??_C@_0BE@DIFKEOGI@CKR_FUNCTION_FAILED?$AA@ 0000000180066a10     pkcs11.obj
 0002:0000aa28       ??_C@_0BC@LNHMJFHC@CKR_ARGUMENTS_BAD?$AA@ 0000000180066a28     pkcs11.obj
 0002:0000aa40       ??_C@_0N@KFPEOGN@CKR_NO_EVENT?$AA@ 0000000180066a40     pkcs11.obj
 0002:0000aa50       ??_C@_0BL@NDINCBKJ@CKR_NEED_TO_CREATE_THREADS?$AA@ 0000000180066a50     pkcs11.obj
 0002:0000aa70       ??_C@_0O@OHMKMDKB@CKR_CANT_LOCK?$AA@ 0000000180066a70     pkcs11.obj
 0002:0000aa80       ??_C@_0BI@IDDIMLAI@CKR_ATTRIBUTE_READ_ONLY?$AA@ 0000000180066a80     pkcs11.obj
 0002:0000aa98       ??_C@_0BI@LPANBEIN@CKR_ATTRIBUTE_SENSITIVE?$AA@ 0000000180066a98     pkcs11.obj
 0002:0000aab0       ??_C@_0BL@CJHMMHEH@CKR_ATTRIBUTE_TYPE_INVALID?$AA@ 0000000180066ab0     pkcs11.obj
 0002:0000aad0       ??_C@_0BM@LMONJDMA@CKR_ATTRIBUTE_VALUE_INVALID?$AA@ 0000000180066ad0     pkcs11.obj
 0002:0000aaf0       ??_C@_0BB@HONBBNLK@CKR_DATA_INVALID?$AA@ 0000000180066af0     pkcs11.obj
 0002:0000ab08       ??_C@_0BD@BPCFCEOF@CKR_DATA_LEN_RANGE?$AA@ 0000000180066b08     pkcs11.obj
 0002:0000ab20       ??_C@_0BB@OAEPJIAO@CKR_DEVICE_ERROR?$AA@ 0000000180066b20     pkcs11.obj
 0002:0000ab38       ??_C@_0BC@EDKNPIJF@CKR_DEVICE_MEMORY?$AA@ 0000000180066b38     pkcs11.obj
 0002:0000ab50       ??_C@_0BD@CLPGKOPG@CKR_DEVICE_REMOVED?$AA@ 0000000180066b50     pkcs11.obj
 0002:0000ab68       ??_C@_0BL@HMMBAKLE@CKR_ENCRYPTED_DATA_INVALID?$AA@ 0000000180066b68     pkcs11.obj
 0002:0000ab88       ??_C@_0BN@CHFIOLM@CKR_ENCRYPTED_DATA_LEN_RANGE?$AA@ 0000000180066b88     pkcs11.obj
 0002:0000aba8       ??_C@_0BG@GFNGJBLD@CKR_FUNCTION_CANCELED?$AA@ 0000000180066ba8     pkcs11.obj
 0002:0000abc0       ??_C@_0BK@CPMALGEH@CKR_FUNCTION_NOT_PARALLEL?$AA@ 0000000180066bc0     pkcs11.obj
 0002:0000abe0       ??_C@_0BL@FLCFPGMF@CKR_FUNCTION_NOT_SUPPORTED?$AA@ 0000000180066be0     pkcs11.obj
 0002:0000ac00       ??_C@_0BH@JBCBCIHC@CKR_KEY_HANDLE_INVALID?$AA@ 0000000180066c00     pkcs11.obj
 0002:0000ac18       ??_C@_0BD@DCCEPOIK@CKR_KEY_SIZE_RANGE?$AA@ 0000000180066c18     pkcs11.obj
 0002:0000ac30       ??_C@_0BK@FBLHAPGA@CKR_KEY_TYPE_INCONSISTENT?$AA@ 0000000180066c30     pkcs11.obj
 0002:0000ac50       ??_C@_0BD@CADJPHKC@CKR_KEY_NOT_NEEDED?$AA@ 0000000180066c50     pkcs11.obj
 0002:0000ac68       ??_C@_0BA@PBNACHHM@CKR_KEY_CHANGED?$AA@ 0000000180066c68     pkcs11.obj
 0002:0000ac78       ??_C@_0P@CIJPGKMN@CKR_KEY_NEEDED?$AA@ 0000000180066c78     pkcs11.obj
 0002:0000ac88       ??_C@_0BF@GCBGIGLD@CKR_KEY_INDIGESTIBLE?$AA@ 0000000180066c88     pkcs11.obj
 0002:0000aca0       ??_C@_0BP@PCNBFOEJ@CKR_KEY_FUNCTION_NOT_PERMITTED?$AA@ 0000000180066ca0     pkcs11.obj
 0002:0000acc0       ??_C@_0BG@IEKNAGOL@CKR_KEY_NOT_WRAPPABLE?$AA@ 0000000180066cc0     pkcs11.obj
 0002:0000acd8       ??_C@_0BG@OIKHBDLJ@CKR_KEY_UNEXTRACTABLE?$AA@ 0000000180066cd8     pkcs11.obj
 0002:0000acf0       ??_C@_0BG@FIBINAPL@CKR_MECHANISM_INVALID?$AA@ 0000000180066cf0     pkcs11.obj
 0002:0000ad08       ??_C@_0BM@NHMBLBHF@CKR_MECHANISM_PARAM_INVALID?$AA@ 0000000180066d08     pkcs11.obj
 0002:0000ad28       ??_C@_0BK@NIGFIGL@CKR_OBJECT_HANDLE_INVALID?$AA@ 0000000180066d28     pkcs11.obj
 0002:0000ad48       ??_C@_0BF@LACBDJFM@CKR_OPERATION_ACTIVE?$AA@ 0000000180066d48     pkcs11.obj
 0002:0000ad60       ??_C@_0BO@NIGNIKB@CKR_OPERATION_NOT_INITIALIZED?$AA@ 0000000180066d60     pkcs11.obj
 0002:0000ad80       ??_C@_0BC@PIDGDJNE@CKR_PIN_INCORRECT?$AA@ 0000000180066d80     pkcs11.obj
 0002:0000ad98       ??_C@_0BA@PDLKJELN@CKR_PIN_INVALID?$AA@ 0000000180066d98     pkcs11.obj
 0002:0000ada8       ??_C@_0BC@MEAAAEMN@CKR_PIN_LEN_RANGE?$AA@ 0000000180066da8     pkcs11.obj
 0002:0000adc0       ??_C@_0BA@PPOOFJBC@CKR_PIN_EXPIRED?$AA@ 0000000180066dc0     pkcs11.obj
 0002:0000add0       ??_C@_0P@JGPCDBMN@CKR_PIN_LOCKED?$AA@ 0000000180066dd0     pkcs11.obj
 0002:0000ade0       ??_C@_0BD@EFPEBFCO@CKR_SESSION_CLOSED?$AA@ 0000000180066de0     pkcs11.obj
 0002:0000adf8       ??_C@_0BC@GFNLAALM@CKR_SESSION_COUNT?$AA@ 0000000180066df8     pkcs11.obj
 0002:0000ae10       ??_C@_0BL@JFEIAJEO@CKR_SESSION_HANDLE_INVALID?$AA@ 0000000180066e10     pkcs11.obj
 0002:0000ae30       ??_C@_0CD@CNJKDODF@CKR_SESSION_PARALLEL_NOT_SUPPORT@ 0000000180066e30     pkcs11.obj
 0002:0000ae58       ??_C@_0BG@NACFPKBK@CKR_SESSION_READ_ONLY?$AA@ 0000000180066e58     pkcs11.obj
 0002:0000ae70       ??_C@_0BD@CJEENIOI@CKR_SESSION_EXISTS?$AA@ 0000000180066e70     pkcs11.obj
 0002:0000ae88       ??_C@_0BN@FEECMDLD@CKR_SESSION_READ_ONLY_EXISTS?$AA@ 0000000180066e88     pkcs11.obj
 0002:0000aea8       ??_C@_0CB@MOHOJDLI@CKR_SESSION_READ_WRITE_SO_EXISTS@ 0000000180066ea8     pkcs11.obj
 0002:0000aed0       ??_C@_0BG@FJFGJBPL@CKR_SIGNATURE_INVALID?$AA@ 0000000180066ed0     pkcs11.obj
 0002:0000aee8       ??_C@_0BI@BCEJLCCN@CKR_SIGNATURE_LEN_RANGE?$AA@ 0000000180066ee8     pkcs11.obj
 0002:0000af00       ??_C@_0BI@OKLBFCJN@CKR_TEMPLATE_INCOMPLETE?$AA@ 0000000180066f00     pkcs11.obj
 0002:0000af18       ??_C@_0BK@NFOMODKD@CKR_TEMPLATE_INCONSISTENT?$AA@ 0000000180066f18     pkcs11.obj
 0002:0000af38       ??_C@_0BG@GJCOFLCP@CKR_TOKEN_NOT_PRESENT?$AA@ 0000000180066f38     pkcs11.obj
 0002:0000af50       ??_C@_0BJ@DKIDJOKM@CKR_TOKEN_NOT_RECOGNIZED?$AA@ 0000000180066f50     pkcs11.obj
 0002:0000af70       ??_C@_0BK@LICPHIEK@CKR_TOKEN_WRITE_PROTECTED?$AA@ 0000000180066f70     pkcs11.obj
 0002:0000af90       ??_C@_0CC@BHIKKBJK@CKR_UNWRAPPING_KEY_HANDLE_INVALI@ 0000000180066f90     pkcs11.obj
 0002:0000afb8       ??_C@_0BO@EDNGDMCF@CKR_UNWRAPPING_KEY_SIZE_RANGE?$AA@ 0000000180066fb8     pkcs11.obj
 0002:0000afd8       ??_C@_0CF@FNADNHJM@CKR_UNWRAPPING_KEY_TYPE_INCONSIS@ 0000000180066fd8     pkcs11.obj
 0002:0000b000       ??_C@_0BL@HHCLDMIB@CKR_USER_ALREADY_LOGGED_IN?$AA@ 0000000180067000     pkcs11.obj
 0002:0000b020       ??_C@_0BH@PHIJDFPC@CKR_USER_NOT_LOGGED_IN?$AA@ 0000000180067020     pkcs11.obj
 0002:0000b038       ??_C@_0BN@CJFMMEDO@CKR_USER_PIN_NOT_INITIALIZED?$AA@ 0000000180067038     pkcs11.obj
 0002:0000b058       ??_C@_0BG@ECPOFDO@CKR_USER_TYPE_INVALID?$AA@ 0000000180067058     pkcs11.obj
 0002:0000b070       ??_C@_0CD@GJCCPLNL@CKR_USER_ANOTHER_ALREADY_LOGGED_@ 0000000180067070     pkcs11.obj
 0002:0000b098       ??_C@_0BI@MGNIFGMM@CKR_USER_TOO_MANY_TYPES?$AA@ 0000000180067098     pkcs11.obj
 0002:0000b0b0       ??_C@_0BI@CPLHFH@CKR_WRAPPED_KEY_INVALID?$AA@ 00000001800670b0     pkcs11.obj
 0002:0000b0c8       ??_C@_0BK@MCPGJNEM@CKR_WRAPPED_KEY_LEN_RANGE?$AA@ 00000001800670c8     pkcs11.obj
 0002:0000b0e8       ??_C@_0CA@DLBMIHED@CKR_WRAPPING_KEY_HANDLE_INVALID?$AA@ 00000001800670e8     pkcs11.obj
 0002:0000b108       ??_C@_0BM@OCCHBGKK@CKR_WRAPPING_KEY_SIZE_RANGE?$AA@ 0000000180067108     pkcs11.obj
 0002:0000b128       ??_C@_0CD@FOJGMFK@CKR_WRAPPING_KEY_TYPE_INCONSISTE@ 0000000180067128     pkcs11.obj
 0002:0000b150       ??_C@_0BO@GILEANPO@CKR_RANDOM_SEED_NOT_SUPPORTED?$AA@ 0000000180067150     pkcs11.obj
 0002:0000b170       ??_C@_0BC@JEFNGGNK@CKR_RANDOM_NO_RNG?$AA@ 0000000180067170     pkcs11.obj
 0002:0000b188       ??_C@_0BK@MMHDGADE@CKR_DOMAIN_PARAMS_INVALID?$AA@ 0000000180067188     pkcs11.obj
 0002:0000b1a8       ??_C@_0BF@DHOMKFCE@CKR_BUFFER_TOO_SMALL?$AA@ 00000001800671a8     pkcs11.obj
 0002:0000b1c0       ??_C@_0BI@JPLEOJGD@CKR_SAVED_STATE_INVALID?$AA@ 00000001800671c0     pkcs11.obj
 0002:0000b1d8       ??_C@_0BK@NJDKONLD@CKR_INFORMATION_SENSITIVE?$AA@ 00000001800671d8     pkcs11.obj
 0002:0000b1f8       ??_C@_0BF@EAMMCHLP@CKR_STATE_UNSAVEABLE?$AA@ 00000001800671f8     pkcs11.obj
 0002:0000b210       ??_C@_0BN@ODFNBLKM@CKR_CRYPTOKI_NOT_INITIALIZED?$AA@ 0000000180067210     pkcs11.obj
 0002:0000b230       ??_C@_0CB@JBBGANIO@CKR_CRYPTOKI_ALREADY_INITIALIZED@ 0000000180067230     pkcs11.obj
 0002:0000b258       ??_C@_0O@GIMOJHGA@CKR_MUTEX_BAD?$AA@ 0000000180067258     pkcs11.obj
 0002:0000b268       ??_C@_0BF@NLNAHNBM@CKR_MUTEX_NOT_LOCKED?$AA@ 0000000180067268     pkcs11.obj
 0002:0000b280       ??_C@_0BB@NJDNOJFN@CKR_NEW_PIN_MODE?$AA@ 0000000180067280     pkcs11.obj
 0002:0000b298       ??_C@_0N@IBMCNMKC@CKR_NEXT_OTP?$AA@ 0000000180067298     pkcs11.obj
 0002:0000b2a8       ??_C@_0BM@BEBGKNGK@CKR_EXCEEDED_MAX_ITERATIONS?$AA@ 00000001800672a8     pkcs11.obj
 0002:0000b2c8       ??_C@_0BK@DDACINGN@CKR_FIPS_SELF_TEST_FAILED?$AA@ 00000001800672c8     pkcs11.obj
 0002:0000b2e8       ??_C@_0BI@DBKJEDBC@CKR_LIBRARY_LOAD_FAILED?$AA@ 00000001800672e8     pkcs11.obj
 0002:0000b300       ??_C@_0BB@KHDMCHOF@CKR_PIN_TOO_WEAK?$AA@ 0000000180067300     pkcs11.obj
 0002:0000b318       ??_C@_0BH@GOEMHDMP@CKR_PUBLIC_KEY_INVALID?$AA@ 0000000180067318     pkcs11.obj
 0002:0000b330       ??_C@_0BG@GCNMIEKF@CKR_FUNCTION_REJECTED?$AA@ 0000000180067330     pkcs11.obj
 0002:0000b348       ??_C@_0BD@LCCPLOJI@CKR_VENDOR_DEFINED?$AA@ 0000000180067348     pkcs11.obj
 0002:0000b360       ??_C@_0N@MKGENLFL@PKCS11?3?3Load?$AA@ 0000000180067360     pkcs11.obj
 0002:0000b370       ??_C@_0BC@GHFGDNNP@C_GetFunctionList?$AA@ 0000000180067370     pkcs11.obj
 0002:0000b388       ??_C@_0CH@DNNJCGBB@Cannot?5load?5symbol?5?8C_GetFunctio@ 0000000180067388     pkcs11.obj
 0002:0000b3b0       ??_C@_0BF@NHDADFIO@PKCS11?3?3C_Initialize?$AA@ 00000001800673b0     pkcs11.obj
 0002:0000b3c8       ??_C@_0BD@HFKPPCBN@PKCS11?3?3C_Finalize?$AA@ 00000001800673c8     pkcs11.obj
 0002:0000b3e0       ??_C@_0BC@DGJPFCGF@PKCS11?3?3C_GetInfo?$AA@ 00000001800673e0     pkcs11.obj
 0002:0000b3f8       ??_C@_0BG@BLCIOBIA@PKCS11?3?3C_GetSlotList?$AA@ 00000001800673f8     pkcs11.obj
 0002:0000b410       ??_C@_0BG@PNMEPMEI@PKCS11?3?3C_GetSlotInfo?$AA@ 0000000180067410     pkcs11.obj
 0002:0000b428       ??_C@_0BH@KHAABBPA@PKCS11?3?3C_GetTokenInfo?$AA@ 0000000180067428     pkcs11.obj
 0002:0000b440       ??_C@_0BL@EPKKLPPO@PKCS11?3?3C_GetMechanismList?$AA@ 0000000180067440     pkcs11.obj
 0002:0000b460       ??_C@_0BL@KJEGKCDG@PKCS11?3?3C_GetMechanismInfo?$AA@ 0000000180067460     pkcs11.obj
 0002:0000b480       ??_C@_0BE@LNIIEJKM@PKCS11?3?3C_InitToken?$AA@ 0000000180067480     pkcs11.obj
 0002:0000b498       ??_C@_0BC@GIJBOCHD@PKCS11?3?3C_InitPIN?$AA@ 0000000180067498     pkcs11.obj
 0002:0000b4b0       ??_C@_0BB@JPMKLBGE@PKCS11?3?3C_SetPIN?$AA@ 00000001800674b0     pkcs11.obj
 0002:0000b4c8       ??_C@_0BG@LGGPJDBL@PKCS11?3?3C_OpenSession?$AA@ 00000001800674c8     pkcs11.obj
 0002:0000b4e0       ??_C@_0BH@MGIEFLJC@PKCS11?3?3C_CloseSession?$AA@ 00000001800674e0     pkcs11.obj
 0002:0000b4f8       ??_C@_0BL@GMNHALFC@PKCS11?3?3C_CloseAllSessions?$AA@ 00000001800674f8     pkcs11.obj
 0002:0000b518       ??_C@_0BJ@PACCDHFG@PKCS11?3?3C_GetSessionInfo?$AA@ 0000000180067518     pkcs11.obj
 0002:0000b538       ??_C@_0BA@OPNCJBDF@PKCS11?3?3C_Login?$AA@ 0000000180067538     pkcs11.obj
 0002:0000b548       ??_C@_0BB@CIBHLJAN@PKCS11?3?3C_Logout?$AA@ 0000000180067548     pkcs11.obj
 0002:0000b560       ??_C@_0BK@MPHAHLBI@PKCS11?3?3C_FindObjectsInit?$AA@ 0000000180067560     pkcs11.obj
 0002:0000b580       ??_C@_0BG@DGNLMJNP@PKCS11?3?3C_FindObjects?$AA@ 0000000180067580     pkcs11.obj
 0002:0000b598       ??_C@_0BL@BOKHPLGB@PKCS11?3?3C_FindObjectsFinal?$AA@ 0000000180067598     pkcs11.obj
 0002:0000b5b8       ??_C@_0BM@JLHHILLF@PKCS11?3?3C_GetAttributeValue?$AA@ 00000001800675b8     pkcs11.obj
 0002:0000b5d8       ??_C@_0BM@LOHMAAKL@PKCS11?3?3C_SetAttributeValue?$AA@ 00000001800675d8     pkcs11.obj
 0002:0000b5f8       ??_C@_0BH@CHBGJOPB@PKCS11?3?3C_CreateObject?$AA@ 00000001800675f8     pkcs11.obj
 0002:0000b610       ??_C@_0BF@OOHKGIDA@PKCS11?3?3C_CopyObject?$AA@ 0000000180067610     pkcs11.obj
 0002:0000b628       ??_C@_0BI@DGAKEFNL@PKCS11?3?3C_DestroyObject?$AA@ 0000000180067628     pkcs11.obj
 0002:0000b640       ??_C@_0BI@IMOMJNK@PKCS11?3?3C_GetObjectSize?$AA@ 0000000180067640     pkcs11.obj
 0002:0000b658       ??_C@_0M@GMOFMBMI@crypto_init?$AA@ 0000000180067658     pkcs11.obj
 0002:0000b668       ??_C@_0O@KCMHGKKG@crypto_update?$AA@ 0000000180067668     pkcs11.obj
 0002:0000b678       ??_C@_0N@JINHLMAP@crypto_final?$AA@ 0000000180067678     pkcs11.obj
 0002:0000b688       ??_C@_0BG@GFIBLGCN@PKCS11?3?3C_EncryptInit?$AA@ 0000000180067688     pkcs11.obj
 0002:0000b6a0       ??_C@_0BC@MCMMMBCI@PKCS11?3?3C_Encrypt?$AA@ 00000001800676a0     pkcs11.obj
 0002:0000b6b8       ??_C@_0BI@EPKPIAPE@PKCS11?3?3C_EncryptUpdate?$AA@ 00000001800676b8     pkcs11.obj
 0002:0000b6d0       ??_C@_0BH@EILOMOIP@PKCS11?3?3C_EncryptFinal?$AA@ 00000001800676d0     pkcs11.obj
 0002:0000b6e8       ??_C@_0BG@NNAFHNAG@PKCS11?3?3C_DecryptInit?$AA@ 00000001800676e8     pkcs11.obj
 0002:0000b700       ??_C@_0BC@MGBJFEM@PKCS11?3?3C_Decrypt?$AA@ 0000000180067700     pkcs11.obj
 0002:0000b718       ??_C@_0BI@DFGJNOCB@PKCS11?3?3C_DecryptUpdate?$AA@ 0000000180067718     pkcs11.obj
 0002:0000b730       ??_C@_0BH@OELKLDAE@PKCS11?3?3C_DecryptFinal?$AA@ 0000000180067730     pkcs11.obj
 0002:0000b748       ??_C@_0BF@MPFBHPIL@PKCS11?3?3C_DigestInit?$AA@ 0000000180067748     pkcs11.obj
 0002:0000b760       ??_C@_0BB@KGJBIIKB@PKCS11?3?3C_Digest?$AA@ 0000000180067760     pkcs11.obj
 0002:0000b778       ??_C@_0BH@FFEKELFP@PKCS11?3?3C_DigestUpdate?$AA@ 0000000180067778     pkcs11.obj
 0002:0000b790       ??_C@_0BG@HHKBBIJL@PKCS11?3?3C_DigestFinal?$AA@ 0000000180067790     pkcs11.obj
 0002:0000b7a8       ??_C@_0BE@FABMJCCI@PKCS11?3?3C_DigestKey?$AA@ 00000001800677a8     pkcs11.obj
 0002:0000b7c0       ??_C@_0BD@COHJKENB@PKCS11?3?3C_SignInit?$AA@ 00000001800677c0     pkcs11.obj
 0002:0000b7d8       ??_C@_0P@CFBBJKFE@PKCS11?3?3C_Sign?$AA@ 00000001800677d8     pkcs11.obj
 0002:0000b7e8       ??_C@_0BF@EBPBEPF@PKCS11?3?3C_SignUpdate?$AA@ 00000001800677e8     pkcs11.obj
 0002:0000b800       ??_C@_0BE@PMPOIIKK@PKCS11?3?3C_SignFinal?$AA@ 0000000180067800     pkcs11.obj
 0002:0000b818       ??_C@_0BK@CLBOCCKD@PKCS11?3?3C_SignRecoverInit?$AA@ 0000000180067818     pkcs11.obj
 0002:0000b838       ??_C@_0BG@OHMFPONB@PKCS11?3?3C_SignRecover?$AA@ 0000000180067838     pkcs11.obj
 0002:0000b850       ??_C@_0BF@BLHHFAMJ@PKCS11?3?3C_VerifyInit?$AA@ 0000000180067850     pkcs11.obj
 0002:0000b868       ??_C@_0BB@GMIHHNKB@PKCS11?3?3C_Verify?$AA@ 0000000180067868     pkcs11.obj
 0002:0000b880       ??_C@_0BH@DMNEIPKH@PKCS11?3?3C_VerifyUpdate?$AA@ 0000000180067880     pkcs11.obj
 0002:0000b898       ??_C@_0BG@OPKHBOAI@PKCS11?3?3C_VerifyFinal?$AA@ 0000000180067898     pkcs11.obj
 0002:0000b8b0       ??_C@_0BM@IJOJBNPH@PKCS11?3?3C_VerifyRecoverInit?$AA@ 00000001800678b0     pkcs11.obj
 0002:0000b8d0       ??_C@_0BI@GCJIAFJC@PKCS11?3?3C_VerifyRecover?$AA@ 00000001800678d0     pkcs11.obj
 0002:0000b8e8       ??_C@_0BG@CEGOJKPC@PKCS11?3?3C_GenerateKey?$AA@ 00000001800678e8     pkcs11.obj
 0002:0000b900       ??_C@_0BK@PKBAPFIE@PKCS11?3?3C_GenerateKeyPair?$AA@ 0000000180067900     pkcs11.obj
 0002:0000b920       ??_C@_0BC@JOEFNMFD@PKCS11?3?3C_WrapKey?$AA@ 0000000180067920     pkcs11.obj
 0002:0000b938       ??_C@_0BE@JJENIDAM@PKCS11?3?3C_UnwrapKey?$AA@ 0000000180067938     pkcs11.obj
 0002:0000b950       ??_C@_0BE@EIJOBLIG@PKCS11?3?3C_DeriveKey?$AA@ 0000000180067950     pkcs11.obj
 0002:0000b968       ??_C@_0BF@JPMABIP@PKCS11?3?3C_SeedRandom?$AA@ 0000000180067968     pkcs11.obj
 0002:0000b980       ??_C@_0BJ@LGPKAGP@PKCS11?3?3C_GenerateRandom?$AA@ 0000000180067980     pkcs11.obj
 0002:0000b9a0       ??_C@_1GK@LIGCJHI@?$AAD?$AA?3?$AA?2?$AAT?$AAo?$AAo?$AAl?$AAs?$AA?2?$AAW?$AAe?$AAb?$AAs?$AAt?$AAo?$AAr?$AAm?$AA_?$AAw?$AAo?$AAr?$AAk?$AA?2?$AAf?$AAa?$AAb?$AAr?$AAi?$AAc?$AA?2?$AAn?$AAo@ 00000001800679a0     async.obj
 0002:0000ba10       ??_C@_1FM@LOELJOFK@?$AAs?$AAi?$AAz?$AAe?$AA?5?$AA?$DM?$AA?$DN?$AA?5?$AAi?$AAm?$AAp?$AA?3?$AA?3?$AAk?$AAM?$AAa?$AAx?$AAL?$AAe?$AAn?$AAg?$AAt?$AAh?$AA?5?$AA?$CG?$AA?$CG?$AA?5?$AA?$CC?$AAt?$AAo?$AAo?$AA?5@ 0000000180067a10     async.obj
 0002:0000ba70       ??_C@_0L@BCENACFO@privateKey?$AA@ 0000000180067a70     async.obj
 0002:0000ba80       ??_C@_09IDENFCJL@publicKey?$AA@ 0000000180067a80     async.obj
 0002:0000ba90       ??_7AsyncGenerateKeyPair@@6B@ 0000000180067a90     node.obj
 0002:0000bac0       ??_7WPKCS11@@6B@           0000000180067ac0     node.obj
 0002:0000bad8       ??_7?$_Ref_count@VPKCS11@@@std@@6B@ 0000000180067ad8     node.obj
 0002:0000baf8       ??_7AsyncDeriveKey@@6B@    0000000180067af8     node.obj
 0002:0000bb28       ??_7AsyncWrapKey@@6B@      0000000180067b28     node.obj
 0002:0000bb58       ??_7AsyncWorker@Nan@@6B@   0000000180067b58     node.obj
 0002:0000bb88       ??_7AsyncUnwrapKey@@6B@    0000000180067b88     node.obj
 0002:0000bbb8       ??_7?$_Ref_count@VMechanism@@@std@@6B@ 0000000180067bb8     node.obj
 0002:0000bbd8       ??_7ObjectWrap@node@@6B@   0000000180067bd8     node.obj
 0002:0000bbf0       ??_7AsyncCrypto@@6B@       0000000180067bf0     node.obj
 0002:0000bc20       ??_7AsyncGenerateKey@@6B@  0000000180067c20     node.obj
 0002:0000bc50       ??_C@_1JA@CCBBLM@?$AAC?$AA?3?$AA?2?$AAU?$AAs?$AAe?$AAr?$AAs?$AA?2?$AAA?$AAd?$AAm?$AAi?$AAn?$AAi?$AAs?$AAt?$AAr?$AAa?$AAt?$AAo?$AAr?$AA?2?$AA?4?$AAn?$AAo?$AAd?$AAe?$AA?9?$AAg?$AAy?$AAp@ 0000000180067c50     node.obj
 0002:0000bce0       ??_C@_1DG@OKCGPKIB@?$AAp?$AAe?$AAr?$AAs?$AAi?$AAs?$AAt?$AAe?$AAn?$AAt?$AA?$CI?$AA?$CJ?$AA?4?$AAI?$AAs?$AAN?$AAe?$AAa?$AAr?$AAD?$AAe?$AAa?$AAt?$AAh?$AA?$CI?$AA?$CJ?$AA?$AA@ 0000000180067ce0     node.obj
 0002:0000bd18       ??_C@_1CO@EGNPJLKI@?$AAp?$AAe?$AAr?$AAs?$AAi?$AAs?$AAt?$AAe?$AAn?$AAt?$AA?$CI?$AA?$CJ?$AA?4?$AAI?$AAs?$AAE?$AAm?$AAp?$AAt?$AAy?$AA?$CI?$AA?$CJ?$AA?$AA@ 0000000180067d18     node.obj
 0002:0000bd50       ??_C@_1EC@NOLNIHNJ@?$AAh?$AAa?$AAn?$AAd?$AAl?$AAe?$AA?9?$AA?$DO?$AAI?$AAn?$AAt?$AAe?$AAr?$AAn?$AAa?$AAl?$AAF?$AAi?$AAe?$AAl?$AAd?$AAC?$AAo?$AAu?$AAn?$AAt?$AA?$CI?$AA?$CJ?$AA?5?$AA?$DO?$AA?5?$AA0@ 0000000180067d50     node.obj
 0002:0000bd98       ??_C@_1DA@FBGAEOIO@?$AA?$CB?$AAp?$AAe?$AAr?$AAs?$AAi?$AAs?$AAt?$AAe?$AAn?$AAt?$AA?$CI?$AA?$CJ?$AA?4?$AAI?$AAs?$AAE?$AAm?$AAp?$AAt?$AAy?$AA?$CI?$AA?$CJ?$AA?$AA@ 0000000180067d98     node.obj
 0002:0000bdc8       ??_C@_1CO@JCKLEFMA@?$AA?$CB?$AAp?$AAe?$AAr?$AAs?$AAi?$AAs?$AAt?$AAe?$AAn?$AAt?$AA?$CI?$AA?$CJ?$AA?4?$AAI?$AAs?$AAW?$AAe?$AAa?$AAk?$AA?$CI?$AA?$CJ?$AA?$AA@ 0000000180067dc8     node.obj
 0002:0000bdf8       ??_C@_1BE@GMLLOIPJ@?$AAr?$AAe?$AAf?$AAs?$AA_?$AA?5?$AA?$DO?$AA?5?$AA0?$AA?$AA@ 0000000180067df8     node.obj
 0002:0000be10       ??_C@_1CC@GBFLAAPF@?$AAw?$AAr?$AAa?$AAp?$AA?9?$AA?$DO?$AAr?$AAe?$AAf?$AAs?$AA_?$AA?5?$AA?$DN?$AA?$DN?$AA?5?$AA0?$AA?$AA@ 0000000180067e10     node.obj
 0002:0000be38       ??_C@_0N@FDHHCDGC@v8_to_handle?$AA@ 0000000180067e38     node.obj
 0002:0000be48       ??_C@_0CH@DHIFDOPA@Buffer?5size?5is?5less?5than?5CK_ULON@ 0000000180067e48     node.obj
 0002:0000be70       ??_C@_05FEBMJMCL@major?$AA@ 0000000180067e70     node.obj
 0002:0000be78       ??_C@_05OLAOEALN@minor?$AA@ 0000000180067e78     node.obj
 0002:0000be80       ??_C@_06BMGDJFJ@PKCS11?$AA@ 0000000180067e80     node.obj
 0002:0000be88       ??_C@_07DNOEMIL@libPath?$AA@ 0000000180067e88     node.obj
 0002:0000be90       ??_C@_04EONOHKEP@load?$AA@ 0000000180067e90     node.obj
 0002:0000be98       ??_C@_05LBOHBHFK@close?$AA@ 0000000180067e98     node.obj
 0002:0000bea0       ??_C@_0N@ICFELPDB@C_Initialize?$AA@ 0000000180067ea0     node.obj
 0002:0000beb0       ??_C@_0L@LCMAJGMD@C_Finalize?$AA@ 0000000180067eb0     node.obj
 0002:0000bec0       ??_C@_09IOFDDIBO@C_GetInfo?$AA@ 0000000180067ec0     node.obj
 0002:0000bed0       ??_C@_0O@EAKDCLBH@C_GetSlotList?$AA@ 0000000180067ed0     node.obj
 0002:0000bee0       ??_C@_0O@KGEPDGNP@C_GetSlotInfo?$AA@ 0000000180067ee0     node.obj
 0002:0000bef0       ??_C@_0P@MJDAJMNN@C_GetTokenInfo?$AA@ 0000000180067ef0     node.obj
 0002:0000bf00       ??_C@_0BD@IBFDDKGC@C_GetMechanismList?$AA@ 0000000180067f00     node.obj
 0002:0000bf18       ??_C@_0BD@GHLPCHKK@C_GetMechanismInfo?$AA@ 0000000180067f18     node.obj
 0002:0000bf30       ??_C@_0M@NMCENJBL@C_InitToken?$AA@ 0000000180067f30     node.obj
 0002:0000bf40       ??_C@_09NAFNIIAI@C_InitPIN?$AA@ 0000000180067f40     node.obj
 0002:0000bf50       ??_C@_08OOAFMFFD@C_SetPIN?$AA@ 0000000180067f50     node.obj
 0002:0000bf60       ??_C@_0O@ONOEFJIM@C_OpenSession?$AA@ 0000000180067f60     node.obj
 0002:0000bf70       ??_C@_0P@KILENGLP@C_CloseSession?$AA@ 0000000180067f70     node.obj
 0002:0000bf80       ??_C@_0BD@KCCOIOMO@C_CloseAllSessions?$AA@ 0000000180067f80     node.obj
 0002:0000bf98       ??_C@_0BB@EDABPMBE@C_GetSessionInfo?$AA@ 0000000180067f98     node.obj
 0002:0000bfb0       ??_C@_07JBCDCPHB@C_Login?$AA@ 0000000180067fb0     node.obj
 0002:0000bfb8       ??_C@_08FJNIMNDK@C_Logout?$AA@ 0000000180067fb8     node.obj
 0002:0000bfc8       ??_C@_0P@EJCGBDNM@C_CreateObject?$AA@ 0000000180067fc8     node.obj
 0002:0000bfd8       ??_C@_0N@LLBOOCIP@C_CopyObject?$AA@ 0000000180067fd8     node.obj
 0002:0000bfe8       ??_C@_0BA@HDLLCJCD@C_DestroyObject?$AA@ 0000000180067fe8     node.obj
 0002:0000bff8       ??_C@_0BA@ENHPKFCC@C_GetObjectSize?$AA@ 0000000180067ff8     node.obj
 0002:0000c008       ??_C@_0BC@FHBBHIGP@C_FindObjectsInit?$AA@ 0000000180068008     node.obj
 0002:0000c020       ??_C@_0O@GNFAADEI@C_FindObjects?$AA@ 0000000180068020     node.obj
 0002:0000c030       ??_C@_0BD@NAFOHOPN@C_FindObjectsFinal?$AA@ 0000000180068030     node.obj
 0002:0000c048       ??_C@_0BE@GCAAKNFP@C_GetAttributeValue?$AA@ 0000000180068048     node.obj
 0002:0000c060       ??_C@_0BE@EHALCGEB@C_SetAttributeValue?$AA@ 0000000180068060     node.obj
 0002:0000c078       ??_C@_0O@DOAKHMLK@C_EncryptInit?$AA@ 0000000180068078     node.obj
 0002:0000c088       ??_C@_09HKAAKLFD@C_Encrypt?$AA@ 0000000180068088     node.obj
 0002:0000c098       ??_C@_0BA@KBOOMAM@C_EncryptUpdate?$AA@ 0000000180068098     node.obj
 0002:0000c0a8       ??_C@_0P@CGIOEDKC@C_EncryptFinal?$AA@ 00000001800680a8     node.obj
 0002:0000c0b8       ??_C@_0O@IGIOLHJB@C_DecryptInit?$AA@ 00000001800680b8     node.obj
 0002:0000c0c8       ??_C@_09LEKNPPDH@C_Decrypt?$AA@ 00000001800680c8     node.obj
 0002:0000c0d8       ??_C@_0BA@HANILCNJ@C_DecryptUpdate?$AA@ 00000001800680d8     node.obj
 0002:0000c0e8       ??_C@_0P@IKIKDOCJ@C_DecryptFinal?$AA@ 00000001800680e8     node.obj
 0002:0000c0f8       ??_C@_0N@JKDFPFDE@C_DigestInit?$AA@ 00000001800680f8     node.obj
 0002:0000c108       ??_C@_08NHFOPMJG@C_Digest?$AA@ 0000000180068108     node.obj
 0002:0000c118       ??_C@_0P@DLHKMGHC@C_DigestUpdate?$AA@ 0000000180068118     node.obj
 0002:0000c128       ??_C@_0O@CMCKNCAM@C_DigestFinal?$AA@ 0000000180068128     node.obj
 0002:0000c138       ??_C@_0M@DBLAACJP@C_DigestKey?$AA@ 0000000180068138     node.obj
 0002:0000c148       ??_C@_0L@OJBGMAAP@C_SignInit?$AA@ 0000000180068148     node.obj
 0002:0000c154       ??_C@_06GFNDGDFJ@C_Sign?$AA@ 0000000180068154     node.obj
 0002:0000c160       ??_C@_0N@FBHLJOEK@C_SignUpdate?$AA@ 0000000180068160     node.obj
 0002:0000c170       ??_C@_0M@JNFCBIBN@C_SignFinal?$AA@ 0000000180068170     node.obj
 0002:0000c180       ??_C@_0BC@LDHPCBNE@C_SignRecoverInit?$AA@ 0000000180068180     node.obj
 0002:0000c198       ??_C@_0O@LMEODEEG@C_SignRecover?$AA@ 0000000180068198     node.obj
 0002:0000c1a8       ??_C@_0N@EOBDNKHG@C_VerifyInit?$AA@ 00000001800681a8     node.obj
 0002:0000c1b8       ??_C@_08BNEIAJJG@C_Verify?$AA@ 00000001800681b8     node.obj
 0002:0000c1c8       ??_C@_0P@FCOEACIK@C_VerifyUpdate?$AA@ 00000001800681c8     node.obj
 0002:0000c1d8       ??_C@_0O@LECMNEJP@C_VerifyFinal?$AA@ 00000001800681d8     node.obj
 0002:0000c1e8       ??_C@_0BE@HAJODLBN@C_VerifyRecoverInit?$AA@ 00000001800681e8     node.obj
 0002:0000c200       ??_C@_0BA@CHCJGJGK@C_VerifyRecover?$AA@ 0000000180068200     node.obj
 0002:0000c210       ??_C@_0O@HPOFFAGF@C_GenerateKey?$AA@ 0000000180068210     node.obj
 0002:0000c220       ??_C@_0BC@GCHBPGPD@C_GenerateKeyPair?$AA@ 0000000180068220     node.obj
 0002:0000c238       ??_C@_09CGIJLGCI@C_WrapKey?$AA@ 0000000180068238     node.obj
 0002:0000c248       ??_C@_0M@PIOBBDLL@C_UnwrapKey?$AA@ 0000000180068248     node.obj
 0002:0000c258       ??_C@_0M@CJDCILDB@C_DeriveKey?$AA@ 0000000180068258     node.obj
 0002:0000c268       ??_C@_0N@FMJIILDA@C_SeedRandom?$AA@ 0000000180068268     node.obj
 0002:0000c278       ??_C@_0BB@LIEMGLCN@C_GenerateRandom?$AA@ 0000000180068278     node.obj
 0002:0000c290       ??_C@_0L@GAPENNGB@Parameter?5?$AA@ 0000000180068290     node.obj
 0002:0000c2a0       ??_C@_0N@OMAIHFDG@?5is?5REQUIRED?$AA@ 00000001800682a0     node.obj
 0002:0000c2b0       ??_C@_09GPGHAJIF@?5MUST?5be?5?$AA@ 00000001800682b0     node.obj
 0002:0000c2bc       ??_C@_06ENNEIMBA@String?$AA@ 00000001800682bc     node.obj
 0002:0000c2c4       ??_C@_05GECEPKB@flags?$AA@ 00000001800682c4     node.obj
 0002:0000c2d0       ??_C@_0BC@HGDNBAPC@libraryParameters?$AA@ 00000001800682d0     node.obj
 0002:0000c2e8       ??_C@_0BG@DIHNBGCD@WPKCS11?3?3C_Initialize?$AA@ 00000001800682e8     node.obj
 0002:0000c300       ??_C@_0DE@KMFAMKKJ@Parameter?5has?5wrong?5type?4?5Should@ 0000000180068300     node.obj
 0002:0000c338       ??_C@_0BA@CCPJBLAF@cryptokiVersion?$AA@ 0000000180068338     node.obj
 0002:0000c348       ??_C@_0P@IHICGLLO@manufacturerID?$AA@ 0000000180068348     node.obj
 0002:0000c358       ??_C@_0BD@OAEGDBON@libraryDescription?$AA@ 0000000180068358     node.obj
 0002:0000c370       ??_C@_0P@NINAKELA@libraryVersion?$AA@ 0000000180068370     node.obj
 0002:0000c380       ??_C@_06LBMCOACO@Buffer?$AA@ 0000000180068380     node.obj
 0002:0000c388       ??_C@_0BA@CBKDOBCM@slotDescription?$AA@ 0000000180068388     node.obj
 0002:0000c398       ??_C@_0BA@ONMJCOP@hardwareVersion?$AA@ 0000000180068398     node.obj
 0002:0000c3a8       ??_C@_0BA@GGECKCCL@firmwareVersion?$AA@ 00000001800683a8     node.obj
 0002:0000c3b8       ??_C@_05IDCCNNGI@label?$AA@ 00000001800683b8     node.obj
 0002:0000c3c0       ??_C@_05NCCFOPHA@model?$AA@ 00000001800683c0     node.obj
 0002:0000c3c8       ??_C@_0N@OMOHFKCJ@serialNumber?$AA@ 00000001800683c8     node.obj
 0002:0000c3d8       ??_C@_0BA@JKGECCLK@maxSessionCount?$AA@ 00000001800683d8     node.obj
 0002:0000c3e8       ??_C@_0N@NICNJIDO@sessionCount?$AA@ 00000001800683e8     node.obj
 0002:0000c3f8       ??_C@_0BC@OGNHKBIC@maxRwSessionCount?$AA@ 00000001800683f8     node.obj
 0002:0000c410       ??_C@_0P@JCIMOEBG@rwSessionCount?$AA@ 0000000180068410     node.obj
 0002:0000c420       ??_C@_09ECENNBOF@maxPinLen?$AA@ 0000000180068420     node.obj
 0002:0000c430       ??_C@_09EDEBELFB@minPinLen?$AA@ 0000000180068430     node.obj
 0002:0000c440       ??_C@_07DLBCCALN@utcTime?$AA@ 0000000180068440     node.obj
 0002:0000c448       ??_C@_0BC@LHNHFCPL@totalPublicMemory?$AA@ 0000000180068448     node.obj
 0002:0000c460       ??_C@_0BB@MNOOFIFP@freePublicMemory?$AA@ 0000000180068460     node.obj
 0002:0000c478       ??_C@_0BD@KBJPNAJK@totalPrivateMemory?$AA@ 0000000180068478     node.obj
 0002:0000c490       ??_C@_0BC@HAFOIOGB@freePrivateMemory?$AA@ 0000000180068490     node.obj
 0002:0000c4a4       ??_C@_06IONACMBM@Number?$AA@ 00000001800684a4     node.obj
 0002:0000c4b0       ??_C@_0L@EPEOHOKG@minKeySize?$AA@ 00000001800684b0     node.obj
 0002:0000c4c0       ??_C@_0L@IDEDAFKJ@maxKeySize?$AA@ 00000001800684c0     node.obj
 0002:0000c4cc       ??_C@_06NEEEMOAP@slotID?$AA@ 00000001800684cc     node.obj
 0002:0000c4d4       ??_C@_05HDBKIDE@state?$AA@ 00000001800684d4     node.obj
 0002:0000c4e0       ??_C@_0M@EBLDIFKJ@deviceError?$AA@ 00000001800684e0     node.obj
 0002:0000c4f0       ??_C@_1CE@IAEMMFJ@?$AA?$CB?$AAh?$AAa?$AAn?$AAd?$AAl?$AAe?$AA?4?$AAI?$AAs?$AAE?$AAm?$AAp?$AAt?$AAy?$AA?$CI?$AA?$CJ?$AA?$AA@ 00000001800684f0     node.obj
 0002:0000c518       ??_C@_08HCOMDCCD@iojs?4exe?$AA@ 0000000180068518     win_delay_load_hook.obj
 0002:0000c528       ??_C@_08JDDNMFDB@node?4exe?$AA@ 0000000180068528     win_delay_load_hook.obj
 0002:0000c560       __real@3ff0000000000000    0000000180068560     main.obj
 0002:0000c568       __real@4000000000000000    0000000180068568     main.obj
 0002:0000c570       __real@4008000000000000    0000000180068570     main.obj
 0002:0000c578       __real@4010000000000000    0000000180068578     main.obj
 0002:0000c580       __real@4014000000000000    0000000180068580     main.obj
 0002:0000c588       __real@4018000000000000    0000000180068588     main.obj
 0002:0000c590       __real@401c000000000000    0000000180068590     main.obj
 0002:0000c598       __real@4020000000000000    0000000180068598     main.obj
 0002:0000c5a0       __real@4022000000000000    00000001800685a0     main.obj
 0002:0000c5a8       __real@4024000000000000    00000001800685a8     main.obj
 0002:0000c5b0       __real@4026000000000000    00000001800685b0     main.obj
 0002:0000c5b8       __real@4028000000000000    00000001800685b8     main.obj
 0002:0000c5c0       __real@402a000000000000    00000001800685c0     main.obj
 0002:0000c5c8       __real@402c000000000000    00000001800685c8     main.obj
 0002:0000c5d0       __real@4030000000000000    00000001800685d0     main.obj
 0002:0000c5d8       __real@4031000000000000    00000001800685d8     main.obj
 0002:0000c5e0       __real@4032000000000000    00000001800685e0     main.obj
 0002:0000c5e8       __real@4033000000000000    00000001800685e8     main.obj
 0002:0000c5f0       __real@4034000000000000    00000001800685f0     main.obj
 0002:0000c5f8       __real@4035000000000000    00000001800685f8     main.obj
 0002:0000c600       __real@4036000000000000    0000000180068600     main.obj
 0002:0000c608       __real@4037000000000000    0000000180068608     main.obj
 0002:0000c610       __real@4038000000000000    0000000180068610     main.obj
 0002:0000c618       __real@4039000000000000    0000000180068618     main.obj
 0002:0000c620       __real@403a000000000000    0000000180068620     main.obj
 0002:0000c628       __real@403b000000000000    0000000180068628     main.obj
 0002:0000c630       __real@403c000000000000    0000000180068630     main.obj
 0002:0000c638       __real@403d000000000000    0000000180068638     main.obj
 0002:0000c640       __real@403e000000000000    0000000180068640     main.obj
 0002:0000c648       __real@403f000000000000    0000000180068648     main.obj
 0002:0000c650       __real@4040000000000000    0000000180068650     main.obj
 0002:0000c658       __real@4040800000000000    0000000180068658     main.obj
 0002:0000c660       __real@4041000000000000    0000000180068660     main.obj
 0002:0000c668       __real@4041800000000000    0000000180068668     main.obj
 0002:0000c670       __real@4042000000000000    0000000180068670     main.obj
 0002:0000c678       __real@4042800000000000    0000000180068678     main.obj
 0002:0000c680       __real@4043000000000000    0000000180068680     main.obj
 0002:0000c688       __real@4043800000000000    0000000180068688     main.obj
 0002:0000c690       __real@4044000000000000    0000000180068690     main.obj
 0002:0000c698       __real@4044800000000000    0000000180068698     main.obj
 0002:0000c6a0       __real@4045000000000000    00000001800686a0     main.obj
 0002:0000c6a8       __real@4045800000000000    00000001800686a8     main.obj
 0002:0000c6b0       __real@4046000000000000    00000001800686b0     main.obj
 0002:0000c6b8       __real@4046800000000000    00000001800686b8     main.obj
 0002:0000c6c0       __real@4047000000000000    00000001800686c0     main.obj
 0002:0000c6c8       __real@4047800000000000    00000001800686c8     main.obj
 0002:0000c6d0       __real@4048000000000000    00000001800686d0     main.obj
 0002:0000c6d8       __real@4048800000000000    00000001800686d8     main.obj
 0002:0000c6e0       __real@4049000000000000    00000001800686e0     main.obj
 0002:0000c6e8       __real@4049800000000000    00000001800686e8     main.obj
 0002:0000c6f0       __real@4050000000000000    00000001800686f0     main.obj
 0002:0000c6f8       __real@4050400000000000    00000001800686f8     main.obj
 0002:0000c700       __real@4050800000000000    0000000180068700     main.obj
 0002:0000c708       __real@4050c00000000000    0000000180068708     main.obj
 0002:0000c710       __real@4051000000000000    0000000180068710     main.obj
 0002:0000c718       __real@4051400000000000    0000000180068718     main.obj
 0002:0000c720       __real@4051800000000000    0000000180068720     main.obj
 0002:0000c728       __real@4051c00000000000    0000000180068728     main.obj
 0002:0000c730       __real@4060000000000000    0000000180068730     main.obj
 0002:0000c738       __real@4060200000000000    0000000180068738     main.obj
 0002:0000c740       __real@4060400000000000    0000000180068740     main.obj
 0002:0000c748       __real@4060600000000000    0000000180068748     main.obj
 0002:0000c750       __real@4060800000000000    0000000180068750     main.obj
 0002:0000c758       __real@4060a00000000000    0000000180068758     main.obj
 0002:0000c760       __real@4060c00000000000    0000000180068760     main.obj
 0002:0000c768       __real@4060e00000000000    0000000180068768     main.obj
 0002:0000c770       __real@4061000000000000    0000000180068770     main.obj
 0002:0000c778       __real@4061200000000000    0000000180068778     main.obj
 0002:0000c780       __real@4061400000000000    0000000180068780     main.obj
 0002:0000c788       __real@4061600000000000    0000000180068788     main.obj
 0002:0000c790       __real@4061800000000000    0000000180068790     main.obj
 0002:0000c798       __real@4062000000000000    0000000180068798     main.obj
 0002:0000c7a0       __real@4070000000000000    00000001800687a0     main.obj
 0002:0000c7a8       __real@4070100000000000    00000001800687a8     main.obj
 0002:0000c7b0       __real@4070200000000000    00000001800687b0     main.obj
 0002:0000c7b8       __real@4070300000000000    00000001800687b8     main.obj
 0002:0000c7c0       __real@4070400000000000    00000001800687c0     main.obj
 0002:0000c7c8       __real@4070500000000000    00000001800687c8     main.obj
 0002:0000c7d0       __real@4070600000000000    00000001800687d0     main.obj
 0002:0000c7d8       __real@4070700000000000    00000001800687d8     main.obj
 0002:0000c7e0       __real@4070800000000000    00000001800687e0     main.obj
 0002:0000c7e8       __real@4070900000000000    00000001800687e8     main.obj
 0002:0000c7f0       __real@4070a00000000000    00000001800687f0     main.obj
 0002:0000c7f8       __real@4070b00000000000    00000001800687f8     main.obj
 0002:0000c800       __real@4070c00000000000    0000000180068800     main.obj
 0002:0000c808       __real@4071000000000000    0000000180068808     main.obj
 0002:0000c810       __real@4071100000000000    0000000180068810     main.obj
 0002:0000c818       __real@4072000000000000    0000000180068818     main.obj
 0002:0000c820       __real@4072100000000000    0000000180068820     main.obj
 0002:0000c828       __real@4072200000000000    0000000180068828     main.obj
 0002:0000c830       __real@4072300000000000    0000000180068830     main.obj
 0002:0000c838       __real@4072400000000000    0000000180068838     main.obj
 0002:0000c840       __real@4072500000000000    0000000180068840     main.obj
 0002:0000c848       __real@4072600000000000    0000000180068848     main.obj
 0002:0000c850       __real@4072700000000000    0000000180068850     main.obj
 0002:0000c858       __real@4072800000000000    0000000180068858     main.obj
 0002:0000c860       __real@4073000000000000    0000000180068860     main.obj
 0002:0000c868       __real@4073100000000000    0000000180068868     main.obj
 0002:0000c870       __real@4073200000000000    0000000180068870     main.obj
 0002:0000c878       __real@4073300000000000    0000000180068878     main.obj
 0002:0000c880       __real@4073400000000000    0000000180068880     main.obj
 0002:0000c888       __real@4073500000000000    0000000180068888     main.obj
 0002:0000c890       __real@4073600000000000    0000000180068890     main.obj
 0002:0000c898       __real@4073700000000000    0000000180068898     main.obj
 0002:0000c8a0       __real@4073800000000000    00000001800688a0     main.obj
 0002:0000c8a8       __real@4074000000000000    00000001800688a8     main.obj
 0002:0000c8b0       __real@4074100000000000    00000001800688b0     main.obj
 0002:0000c8b8       __real@4074200000000000    00000001800688b8     main.obj
 0002:0000c8c0       __real@4074300000000000    00000001800688c0     main.obj
 0002:0000c8c8       __real@4074400000000000    00000001800688c8     main.obj
 0002:0000c8d0       __real@4074500000000000    00000001800688d0     main.obj
 0002:0000c8d8       __real@4075000000000000    00000001800688d8     main.obj
 0002:0000c8e0       __real@4075100000000000    00000001800688e0     main.obj
 0002:0000c8e8       __real@4075200000000000    00000001800688e8     main.obj
 0002:0000c8f0       __real@4075300000000000    00000001800688f0     main.obj
 0002:0000c8f8       __real@4076000000000000    00000001800688f8     main.obj
 0002:0000c900       __real@4076100000000000    0000000180068900     main.obj
 0002:0000c908       __real@4076200000000000    0000000180068908     main.obj
 0002:0000c910       __real@4076300000000000    0000000180068910     main.obj
 0002:0000c918       __real@4076400000000000    0000000180068918     main.obj
 0002:0000c920       __real@4076500000000000    0000000180068920     main.obj
 0002:0000c928       __real@4076600000000000    0000000180068928     main.obj
 0002:0000c930       __real@4077000000000000    0000000180068930     main.obj
 0002:0000c938       __real@4077100000000000    0000000180068938     main.obj
 0002:0000c940       __real@4077200000000000    0000000180068940     main.obj
 0002:0000c948       __real@4078000000000000    0000000180068948     main.obj
 0002:0000c950       __real@4078100000000000    0000000180068950     main.obj
 0002:0000c958       __real@4080000000000000    0000000180068958     main.obj
 0002:0000c960       __real@4080080000000000    0000000180068960     main.obj
 0002:0000c968       __real@4080100000000000    0000000180068968     main.obj
 0002:0000c970       __real@4080800000000000    0000000180068970     main.obj
 0002:0000c978       __real@4080880000000000    0000000180068978     main.obj
 0002:0000c980       __real@4080900000000000    0000000180068980     main.obj
 0002:0000c988       __real@4081000000000000    0000000180068988     main.obj
 0002:0000c990       __real@4081080000000000    0000000180068990     main.obj
 0002:0000c998       __real@4081100000000000    0000000180068998     main.obj
 0002:0000c9a0       __real@4081180000000000    00000001800689a0     main.obj
 0002:0000c9a8       __real@4081200000000000    00000001800689a8     main.obj
 0002:0000c9b0       __real@4081280000000000    00000001800689b0     main.obj
 0002:0000c9b8       __real@4081300000000000    00000001800689b8     main.obj
 0002:0000c9c0       __real@4081380000000000    00000001800689c0     main.obj
 0002:0000c9c8       __real@4081500000000000    00000001800689c8     main.obj
 0002:0000c9d0       __real@4081580000000000    00000001800689d0     main.obj
 0002:0000c9d8       __real@4081600000000000    00000001800689d8     main.obj
 0002:0000c9e0       __real@4081680000000000    00000001800689e0     main.obj
 0002:0000c9e8       __real@4081700000000000    00000001800689e8     main.obj
 0002:0000c9f0       __real@4081780000000000    00000001800689f0     main.obj
 0002:0000c9f8       __real@4081800000000000    00000001800689f8     main.obj
 0002:0000ca00       __real@4081880000000000    0000000180068a00     main.obj
 0002:0000ca08       __real@4081900000000000    0000000180068a08     main.obj
 0002:0000ca10       __real@4082000000000000    0000000180068a10     main.obj
 0002:0000ca18       __real@4082080000000000    0000000180068a18     main.obj
 0002:0000ca20       __real@4082100000000000    0000000180068a20     main.obj
 0002:0000ca28       __real@4082800000000000    0000000180068a28     main.obj
 0002:0000ca30       __real@4082880000000000    0000000180068a30     main.obj
 0002:0000ca38       __real@4082900000000000    0000000180068a38     main.obj
 0002:0000ca40       __real@4082a80000000000    0000000180068a40     main.obj
 0002:0000ca48       __real@4082b00000000000    0000000180068a48     main.obj
 0002:0000ca50       __real@4082b80000000000    0000000180068a50     main.obj
 0002:0000ca58       __real@4083000000000000    0000000180068a58     main.obj
 0002:0000ca60       __real@4083080000000000    0000000180068a60     main.obj
 0002:0000ca68       __real@4083100000000000    0000000180068a68     main.obj
 0002:0000ca70       __real@4083800000000000    0000000180068a70     main.obj
 0002:0000ca78       __real@4083880000000000    0000000180068a78     main.obj
 0002:0000ca80       __real@4083900000000000    0000000180068a80     main.obj
 0002:0000ca88       __real@4084000000000000    0000000180068a88     main.obj
 0002:0000ca90       __real@4084100000000000    0000000180068a90     main.obj
 0002:0000ca98       __real@4084800000000000    0000000180068a98     main.obj
 0002:0000caa0       __real@4084880000000000    0000000180068aa0     main.obj
 0002:0000caa8       __real@4085000000000000    0000000180068aa8     main.obj
 0002:0000cab0       __real@4085080000000000    0000000180068ab0     main.obj
 0002:0000cab8       __real@4088000000000000    0000000180068ab8     main.obj
 0002:0000cac0       __real@4088080000000000    0000000180068ac0     main.obj
 0002:0000cac8       __real@4088100000000000    0000000180068ac8     main.obj
 0002:0000cad0       __real@4088180000000000    0000000180068ad0     main.obj
 0002:0000cad8       __real@4088200000000000    0000000180068ad8     main.obj
 0002:0000cae0       __real@4088280000000000    0000000180068ae0     main.obj
 0002:0000cae8       __real@4088800000000000    0000000180068ae8     main.obj
 0002:0000caf0       __real@4088880000000000    0000000180068af0     main.obj
 0002:0000caf8       __real@4088900000000000    0000000180068af8     main.obj
 0002:0000cb00       __real@4088980000000000    0000000180068b00     main.obj
 0002:0000cb08       __real@4088a00000000000    0000000180068b08     main.obj
 0002:0000cb10       __real@4088a80000000000    0000000180068b10     main.obj
 0002:0000cb18       __real@4089000000000000    0000000180068b18     main.obj
 0002:0000cb20       __real@4089080000000000    0000000180068b20     main.obj
 0002:0000cb28       __real@4089100000000000    0000000180068b28     main.obj
 0002:0000cb30       __real@4089180000000000    0000000180068b30     main.obj
 0002:0000cb38       __real@4089200000000000    0000000180068b38     main.obj
 0002:0000cb40       __real@4089280000000000    0000000180068b40     main.obj
 0002:0000cb48       __real@4089800000000000    0000000180068b48     main.obj
 0002:0000cb50       __real@4089880000000000    0000000180068b50     main.obj
 0002:0000cb58       __real@4089900000000000    0000000180068b58     main.obj
 0002:0000cb60       __real@4089980000000000    0000000180068b60     main.obj
 0002:0000cb68       __real@4089a00000000000    0000000180068b68     main.obj
 0002:0000cb70       __real@4089a80000000000    0000000180068b70     main.obj
 0002:0000cb78       __real@408a000000000000    0000000180068b78     main.obj
 0002:0000cb80       __real@408a080000000000    0000000180068b80     main.obj
 0002:0000cb88       __real@408a100000000000    0000000180068b88     main.obj
 0002:0000cb90       __real@408a180000000000    0000000180068b90     main.obj
 0002:0000cb98       __real@408a200000000000    0000000180068b98     main.obj
 0002:0000cba0       __real@408a280000000000    0000000180068ba0     main.obj
 0002:0000cba8       __real@408a800000000000    0000000180068ba8     main.obj
 0002:0000cbb0       __real@408b000000000000    0000000180068bb0     main.obj
 0002:0000cbb8       __real@408b100000000000    0000000180068bb8     main.obj
 0002:0000cbc0       __real@408b180000000000    0000000180068bc0     main.obj
 0002:0000cbc8       __real@408b200000000000    0000000180068bc8     main.obj
 0002:0000cbd0       __real@408b280000000000    0000000180068bd0     main.obj
 0002:0000cbd8       __real@408b800000000000    0000000180068bd8     main.obj
 0002:0000cbe0       __real@408b880000000000    0000000180068be0     main.obj
 0002:0000cbe8       __real@408b900000000000    0000000180068be8     main.obj
 0002:0000cbf0       __real@408b980000000000    0000000180068bf0     main.obj
 0002:0000cbf8       __real@408ba00000000000    0000000180068bf8     main.obj
 0002:0000cc00       __real@408ba80000000000    0000000180068c00     main.obj
 0002:0000cc08       __real@408bb00000000000    0000000180068c08     main.obj
 0002:0000cc10       __real@408bb80000000000    0000000180068c10     main.obj
 0002:0000cc18       __real@408bc00000000000    0000000180068c18     main.obj
 0002:0000cc20       __real@408c000000000000    0000000180068c20     main.obj
 0002:0000cc28       __real@408c080000000000    0000000180068c28     main.obj
 0002:0000cc30       __real@408c800000000000    0000000180068c30     main.obj
 0002:0000cc38       __real@408c880000000000    0000000180068c38     main.obj
 0002:0000cc40       __real@408c900000000000    0000000180068c40     main.obj
 0002:0000cc48       __real@408c980000000000    0000000180068c48     main.obj
 0002:0000cc50       __real@408ca00000000000    0000000180068c50     main.obj
 0002:0000cc58       __real@408ca80000000000    0000000180068c58     main.obj
 0002:0000cc60       __real@408cb00000000000    0000000180068c60     main.obj
 0002:0000cc68       __real@408d000000000000    0000000180068c68     main.obj
 0002:0000cc70       __real@408d080000000000    0000000180068c70     main.obj
 0002:0000cc78       __real@408d100000000000    0000000180068c78     main.obj
 0002:0000cc80       __real@408d180000000000    0000000180068c80     main.obj
 0002:0000cc88       __real@408d200000000000    0000000180068c88     main.obj
 0002:0000cc90       __real@408d280000000000    0000000180068c90     main.obj
 0002:0000cc98       __real@408d300000000000    0000000180068c98     main.obj
 0002:0000cca0       __real@408d380000000000    0000000180068ca0     main.obj
 0002:0000cca8       __real@408d400000000000    0000000180068ca8     main.obj
 0002:0000ccb0       __real@408d480000000000    0000000180068cb0     main.obj
 0002:0000ccb8       __real@408d500000000000    0000000180068cb8     main.obj
 0002:0000ccc0       __real@408d580000000000    0000000180068cc0     main.obj
 0002:0000ccc8       __real@408d800000000000    0000000180068cc8     main.obj
 0002:0000ccd0       __real@408e000000000000    0000000180068cd0     main.obj
 0002:0000ccd8       __real@408e800000000000    0000000180068cd8     main.obj
 0002:0000cce0       __real@408e880000000000    0000000180068ce0     main.obj
 0002:0000cce8       __real@408e900000000000    0000000180068ce8     main.obj
 0002:0000ccf0       __real@408e980000000000    0000000180068cf0     main.obj
 0002:0000ccf8       __real@408ea00000000000    0000000180068cf8     main.obj
 0002:0000cd00       __real@408ea80000000000    0000000180068d00     main.obj
 0002:0000cd08       __real@4090000000000000    0000000180068d08     main.obj
 0002:0000cd10       __real@4090040000000000    0000000180068d10     main.obj
 0002:0000cd18       __real@4090080000000000    0000000180068d18     main.obj
 0002:0000cd20       __real@40900c0000000000    0000000180068d20     main.obj
 0002:0000cd28       __real@4090100000000000    0000000180068d28     main.obj
 0002:0000cd30       __real@4090140000000000    0000000180068d30     main.obj
 0002:0000cd38       __real@4090180000000000    0000000180068d38     main.obj
 0002:0000cd40       __real@4092000000000000    0000000180068d40     main.obj
 0002:0000cd48       __real@4092040000000000    0000000180068d48     main.obj
 0002:0000cd50       __real@4092080000000000    0000000180068d50     main.obj
 0002:0000cd58       __real@4094000000000000    0000000180068d58     main.obj
 0002:0000cd60       __real@4094040000000000    0000000180068d60     main.obj
 0002:0000cd68       __real@4094080000000000    0000000180068d68     main.obj
 0002:0000cd70       __real@40940c0000000000    0000000180068d70     main.obj
 0002:0000cd78       __real@4095400000000000    0000000180068d78     main.obj
 0002:0000cd80       __real@4095440000000000    0000000180068d80     main.obj
 0002:0000cd88       __real@4095480000000000    0000000180068d88     main.obj
 0002:0000cd90       __real@40954c0000000000    0000000180068d90     main.obj
 0002:0000cd98       __real@4095500000000000    0000000180068d98     main.obj
 0002:0000cda0       __real@4095540000000000    0000000180068da0     main.obj
 0002:0000cda8       __real@4095580000000000    0000000180068da8     main.obj
 0002:0000cdb0       __real@40955c0000000000    0000000180068db0     main.obj
 0002:0000cdb8       __real@4095600000000000    0000000180068db8     main.obj
 0002:0000cdc0       __real@4095800000000000    0000000180068dc0     main.obj
 0002:0000cdc8       __real@4095840000000000    0000000180068dc8     main.obj
 0002:0000cdd0       __real@4095880000000000    0000000180068dd0     main.obj
 0002:0000cdd8       __real@40958c0000000000    0000000180068dd8     main.obj
 0002:0000cde0       __real@4095900000000000    0000000180068de0     main.obj
 0002:0000cde8       __real@4095940000000000    0000000180068de8     main.obj
 0002:0000cdf0       __real@4095980000000000    0000000180068df0     main.obj
 0002:0000cdf8       __real@40959c0000000000    0000000180068df8     main.obj
 0002:0000ce00       __real@4099400000000000    0000000180068e00     main.obj
 0002:0000ce08       __real@4099440000000000    0000000180068e08     main.obj
 0002:0000ce10       __real@4099480000000000    0000000180068e10     main.obj
 0002:0000ce18       __real@40994c0000000000    0000000180068e18     main.obj
 0002:0000ce20       __real@4099500000000000    0000000180068e20     main.obj
 0002:0000ce28       __real@4099540000000000    0000000180068e28     main.obj
 0002:0000ce30       __real@4099580000000000    0000000180068e30     main.obj
 0002:0000ce38       __real@40995c0000000000    0000000180068e38     main.obj
 0002:0000ce40       __real@40a0000000000000    0000000180068e40     main.obj
 0002:0000ce48       __real@40b0000000000000    0000000180068e48     main.obj
 0002:0000ce50       __real@40b0010000000000    0000000180068e50     main.obj
 0002:0000ce58       __real@40b0020000000000    0000000180068e58     main.obj
 0002:0000ce60       __real@40b0030000000000    0000000180068e60     main.obj
 0002:0000ce68       __real@40b0040000000000    0000000180068e68     main.obj
 0002:0000ce70       __real@40b0050000000000    0000000180068e70     main.obj
 0002:0000ce78       __real@40b0060000000000    0000000180068e78     main.obj
 0002:0000ce80       __real@40b0070000000000    0000000180068e80     main.obj
 0002:0000ce88       __real@40b0080000000000    0000000180068e88     main.obj
 0002:0000ce90       __real@40b0090000000000    0000000180068e90     main.obj
 0002:0000ce98       __real@40b00a0000000000    0000000180068e98     main.obj
 0002:0000cea0       __real@40b0100000000000    0000000180068ea0     main.obj
 0002:0000cea8       __real@40b0110000000000    0000000180068ea8     main.obj
 0002:0000ceb0       __real@40b0200000000000    0000000180068eb0     main.obj
 0002:0000ceb8       __real@40b0300000000000    0000000180068eb8     main.obj
 0002:0000cec0       __real@40b0310000000000    0000000180068ec0     main.obj
 0002:0000cec8       __real@40b0320000000000    0000000180068ec8     main.obj
 0002:0000ced0       __real@40b0330000000000    0000000180068ed0     main.obj
 0002:0000ced8       __real@40b0340000000000    0000000180068ed8     main.obj
 0002:0000cee0       __real@40b0350000000000    0000000180068ee0     main.obj
 0002:0000cee8       __real@40b0360000000000    0000000180068ee8     main.obj
 0002:0000cef0       __real@40b0400000000000    0000000180068ef0     main.obj
 0002:0000cef8       __real@40b0410000000000    0000000180068ef8     main.obj
 0002:0000cf00       __real@40b0420000000000    0000000180068f00     main.obj
 0002:0000cf08       __real@40b0430000000000    0000000180068f08     main.obj
 0002:0000cf10       __real@40b0440000000000    0000000180068f10     main.obj
 0002:0000cf18       __real@40b0450000000000    0000000180068f18     main.obj
 0002:0000cf20       __real@40b0460000000000    0000000180068f20     main.obj
 0002:0000cf28       __real@40b0500000000000    0000000180068f28     main.obj
 0002:0000cf30       __real@40b0510000000000    0000000180068f30     main.obj
 0002:0000cf38       __real@40b0520000000000    0000000180068f38     main.obj
 0002:0000cf40       __real@40b0600000000000    0000000180068f40     main.obj
 0002:0000cf48       __real@40b0610000000000    0000000180068f48     main.obj
 0002:0000cf50       __real@40b0620000000000    0000000180068f50     main.obj
 0002:0000cf58       __real@40b0630000000000    0000000180068f58     main.obj
 0002:0000cf60       __real@40b0640000000000    0000000180068f60     main.obj
 0002:0000cf68       __real@40b0650000000000    0000000180068f68     main.obj
 0002:0000cf70       __real@40b0700000000000    0000000180068f70     main.obj
 0002:0000cf78       __real@40b0800000000000    0000000180068f78     main.obj
 0002:0000cf80       __real@40b0810000000000    0000000180068f80     main.obj
 0002:0000cf88       __real@40b0820000000000    0000000180068f88     main.obj
 0002:0000cf90       __real@40b0830000000000    0000000180068f90     main.obj
 0002:0000cf98       __real@40b0840000000000    0000000180068f98     main.obj
 0002:0000cfa0       __real@40b0850000000000    0000000180068fa0     main.obj
 0002:0000cfa8       __real@40b0860000000000    0000000180068fa8     main.obj
 0002:0000cfb0       __real@40b0870000000000    0000000180068fb0     main.obj
 0002:0000cfb8       __real@40b0880000000000    0000000180068fb8     main.obj
 0002:0000cfc0       __real@40b0890000000000    0000000180068fc0     main.obj
 0002:0000cfc8       __real@40b08a0000000000    0000000180068fc8     main.obj
 0002:0000cfd0       __real@40b08b0000000000    0000000180068fd0     main.obj
 0002:0000cfd8       __real@40b0900000000000    0000000180068fd8     main.obj
 0002:0000cfe0       __real@40b0910000000000    0000000180068fe0     main.obj
 0002:0000cfe8       __real@40b0920000000000    0000000180068fe8     main.obj
 0002:0000cff0       __real@40b0930000000000    0000000180068ff0     main.obj
 0002:0000cff8       __real@40b0940000000000    0000000180068ff8     main.obj
 0002:0000d000       __real@40b0950000000000    0000000180069000     main.obj
 0002:0000d008       __real@40b1000000000000    0000000180069008     main.obj
 0002:0000d010       __real@40b1010000000000    0000000180069010     main.obj
 0002:0000d018       __real@40b1020000000000    0000000180069018     main.obj
 0002:0000d020       __real@40b1030000000000    0000000180069020     main.obj
 0002:0000d028       __real@40b1040000000000    0000000180069028     main.obj
 0002:0000d030       __real@40b1050000000000    0000000180069030     main.obj
 0002:0000d038       __real@40b2000000000000    0000000180069038     main.obj
 0002:0000d040       __real@40b2010000000000    0000000180069040     main.obj
 0002:0000d048       __real@40b2020000000000    0000000180069048     main.obj
 0002:0000d050       __real@40b2030000000000    0000000180069050     main.obj
 0002:0000d058       __real@40b2040000000000    0000000180069058     main.obj
 0002:0000d060       __real@40b2100000000000    0000000180069060     main.obj
 0002:0000d068       __real@40b2110000000000    0000000180069068     main.obj
 0002:0000d070       __real@40b2200000000000    0000000180069070     main.obj
 0002:0000d078       __real@40b2210000000000    0000000180069078     main.obj
 0002:0000d080       __real@40b2220000000000    0000000180069080     main.obj
 0002:0000d088       __real@40b2230000000000    0000000180069088     main.obj
 0002:0000d090       __real@40b2240000000000    0000000180069090     main.obj
 0002:0000d098       __real@40c0000000000000    0000000180069098     main.obj
 0002:0000d0a0       __real@40c0008000000000    00000001800690a0     main.obj
 0002:0000d0a8       __real@40c0010000000000    00000001800690a8     main.obj
 0002:0000d0b0       __real@40c0820000000000    00000001800690b0     main.obj
 0002:0000d0b8       __real@40c0828000000000    00000001800690b8     main.obj
 0002:0000d0c0       __real@40c0830000000000    00000001800690c0     main.obj
 0002:0000d0c8       __real@40c0838000000000    00000001800690c8     main.obj
 0002:0000d0d0       __real@40d0000000000000    00000001800690d0     main.obj
 0002:0000d0d8       __real@40d0004000000000    00000001800690d8     main.obj
 0002:0000d0e0       __real@40d0008000000000    00000001800690e0     main.obj
 0002:0000d0e8       __real@40e0000000000000    00000001800690e8     main.obj
 0002:0000d0f0       __real@40f0000000000000    00000001800690f0     main.obj
 0002:0000d0f8       __real@4100000000000000    00000001800690f8     main.obj
 0002:0000d100       __real@4110000000000000    0000000180069100     main.obj
 0002:0000d108       __real@4120000000000000    0000000180069108     main.obj
 0002:0000d110       __real@4130000000000000    0000000180069110     main.obj
 0002:0000d118       __real@4140000000000000    0000000180069118     main.obj
 0002:0000d120       __real@4150000000000000    0000000180069120     main.obj
 0002:0000d128       __real@4160000000000000    0000000180069128     main.obj
 0002:0000d130       __real@4170000000000000    0000000180069130     main.obj
 0002:0000d138       __real@41d0000084400000    0000000180069138     main.obj
 0002:0000d140       __real@41d0000084800000    0000000180069140     main.obj
 0002:0000d148       __real@41d0000084c00000    0000000180069148     main.obj
 0002:0000d150       __real@41d0000180000000    0000000180069150     main.obj
 0002:0000d158       __real@41e0000000000000    0000000180069158     main.obj
 0002:0000efe0       _load_config_used          000000018006afe0     LIBCMT:loadcfg.obj
 0002:0000f0d0       ??_R1A@?0A@EA@exception@std@@8 000000018006b0d0     libcpmt:xthrow.obj
 0002:0000f0f8       ??_R3exception@std@@8      000000018006b0f8     libcpmt:xthrow.obj
 0002:0000f110       ??_R2exception@std@@8      000000018006b110     libcpmt:xthrow.obj
 0002:0000f120       ??_R4bad_alloc@std@@6B@    000000018006b120     libcpmt:xthrow.obj
 0002:0000f148       ??_R3bad_alloc@std@@8      000000018006b148     libcpmt:xthrow.obj
 0002:0000f160       ??_R2bad_alloc@std@@8      000000018006b160     libcpmt:xthrow.obj
 0002:0000f178       ??_R1A@?0A@EA@bad_alloc@std@@8 000000018006b178     libcpmt:xthrow.obj
 0002:0000f1a0       ??_R4logic_error@std@@6B@  000000018006b1a0     libcpmt:xthrow.obj
 0002:0000f1c8       ??_R3logic_error@std@@8    000000018006b1c8     libcpmt:xthrow.obj
 0002:0000f1e0       ??_R2logic_error@std@@8    000000018006b1e0     libcpmt:xthrow.obj
 0002:0000f1f8       ??_R1A@?0A@EA@logic_error@std@@8 000000018006b1f8     libcpmt:xthrow.obj
 0002:0000f220       ??_R4length_error@std@@6B@ 000000018006b220     libcpmt:xthrow.obj
 0002:0000f248       ??_R3length_error@std@@8   000000018006b248     libcpmt:xthrow.obj
 0002:0000f260       ??_R2length_error@std@@8   000000018006b260     libcpmt:xthrow.obj
 0002:0000f280       ??_R1A@?0A@EA@length_error@std@@8 000000018006b280     libcpmt:xthrow.obj
 0002:0000f2a8       ??_R4out_of_range@std@@6B@ 000000018006b2a8     libcpmt:xthrow.obj
 0002:0000f2d0       ??_R3out_of_range@std@@8   000000018006b2d0     libcpmt:xthrow.obj
 0002:0000f2e8       ??_R2out_of_range@std@@8   000000018006b2e8     libcpmt:xthrow.obj
 0002:0000f308       ??_R1A@?0A@EA@out_of_range@std@@8 000000018006b308     libcpmt:xthrow.obj
 0002:0000f330       ??_R4type_info@@6B@        000000018006b330     LIBCMT:typinfo.obj
 0002:0000f358       ??_R3type_info@@8          000000018006b358     LIBCMT:typinfo.obj
 0002:0000f370       ??_R2type_info@@8          000000018006b370     LIBCMT:typinfo.obj
 0002:0000f380       ??_R1A@?0A@EA@type_info@@8 000000018006b380     LIBCMT:typinfo.obj
 0002:0000f3a8       ??_R4exception@std@@6B@    000000018006b3a8     LIBCMT:stdexcpt.obj
 0002:0000f3d0       ??_R4bad_exception@std@@6B@ 000000018006b3d0     LIBCMT:frame.obj
 0002:0000f3f8       ??_R3bad_exception@std@@8  000000018006b3f8     LIBCMT:frame.obj
 0002:0000f410       ??_R2bad_exception@std@@8  000000018006b410     LIBCMT:frame.obj
 0002:0000f428       ??_R1A@?0A@EA@bad_exception@std@@8 000000018006b428     LIBCMT:frame.obj
 0002:0000f450       __rtc_iaa                  000000018006b450     LIBCMT:initsect.obj
 0002:0000f458       __rtc_izz                  000000018006b458     LIBCMT:initsect.obj
 0002:0000f460       __rtc_taa                  000000018006b460     LIBCMT:initsect.obj
 0002:0000f468       __rtc_tzz                  000000018006b468     LIBCMT:initsect.obj
 0002:0001cd08       _TI2?AVbad_alloc@std@@     0000000180078d08     libcpmt:xthrow.obj
 0002:0001cd28       _CTA2?AVbad_alloc@std@@    0000000180078d28     libcpmt:xthrow.obj
 0002:0001cd40       _CT??_R0?AVbad_alloc@std@@@8??0bad_alloc@std@@QEAA@AEBV01@@Z24 0000000180078d40     libcpmt:xthrow.obj
 0002:0001cd68       _CT??_R0?AVexception@std@@@8??0exception@std@@QEAA@AEBV01@@Z24 0000000180078d68     libcpmt:xthrow.obj
 0002:0001cd90       _CT??_R0?AVlogic_error@std@@@8??0logic_error@std@@QEAA@AEBV01@@Z24 0000000180078d90     libcpmt:xthrow.obj
 0002:0001cdb8       _TI3?AVlength_error@std@@  0000000180078db8     libcpmt:xthrow.obj
 0002:0001cdd8       _CTA3?AVlength_error@std@@ 0000000180078dd8     libcpmt:xthrow.obj
 0002:0001cdf8       _CT??_R0?AVlength_error@std@@@8??0length_error@std@@QEAA@AEBV01@@Z24 0000000180078df8     libcpmt:xthrow.obj
 0002:0001ce20       _TI3?AVout_of_range@std@@  0000000180078e20     libcpmt:xthrow.obj
 0002:0001ce40       _CTA3?AVout_of_range@std@@ 0000000180078e40     libcpmt:xthrow.obj
 0002:0001ce60       _CT??_R0?AVout_of_range@std@@@8??0out_of_range@std@@QEAA@AEBV01@@Z24 0000000180078e60     libcpmt:xthrow.obj
 0002:0001ce88       _TI2?AVbad_exception@std@@ 0000000180078e88     LIBCMT:frame.obj
 0002:0001cea8       _CTA2?AVbad_exception@std@@ 0000000180078ea8     LIBCMT:frame.obj
 0002:0001cec0       _CT??_R0?AVbad_exception@std@@@8??0bad_exception@std@@QEAA@AEBV01@@Z24 0000000180078ec0     LIBCMT:frame.obj
 0002:0001cee8       _CT??_R0?AV?$shared_ptr@VError@@@std@@@8??0?$shared_ptr@VError@@@std@@QEAA@AEBV01@@Z16 0000000180078ee8     template.obj
 0002:0001cf10       _CTA2?AV?$shared_ptr@VError@@@std@@ 0000000180078f10     template.obj
 0002:0001cf28       _TI2?AV?$shared_ptr@VError@@@std@@ 0000000180078f28     template.obj
 0002:0001cf48       _CT??_R0?AV?$_Ptr_base@VError@@@std@@@816 0000000180078f48     template.obj
 0002:0001cf6c       __DELAY_IMPORT_DESCRIPTOR_node_exe 0000000180078f6c     node:node.exe
 0002:0001cf8c       __NULL_DELAY_IMPORT_DESCRIPTOR 0000000180078f8c     node:node.exe
 0002:0001d230       \177node_NULL_THUNK_DATA_DLN 0000000180079230     node:node.exe
 0002:0001e7a0       \177node_NULL_THUNK_DATA_DLB 000000018007a7a0     node:node.exe
 0002:0001ea70       __IMPORT_DESCRIPTOR_KERNEL32 000000018007aa70     kernel32:KERNEL32.dll
 0002:0001ea84       __NULL_IMPORT_DESCRIPTOR   000000018007aa84     kernel32:KERNEL32.dll
 0003:00000070       _fltused                   000000018007c070     LIBCMT:fpinit.obj
 0003:00000074       _ldused                    000000018007c074     LIBCMT:fpinit.obj
 0003:00000078       __security_cookie          000000018007c078     LIBCMT:gs_cookie.obj
 0003:00000080       __security_cookie_complement 000000018007c080     LIBCMT:gs_cookie.obj
 0003:00000088       __isa_available            000000018007c088     LIBCMT:cpu_disp.obj
 0003:0000008c       __isa_enabled              000000018007c08c     LIBCMT:cpu_disp.obj
 0003:00000090       __abort_behavior           000000018007c090     LIBCMT:abort.obj
 0003:00000098       __nullstring               000000018007c098     LIBCMT:output.obj
 0003:000000a0       __wnullstring              000000018007c0a0     LIBCMT:output.obj
 0003:00000220       _iob                       000000018007c220     LIBCMT:_file.obj
 0003:000005e0       _mbctype                   000000018007c5e0     LIBCMT:mbctype.obj
 0003:000006f0       _mbcasemap                 000000018007c6f0     LIBCMT:mbctype.obj
 0003:000007f0       __initialmbcinfo           000000018007c7f0     LIBCMT:mbctype.obj
 0003:00000b10       __ptmbcinfo                000000018007cb10     LIBCMT:mbctype.obj
 0003:00000b18       __flsindex                 000000018007cb18     LIBCMT:tidtable.obj
 0003:00000b1c       __mb_cur_max               000000018007cb1c     LIBCMT:nlsdata.obj
 0003:00000b20       __wclocalestr              000000018007cb20     LIBCMT:nlsdata.obj
 0003:00000b30       __lc_time_c                000000018007cb30     LIBCMT:nlsdata.obj
 0003:00000df0       __ptlocinfo                000000018007cdf0     LIBCMT:nlsdata.obj
 0003:00000e00       __initiallocinfo           000000018007ce00     LIBCMT:nlsdata.obj
 0003:00000f58       __globallocalestatus       000000018007cf58     LIBCMT:glstatus.obj
 0003:00000f70       __badioinfo                000000018007cf70     LIBCMT:ioinit.obj
 0003:00000fd0       _cfltcvt_tab               000000018007cfd0     LIBCMT:cmiscdat.obj
 0003:00001430       _matherr_flag              000000018007d430     LIBCMT:matherr.obj
 0003:00001440       __lconv_c                  000000018007d440     LIBCMT:lconv.obj
 0003:000014d8       __lconv_static_decimal     000000018007d4d8     LIBCMT:lconv.obj
 0003:000014dc       __lconv_static_W_decimal   000000018007d4dc     LIBCMT:lconv.obj
 0003:000014e0       __lconv                    000000018007d4e0     LIBCMT:lconv.obj
 0003:000014e8       _pctype                    000000018007d4e8     LIBCMT:ctype.obj
 0003:000014f0       _pwctype                   000000018007d4f0     LIBCMT:ctype.obj
 0003:00001500       _d_inf                     000000018007d500     LIBCMT:util.obj
 0003:00001508       _d_ind                     000000018007d508     LIBCMT:util.obj
 0003:00001510       _d_max                     000000018007d510     LIBCMT:util.obj
 0003:00001518       _d_min                     000000018007d518     LIBCMT:util.obj
 0003:00001520       _d_mzero                   000000018007d520     LIBCMT:util.obj
 0003:00001558       _confh                     000000018007d558     LIBCMT:initcon.obj
 0003:00001560       _pow10pos                  000000018007d560     LIBCMT:constpow.obj
 0003:000016c0       _pow10neg                  000000018007d6c0     LIBCMT:constpow.obj
 0003:00001820       _HUGE                      000000018007d820     LIBCMT:huge.obj
 0003:00001870       __pfnDliNotifyHook2        000000018007d870     win_delay_load_hook.obj
 0003:00001878       ??_R0?AVbad_alloc@std@@@8  000000018007d878     libcpmt:xthrow.obj
 0003:000018a0       ??_R0?AVexception@std@@@8  000000018007d8a0     libcpmt:xthrow.obj
 0003:000018c8       ??_R0?AVlogic_error@std@@@8 000000018007d8c8     libcpmt:xthrow.obj
 0003:000018f0       ??_R0?AVlength_error@std@@@8 000000018007d8f0     libcpmt:xthrow.obj
 0003:00001918       ??_R0?AVout_of_range@std@@@8 000000018007d918     libcpmt:xthrow.obj
 0003:00001940       ??_R0?AVtype_info@@@8      000000018007d940     LIBCMT:typinfo.obj
 0003:00001960       ??_R0?AVbad_exception@std@@@8 000000018007d960     LIBCMT:frame.obj
 0003:00001988       ??_R0?AV?$_Ptr_base@VError@@@std@@@8 000000018007d988     template.obj
 0003:000019b8       ??_R0?AV?$shared_ptr@VError@@@std@@@8 000000018007d9b8     template.obj
 0003:000019e8       __imp_node_module_register 000000018007d9e8     node:node.exe
 0003:000019f0       __imp_??1HandleScope@v8@@QEAA@XZ 000000018007d9f0     node:node.exe
 0003:000019f8       __imp_??0HandleScope@v8@@QEAA@PEAVIsolate@1@@Z 000000018007d9f8     node:node.exe
 0003:00001a00       __imp_?GetCurrent@Isolate@v8@@SAPEAV12@XZ 000000018007da00     node:node.exe
 0003:00001a08       __imp_?ToLocalEmpty@V8@v8@@CAXXZ 000000018007da08     node:node.exe
 0003:00001a10       __imp_?NewFromUtf8@String@v8@@SA?AV?$MaybeLocal@VString@v8@@@2@PEAVIsolate@2@PEBDW4NewStringType@2@H@Z 000000018007da10     node:node.exe
 0003:00001a18       __imp_?New@Number@v8@@SA?AV?$Local@VNumber@v8@@@2@PEAVIsolate@2@N@Z 000000018007da18     node:node.exe
 0003:00001a20       __imp_?DefineOwnProperty@Object@v8@@QEAA?AV?$Maybe@_N@2@V?$Local@VContext@v8@@@2@V?$Local@VName@v8@@@2@V?$Local@VValue@v8@@@2@W4PropertyAttribute@2@@Z 000000018007da20     node:node.exe
 0003:00001a28       __imp_?GetCurrentContext@Isolate@v8@@QEAA?AV?$Local@VContext@v8@@@2@XZ 000000018007da28     node:node.exe
 0003:00001a30       __imp_?Length@Buffer@node@@YA_KV?$Local@VValue@v8@@@v8@@@Z 000000018007da30     node:node.exe
 0003:00001a38       __imp_?Data@Buffer@node@@YAPEADV?$Local@VValue@v8@@@v8@@@Z 000000018007da38     node:node.exe
 0003:00001a40       __imp_?HasInstance@Buffer@node@@YA_NV?$Local@VValue@v8@@@v8@@@Z 000000018007da40     node:node.exe
 0003:00001a48       __imp_?Copy@Buffer@node@@YA?AV?$MaybeLocal@VObject@v8@@@v8@@PEAVIsolate@4@PEBD_K@Z 000000018007da48     node:node.exe
 0003:00001a50       __imp_?Escape@EscapableHandleScope@v8@@AEAAPEAPEAVObject@internal@2@PEAPEAV342@@Z 000000018007da50     node:node.exe
 0003:00001a58       __imp_??0EscapableHandleScope@v8@@QEAA@PEAVIsolate@1@@Z 000000018007da58     node:node.exe
 0003:00001a60       __imp_?Uint32Value@Value@v8@@QEBAIXZ 000000018007da60     node:node.exe
 0003:00001a68       __imp_?ToNumber@Value@v8@@QEBA?AV?$MaybeLocal@VNumber@v8@@@2@V?$Local@VContext@v8@@@2@@Z 000000018007da68     node:node.exe
 0003:00001a70       __imp_?IsNumber@Value@v8@@QEBA_NXZ 000000018007da70     node:node.exe
 0003:00001a78       __imp_?IsBoolean@Value@v8@@QEBA_NXZ 000000018007da78     node:node.exe
 0003:00001a80       __imp_?IsObject@Value@v8@@QEBA_NXZ 000000018007da80     node:node.exe
 0003:00001a88       __imp_?IsArray@Value@v8@@QEBA_NXZ 000000018007da88     node:node.exe
 0003:00001a90       __imp_??1Utf8Value@String@v8@@QEAA@XZ 000000018007da90     node:node.exe
 0003:00001a98       __imp_??0Utf8Value@String@v8@@QEAA@V?$Local@VValue@v8@@@2@@Z 000000018007da98     node:node.exe
 0003:00001aa0       __imp_?New@Array@v8@@SA?AV?$Local@VArray@v8@@@2@PEAVIsolate@2@H@Z 000000018007daa0     node:node.exe
 0003:00001aa8       __imp_?Value@Boolean@v8@@QEBA_NXZ 000000018007daa8     node:node.exe
 0003:00001ab0       __imp_?New@Object@v8@@SA?AV?$Local@VObject@v8@@@2@PEAVIsolate@2@@Z 000000018007dab0     node:node.exe
 0003:00001ab8       __imp_?Get@Object@v8@@QEAA?AV?$Local@VValue@v8@@@2@V32@@Z 000000018007dab8     node:node.exe
 0003:00001ac0       __imp_?Get@Object@v8@@QEAA?AV?$Local@VValue@v8@@@2@I@Z 000000018007dac0     node:node.exe
 0003:00001ac8       __imp_?Set@Object@v8@@QEAA_NV?$Local@VValue@v8@@@2@0@Z 000000018007dac8     node:node.exe
 0003:00001ad0       __imp_?Set@Object@v8@@QEAA_NIV?$Local@VValue@v8@@@2@@Z 000000018007dad0     node:node.exe
 0003:00001ad8       __imp_?ToObject@Value@v8@@QEBA?AV?$Local@VObject@v8@@@2@XZ 000000018007dad8     node:node.exe
 0003:00001ae0       __imp_?ToBoolean@Value@v8@@QEBA?AV?$Local@VBoolean@v8@@@2@XZ 000000018007dae0     node:node.exe
 0003:00001ae8       __imp_??1EscapableHandleScope@v8@@QEAA@XZ 000000018007dae8     node:node.exe
 0003:00001af0       __imp_?HasInstance@Buffer@node@@YA_NV?$Local@VObject@v8@@@v8@@@Z 000000018007daf0     node:node.exe
 0003:00001af8       __imp_?Length@Buffer@node@@YA_KV?$Local@VObject@v8@@@v8@@@Z 000000018007daf8     node:node.exe
 0003:00001b00       __imp_?Data@Buffer@node@@YAPEADV?$Local@VObject@v8@@@v8@@@Z 000000018007db00     node:node.exe
 0003:00001b08       __imp_?New@Buffer@node@@YA?AV?$MaybeLocal@VObject@v8@@@v8@@PEAVIsolate@4@_K@Z 000000018007db08     node:node.exe
 0003:00001b10       __imp_?MakeCallback@node@@YA?AV?$Local@VValue@v8@@@v8@@PEAVIsolate@3@V?$Local@VObject@v8@@@3@V?$Local@VFunction@v8@@@3@HPEAV23@@Z 000000018007db10     node:node.exe
 0003:00001b18       __imp_?Global@Context@v8@@QEAA?AV?$Local@VObject@v8@@@2@XZ 000000018007db18     node:node.exe
 0003:00001b20       __imp_?CreateHandle@HandleScope@v8@@KAPEAPEAVObject@internal@2@PEAVIsolate@42@PEAV342@@Z 000000018007db20     node:node.exe
 0003:00001b28       __imp_?GetCurrentEventLoop@node@@YAPEAUuv_loop_s@@PEAVIsolate@v8@@@Z 000000018007db28     node:node.exe
 0003:00001b30       __imp_?New@Signature@v8@@SA?AV?$Local@VSignature@v8@@@2@PEAVIsolate@2@V?$Local@VFunctionTemplate@v8@@@2@@Z 000000018007db30     node:node.exe
 0003:00001b38       __imp_?FromJustIsNothing@V8@v8@@CAXXZ 000000018007db38     node:node.exe
 0003:00001b40       __imp_?ClearWeak@V8@v8@@CAPEAXPEAPEAVObject@internal@2@@Z 000000018007db40     node:node.exe
 0003:00001b48       __imp_?MakeWeak@V8@v8@@CAXPEAPEAVObject@internal@2@PEAXP6AXAEBV?$WeakCallbackInfo@X@2@@ZW4WeakCallbackType@2@@Z 000000018007db48     node:node.exe
 0003:00001b50       __imp_?DisposeGlobal@V8@v8@@CAXPEAPEAVObject@internal@2@@Z 000000018007db50     node:node.exe
 0003:00001b58       __imp_?GlobalizeReference@V8@v8@@CAPEAPEAVObject@internal@2@PEAVIsolate@42@PEAPEAV342@@Z 000000018007db58     node:node.exe
 0003:00001b60       __imp_?Uint32Value@Value@v8@@QEBA?AV?$Maybe@I@2@V?$Local@VContext@v8@@@2@@Z 000000018007db60     node:node.exe
 0003:00001b68       __imp_?ToInt32@Value@v8@@QEBA?AV?$MaybeLocal@VInt32@v8@@@2@V?$Local@VContext@v8@@@2@@Z 000000018007db68     node:node.exe
 0003:00001b70       __imp_?ToUint32@Value@v8@@QEBA?AV?$MaybeLocal@VUint32@v8@@@2@V?$Local@VContext@v8@@@2@@Z 000000018007db70     node:node.exe
 0003:00001b78       __imp_?IsFunction@Value@v8@@QEBA_NXZ 000000018007db78     node:node.exe
 0003:00001b80       __imp_?SetClassName@FunctionTemplate@v8@@QEAAXV?$Local@VString@v8@@@2@@Z 000000018007db80     node:node.exe
 0003:00001b88       __imp_?PrototypeTemplate@FunctionTemplate@v8@@QEAA?AV?$Local@VObjectTemplate@v8@@@2@XZ 000000018007db88     node:node.exe
 0003:00001b90       __imp_?InstanceTemplate@FunctionTemplate@v8@@QEAA?AV?$Local@VObjectTemplate@v8@@@2@XZ 000000018007db90     node:node.exe
 0003:00001b98       __imp_?GetFunction@FunctionTemplate@v8@@QEAA?AV?$Local@VFunction@v8@@@2@XZ 000000018007db98     node:node.exe
 0003:00001ba0       __imp_?GetFunction@FunctionTemplate@v8@@QEAA?AV?$MaybeLocal@VFunction@v8@@@2@V?$Local@VContext@v8@@@2@@Z 000000018007dba0     node:node.exe
 0003:00001ba8       __imp_?New@FunctionTemplate@v8@@SA?AV?$Local@VFunctionTemplate@v8@@@2@PEAVIsolate@2@P6AXAEBV?$FunctionCallbackInfo@VValue@v8@@@2@@ZV?$Local@VValue@v8@@@2@V?$Local@VSignature@v8@@@2@HW4ConstructorBehavior@2@@Z 000000018007dba8     node:node.exe
 0003:00001bb0       __imp_?Error@Exception@v8@@SA?AV?$Local@VValue@v8@@@2@V?$Local@VString@v8@@@2@@Z 000000018007dbb0     node:node.exe
 0003:00001bb8       __imp_?TypeError@Exception@v8@@SA?AV?$Local@VValue@v8@@@2@V?$Local@VString@v8@@@2@@Z 000000018007dbb8     node:node.exe
 0003:00001bc0       __imp_?Concat@String@v8@@SA?AV?$Local@VString@v8@@@2@V32@0@Z 000000018007dbc0     node:node.exe
 0003:00001bc8       __imp_?CreateHandle@HandleScope@v8@@CAPEAPEAVObject@internal@2@PEAVHeapObject@42@PEAV342@@Z 000000018007dbc8     node:node.exe
 0003:00001bd0       __imp_?SlowGetAlignedPointerFromInternalField@Object@v8@@AEAAPEAXH@Z 000000018007dbd0     node:node.exe
 0003:00001bd8       __imp_?SlowGetInternalField@Object@v8@@AEAA?AV?$Local@VValue@v8@@@2@H@Z 000000018007dbd8     node:node.exe
 0003:00001be0       __imp_?SetAlignedPointerInInternalField@Object@v8@@QEAAXHPEAX@Z 000000018007dbe0     node:node.exe
 0003:00001be8       __imp_?SetInternalField@Object@v8@@QEAAXHV?$Local@VValue@v8@@@2@@Z 000000018007dbe8     node:node.exe
 0003:00001bf0       __imp_?InternalFieldCount@Object@v8@@QEAAHXZ 000000018007dbf0     node:node.exe
 0003:00001bf8       __imp_?Has@Object@v8@@QEAA_NV?$Local@VValue@v8@@@2@@Z 000000018007dbf8     node:node.exe
 0003:00001c00       __imp_?Set@Template@v8@@QEAAXV?$Local@VName@v8@@@2@V?$Local@VData@v8@@@2@W4PropertyAttribute@2@@Z 000000018007dc00     node:node.exe
 0003:00001c08       __imp_?SetInternalFieldCount@ObjectTemplate@v8@@QEAAXH@Z 000000018007dc08     node:node.exe
 0003:00001c10       __imp_?SetAccessor@ObjectTemplate@v8@@QEAAXV?$Local@VName@v8@@@2@P6AX0AEBV?$PropertyCallbackInfo@VValue@v8@@@2@@ZP6AX0V?$Local@VValue@v8@@@2@AEBV?$PropertyCallbackInfo@X@2@@Z3W4AccessControl@2@W4PropertyAttribute@2@V?$Local@VAccessorSignature@v8@@@2@@Z 000000018007dc10     node:node.exe
 0003:00001c18       __imp_?NewInstance@ObjectTemplate@v8@@QEAA?AV?$MaybeLocal@VObject@v8@@@2@V?$Local@VContext@v8@@@2@@Z 000000018007dc18     node:node.exe
 0003:00001c20       __imp_?New@ObjectTemplate@v8@@SA?AV?$Local@VObjectTemplate@v8@@@2@PEAVIsolate@2@V?$Local@VFunctionTemplate@v8@@@2@@Z 000000018007dc20     node:node.exe
 0003:00001c28       __imp_?NewFromUnsigned@Integer@v8@@SA?AV?$Local@VInteger@v8@@@2@PEAVIsolate@2@I@Z 000000018007dc28     node:node.exe
 0003:00001c30       __imp_?New@Integer@v8@@SA?AV?$Local@VInteger@v8@@@2@PEAVIsolate@2@H@Z 000000018007dc30     node:node.exe
 0003:00001c38       __imp_?NewInstance@Function@v8@@QEBA?AV?$MaybeLocal@VObject@v8@@@2@V?$Local@VContext@v8@@@2@HQEAV?$Local@VValue@v8@@@2@@Z 000000018007dc38     node:node.exe
 0003:00001c40       __imp_?ThrowException@Isolate@v8@@QEAA?AV?$Local@VValue@v8@@@2@V32@@Z 000000018007dc40     node:node.exe
 0003:00001c48       __imp_?Value@External@v8@@QEBAPEAXXZ 000000018007dc48     node:node.exe
 0003:00001c50       __imp_?New@External@v8@@SA?AV?$Local@VExternal@v8@@@2@PEAVIsolate@2@PEAX@Z 000000018007dc50     node:node.exe
 0003:00001c58       __imp_uv_queue_work        000000018007dc58     node:node.exe
 0003:00001c60       __imp_?ToString@Value@v8@@QEBA?AV?$Local@VString@v8@@@2@XZ 000000018007dc60     node:node.exe
 0003:00001c68       \177node_NULL_THUNK_DATA_DLA 000000018007dc68     node:node.exe
 0003:00001c80       __hmod__node_exe           000000018007dc80     node:node.exe
 0003:00001c98       _aenvptr                   000000018007dc98     LIBCMT:dllcrt0.obj
 0003:00001ca0       _wenvptr                   000000018007dca0     LIBCMT:dllcrt0.obj
 0003:00001ca8       __fastflag                 000000018007dca8     LIBCMT:fpinit.obj
 0003:00002224       __favor                    000000018007e224     LIBCMT:cpu_disp.obj
 0003:00002228       _C_Exit_Done               000000018007e228     LIBCMT:crt0dat.obj
 0003:0000222c       __argc                     000000018007e22c     LIBCMT:crt0dat.obj
 0003:00002230       __argv                     000000018007e230     LIBCMT:crt0dat.obj
 0003:00002238       __wargv                    000000018007e238     LIBCMT:crt0dat.obj
 0003:00002240       _environ                   000000018007e240     LIBCMT:crt0dat.obj
 0003:00002248       _wenviron                  000000018007e248     LIBCMT:crt0dat.obj
 0003:00002250       _pgmptr                    000000018007e250     LIBCMT:crt0dat.obj
 0003:00002258       _wpgmptr                   000000018007e258     LIBCMT:crt0dat.obj
 0003:00002260       _umaskval                  000000018007e260     LIBCMT:crt0dat.obj
 0003:00002264       _exitflag                  000000018007e264     LIBCMT:crt0dat.obj
 0003:00002268       _C_Termination_Done        000000018007e268     LIBCMT:crt0dat.obj
 0003:00002270       __winitenv                 000000018007e270     LIBCMT:crt0dat.obj
 0003:00002278       __initenv                  000000018007e278     LIBCMT:crt0dat.obj
 0003:00002280       _maxwait                   000000018007e280     LIBCMT:crtheap.obj
 0003:00002288       __pPurecall                000000018007e288     LIBCMT:inithelp.obj
 0003:00002290       ?_pnhHeap@@3P6AH_K@ZEA     000000018007e290     LIBCMT:handler.obj
 0003:00002298       __pInvalidArgHandler       000000018007e298     LIBCMT:invarg.obj
 0003:000022a0       _crtheap                   000000018007e2a0     LIBCMT:heapinit.obj
 0003:000022b0       __app_type                 000000018007e2b0     LIBCMT:crt0msg.obj
 0003:000028e8       _newmode                   000000018007e8e8     LIBCMT:_newmode.obj
 0003:00002900       __error_mode               000000018007e900     LIBCMT:errmode.obj
 0003:00002904       _cflush                    000000018007e904     LIBCMT:_file.obj
 0003:00002958       __mbcodepage               000000018007e958     LIBCMT:mbctype.obj
 0003:0000295c       __ismbcodepage             000000018007e95c     LIBCMT:mbctype.obj
 0003:00002960       __mbulinfo                 000000018007e960     LIBCMT:mbctype.obj
 0003:00002970       __mblocalename             000000018007e970     LIBCMT:mbctype.obj
 0003:0000297c       __locale_changed           000000018007e97c     LIBCMT:wsetloca.obj
 0003:00002980       __pioinfo                  000000018007e980     LIBCMT:ioinit.obj
 0003:00002c88       ?g_OutOfMemoryExceptionCallback@@3P6APEAXXZEA 000000018007ec88     LIBCMT:frame.obj
 0003:00002c90       ?__pInconsistency@@3P6AXXZEA 000000018007ec90     LIBCMT:hooks.obj
 0003:00002ed8       _stdbuf                    000000018007eed8     LIBCMT:_sftbuf.obj
 0003:00002ef8       ?m_pGetParameter@UnDecorator@@0P6APEADJ@ZEA 000000018007eef8     LIBCMT:undname.obj
 0003:00002f00       ?pArgList@UnDecorator@@0PEAVReplicator@@EA 000000018007ef00     LIBCMT:undname.obj
 0003:00002f08       ?pZNameList@UnDecorator@@0PEAVReplicator@@EA 000000018007ef08     LIBCMT:undname.obj
 0003:00002f10       ?pTemplateArgList@UnDecorator@@0PEAVReplicator@@EA 000000018007ef10     LIBCMT:undname.obj
 0003:00002f18       ?gName@UnDecorator@@0PEBDEB 000000018007ef18     LIBCMT:undname.obj
 0003:00002f20       ?name@UnDecorator@@0PEBDEB 000000018007ef20     LIBCMT:undname.obj
 0003:00002f28       ?outputString@UnDecorator@@0PEADEA 000000018007ef28     LIBCMT:undname.obj
 0003:00002f30       ?maxStringLength@UnDecorator@@0HA 000000018007ef30     LIBCMT:undname.obj
 0003:00002f34       ?disableFlags@UnDecorator@@0KA 000000018007ef34     LIBCMT:undname.obj
 0003:00002f38       ?fExplicitTemplateParams@UnDecorator@@0_NA 000000018007ef38     LIBCMT:undname.obj
 0003:00002f39       ?fGetTemplateArgumentList@UnDecorator@@0_NA 000000018007ef39     LIBCMT:undname.obj
 0003:00002f68       __lconv_static_null        000000018007ef68     LIBCMT:lconv.obj
 0003:00002f6c       __lconv_static_W_null      000000018007ef6c     LIBCMT:lconv.obj
 0003:00002f70       _outputformat              000000018007ef70     LIBCMT:outputformat.obj
 0003:00002f78       __pfnDliFailureHook2       000000018007ef78     DelayImp:delayhk1.obj
 0003:00002fa0       ?id@?$num_put@_WV?$back_insert_iterator@V?$basic_string@_WU?$char_traits@_W@std@@V?$allocator@_W@2@@std@@@std@@@std@@2V0locale@2@A 000000018007efa0     main.obj
 0003:00002fa8       ?_System_object@?$_Error_objects@H@std@@2V_System_error_category@2@A 000000018007efa8     main.obj
 0003:00002fb0       ?id@?$numpunct@_W@std@@2V0locale@2@A 000000018007efb0     main.obj
 0003:00002fb8       ?id@?$num_put@DV?$back_insert_iterator@V?$basic_string@DU?$char_traits@D@std@@V?$allocator@D@2@@std@@@std@@@std@@2V0locale@2@A 000000018007efb8     main.obj
 0003:00002fc0       ?_Iostream_object@?$_Error_objects@H@std@@2V_Iostream_error_category@2@A 000000018007efc0     main.obj
 0003:00002fc8       ?_Generic_object@?$_Error_objects@H@std@@2V_Generic_error_category@2@A 000000018007efc8     main.obj
 0003:00002fd0       ?id@?$numpunct@D@std@@2V0locale@2@A 000000018007efd0     main.obj
 0003:00003020       ??_B?1??constructor@WPKCS11@@KAAEAV?$Persistent@VFunction@v8@@V?$NonCopyablePersistentTraits@VFunction@v8@@@2@@Nan@@XZ@51 000000018007f020     node.obj
 0003:00003028       ?my_constructor@?1??constructor@WPKCS11@@KAAEAV?$Persistent@VFunction@v8@@V?$NonCopyablePersistentTraits@VFunction@v8@@@2@@Nan@@XZ@4V34@A 000000018007f028     node.obj
 0003:00003030       _debugger_hook_dummy       000000018007f030     <common>
 0003:00003040       encodedKERNEL32Functions   000000018007f040     <common>
 0003:00003148       _nhandle                   000000018007f148     <common>
 0003:00003150       __piob                     000000018007f150     <common>
 0003:00003158       _nstream                   000000018007f158     <common>
 0003:00003160       _bufin                     000000018007f160     <common>
 0003:00004160       __dyn_tls_init_callback    0000000180080160     <common>
 0003:00004168       __onexitend                0000000180080168     <common>
 0003:00004170       __onexitbegin              0000000180080170     <common>
 0003:00004178       __mbctype_initialized      0000000180080178     <common>
 0003:0000417c       __env_initialized          000000018008017c     <common>
 0003:00004180       _acmdln                    0000000180080180     <common>

 entry point at        0001:0003ede8

 Static symbols

 0000:fff7a000       .debug$S                   0000000180000000     node:node.exe
 0000:fff7a000       .debug$S                   0000000180000000     node:node.exe
 0000:fff7a000       .debug$S                   0000000180000000     kernel32:KERNEL32.dll
 0000:fff7a000       .debug$S                   0000000180000000     node:node.exe
 0000:fff7a000       .debug$S                   0000000180000000     node:node.exe
 0000:fff7a000       .debug$S                   0000000180000000     node:node.exe
 0000:fff7a000       .debug$S                   0000000180000000     node:node.exe
 0000:fff7a000       .debug$S                   0000000180000000     node:node.exe
 0000:fff7a000       .debug$S                   0000000180000000     node:node.exe
 0000:fff7a000       .debug$S                   0000000180000000     node:node.exe
 0000:fff7a000       .debug$S                   0000000180000000     node:node.exe
 0000:fff7a000       .debug$S                   0000000180000000     node:node.exe
 0000:fff7a000       .debug$S                   0000000180000000     node:node.exe
 0000:fff7a000       .debug$S                   0000000180000000     node:node.exe
 0000:fff7a000       .debug$S                   0000000180000000     node:node.exe
 0000:fff7a000       .debug$S                   0000000180000000     node:node.exe
 0000:fff7a000       .debug$S                   0000000180000000     node:node.exe
 0000:fff7a000       .debug$S                   0000000180000000     node:node.exe
 0000:fff7a000       .debug$S                   0000000180000000     node:node.exe
 0000:fff7a000       .debug$S                   0000000180000000     node:node.exe
 0000:fff7a000       .debug$S                   0000000180000000     node:node.exe
 0000:fff7a000       .debug$S                   0000000180000000     node:node.exe
 0000:fff7a000       .debug$S                   0000000180000000     node:node.exe
 0000:fff7a000       .debug$S                   0000000180000000     node:node.exe
 0000:fff7a000       .debug$S                   0000000180000000     node:node.exe
 0000:fff7a000       .debug$S                   0000000180000000     node:node.exe
 0000:fff7a000       .debug$S                   0000000180000000     node:node.exe
 0000:fff7a000       .debug$S                   0000000180000000     node:node.exe
 0000:fff7a000       .debug$S                   0000000180000000     node:node.exe
 0000:fff7a000       .debug$S                   0000000180000000     node:node.exe
 0000:fff7a000       .debug$S                   0000000180000000     node:node.exe
 0000:fff7a000       .debug$S                   0000000180000000     node:node.exe
 0000:fff7a000       .debug$S                   0000000180000000     node:node.exe
 0000:fff7a000       .debug$S                   0000000180000000     node:node.exe
 0000:fff7a000       .debug$S                   0000000180000000     node:node.exe
 0000:fff7a000       .debug$S                   0000000180000000     node:node.exe
 0000:fff7a000       .debug$S                   0000000180000000     node:node.exe
 0000:fff7a000       .debug$S                   0000000180000000     kernel32:KERNEL32.dll
 0000:fff7a000       .debug$S                   0000000180000000     node:node.exe
 0000:fff7a000       .debug$S                   0000000180000000     node:node.exe
 0000:fff7a000       .debug$S                   0000000180000000     node:node.exe
 0000:fff7a000       .debug$S                   0000000180000000     node:node.exe
 0000:fff7a000       .debug$S                   0000000180000000     node:node.exe
 0000:fff7a000       .debug$S                   0000000180000000     node:node.exe
 0000:fff7a000       .debug$S                   0000000180000000     node:node.exe
 0000:fff7a000       .debug$S                   0000000180000000     node:node.exe
 0000:fff7a000       .debug$S                   0000000180000000     node:node.exe
 0000:fff7a000       .debug$S                   0000000180000000     node:node.exe
 0000:fff7a000       .debug$S                   0000000180000000     node:node.exe
 0000:fff7a000       .debug$S                   0000000180000000     node:node.exe
 0000:fff7a000       .debug$S                   0000000180000000     node:node.exe
 0000:fff7a000       .debug$S                   0000000180000000     node:node.exe
 0000:fff7a000       .debug$S                   0000000180000000     node:node.exe
 0000:fff7a000       .debug$S                   0000000180000000     node:node.exe
 0000:fff7a000       .debug$S                   0000000180000000     node:node.exe
 0000:fff7a000       .debug$S                   0000000180000000     node:node.exe
 0000:fff7a000       .debug$S                   0000000180000000     node:node.exe
 0000:fff7a000       .debug$S                   0000000180000000     node:node.exe
 0000:fff7a000       .debug$S                   0000000180000000     node:node.exe
 0000:fff7a000       .debug$S                   0000000180000000     node:node.exe
 0000:fff7a000       .debug$S                   0000000180000000     node:node.exe
 0000:fff7a000       .debug$S                   0000000180000000     node:node.exe
 0000:fff7a000       .debug$S                   0000000180000000     node:node.exe
 0000:fff7a000       .debug$S                   0000000180000000     node:node.exe
 0000:fff7a000       .debug$S                   0000000180000000     node:node.exe
 0000:fff7a000       .debug$S                   0000000180000000     node:node.exe
 0000:fff7a000       .debug$S                   0000000180000000     node:node.exe
 0000:fff7a000       .debug$S                   0000000180000000     node:node.exe
 0000:fff7a000       .debug$S                   0000000180000000     node:node.exe
 0000:fff7a000       .debug$S                   0000000180000000     node:node.exe
 0000:fff7a000       .debug$S                   0000000180000000     node:node.exe
 0000:fff7a000       .debug$S                   0000000180000000     node:node.exe
 0000:fff7a000       .debug$S                   0000000180000000     node:node.exe
 0000:fff7a000       .debug$S                   0000000180000000     node:node.exe
 0000:fff7a000       .debug$S                   0000000180000000     node:node.exe
 0000:fff7a000       .debug$S                   0000000180000000     node:node.exe
 0000:fff7a000       .debug$S                   0000000180000000     node:node.exe
 0000:fff7a000       .debug$S                   0000000180000000     node:node.exe
 0000:fff7a000       .debug$S                   0000000180000000     node:node.exe
 0000:fff7a000       .debug$S                   0000000180000000     node:node.exe
 0000:fff7a000       .debug$S                   0000000180000000     node:node.exe
 0000:fff7a000       .debug$S                   0000000180000000     node:node.exe
 0000:fff7a000       .debug$S                   0000000180000000     node:node.exe
 0000:fff7a000       .debug$S                   0000000180000000     node:node.exe
 0000:fff7a000       .debug$S                   0000000180000000     node:node.exe
 0000:fff7a000       .debug$S                   0000000180000000     node:node.exe
 0000:fff7a000       .debug$S                   0000000180000000     node:node.exe
 0000:fff7a000       .debug$S                   0000000180000000     node:node.exe
 0000:fff7a000       .debug$S                   0000000180000000     node:node.exe
 0000:fff7a000       .debug$S                   0000000180000000     node:node.exe
 0000:fff7a000       .debug$S                   0000000180000000     kernel32:KERNEL32.dll
 0000:fff7a000       .debug$S                   0000000180000000     kernel32:KERNEL32.dll
 0000:fff7a000       .debug$S                   0000000180000000     kernel32:KERNEL32.dll
 0000:fff7a000       .debug$S                   0000000180000000     kernel32:KERNEL32.dll
 0000:fff7a000       .debug$S                   0000000180000000     kernel32:KERNEL32.dll
 0000:fff7a000       .debug$S                   0000000180000000     kernel32:KERNEL32.dll
 0000:fff7a000       .debug$S                   0000000180000000     node:node.exe
 0000:fff7a000       .debug$S                   0000000180000000     node:node.exe
 0000:fff7a000       .debug$S                   0000000180000000     node:node.exe
 0000:fff7a000       .debug$S                   0000000180000000     node:node.exe
 0000:fff7a000       .debug$S                   0000000180000000     node:node.exe
 0000:fff7a000       .debug$S                   0000000180000000     node:node.exe
 0000:fff7a000       .debug$S                   0000000180000000     node:node.exe
 0000:fff7a000       .debug$S                   0000000180000000     kernel32:KERNEL32.dll
 0000:fff7a000       .debug$S                   0000000180000000     kernel32:KERNEL32.dll
 0000:fff7a000       .debug$S                   0000000180000000     kernel32:KERNEL32.dll
 0000:fff7a000       .debug$S                   0000000180000000     kernel32:KERNEL32.dll
 0000:fff7a000       .debug$S                   0000000180000000     kernel32:KERNEL32.dll
 0000:fff7a000       .debug$S                   0000000180000000     kernel32:KERNEL32.dll
 0000:fff7a000       .debug$S                   0000000180000000     kernel32:KERNEL32.dll
 0000:fff7a000       .debug$S                   0000000180000000     kernel32:KERNEL32.dll
 0000:fff7a000       .debug$S                   0000000180000000     kernel32:KERNEL32.dll
 0000:fff7a000       .debug$S                   0000000180000000     kernel32:KERNEL32.dll
 0000:fff7a000       .debug$S                   0000000180000000     kernel32:KERNEL32.dll
 0000:fff7a000       .debug$S                   0000000180000000     kernel32:KERNEL32.dll
 0000:fff7a000       .debug$S                   0000000180000000     kernel32:KERNEL32.dll
 0000:fff7a000       .debug$S                   0000000180000000     kernel32:KERNEL32.dll
 0000:fff7a000       .debug$S                   0000000180000000     kernel32:KERNEL32.dll
 0000:fff7a000       .debug$S                   0000000180000000     kernel32:KERNEL32.dll
 0000:fff7a000       .debug$S                   0000000180000000     kernel32:KERNEL32.dll
 0000:fff7a000       .debug$S                   0000000180000000     kernel32:KERNEL32.dll
 0000:fff7a000       .debug$S                   0000000180000000     kernel32:KERNEL32.dll
 0000:fff7a000       .debug$S                   0000000180000000     kernel32:KERNEL32.dll
 0000:fff7a000       .debug$S                   0000000180000000     kernel32:KERNEL32.dll
 0000:fff7a000       .debug$S                   0000000180000000     kernel32:KERNEL32.dll
 0000:fff7a000       .debug$S                   0000000180000000     kernel32:KERNEL32.dll
 0000:fff7a000       .debug$S                   0000000180000000     kernel32:KERNEL32.dll
 0000:fff7a000       .debug$S                   0000000180000000     kernel32:KERNEL32.dll
 0000:fff7a000       .debug$S                   0000000180000000     kernel32:KERNEL32.dll
 0000:fff7a000       .debug$S                   0000000180000000     kernel32:KERNEL32.dll
 0000:fff7a000       .debug$S                   0000000180000000     kernel32:KERNEL32.dll
 0000:fff7a000       .debug$S                   0000000180000000     kernel32:KERNEL32.dll
 0000:fff7a000       .debug$S                   0000000180000000     kernel32:KERNEL32.dll
 0000:fff7a000       .debug$S                   0000000180000000     kernel32:KERNEL32.dll
 0000:fff7a000       .debug$S                   0000000180000000     kernel32:KERNEL32.dll
 0000:fff7a000       .debug$S                   0000000180000000     kernel32:KERNEL32.dll
 0000:fff7a000       .debug$S                   0000000180000000     kernel32:KERNEL32.dll
 0000:fff7a000       .debug$S                   0000000180000000     kernel32:KERNEL32.dll
 0000:fff7a000       .debug$S                   0000000180000000     kernel32:KERNEL32.dll
 0000:fff7a000       .debug$S                   0000000180000000     kernel32:KERNEL32.dll
 0000:fff7a000       .debug$S                   0000000180000000     kernel32:KERNEL32.dll
 0000:fff7a000       .debug$S                   0000000180000000     kernel32:KERNEL32.dll
 0000:fff7a000       .debug$S                   0000000180000000     kernel32:KERNEL32.dll
 0000:fff7a000       .debug$S                   0000000180000000     kernel32:KERNEL32.dll
 0000:fff7a000       .debug$S                   0000000180000000     kernel32:KERNEL32.dll
 0000:fff7a000       .debug$S                   0000000180000000     kernel32:KERNEL32.dll
 0000:fff7a000       .debug$S                   0000000180000000     kernel32:KERNEL32.dll
 0000:fff7a000       .debug$S                   0000000180000000     kernel32:KERNEL32.dll
 0000:fff7a000       .debug$S                   0000000180000000     kernel32:KERNEL32.dll
 0000:fff7a000       .debug$S                   0000000180000000     kernel32:KERNEL32.dll
 0000:fff7a000       .debug$S                   0000000180000000     kernel32:KERNEL32.dll
 0000:fff7a000       .debug$S                   0000000180000000     kernel32:KERNEL32.dll
 0000:fff7a000       .debug$S                   0000000180000000     kernel32:KERNEL32.dll
 0000:fff7a000       .debug$S                   0000000180000000     kernel32:KERNEL32.dll
 0000:fff7a000       .debug$S                   0000000180000000     kernel32:KERNEL32.dll
 0000:fff7a000       .debug$S                   0000000180000000     kernel32:KERNEL32.dll
 0000:fff7a000       .debug$S                   0000000180000000     kernel32:KERNEL32.dll
 0000:fff7a000       .debug$S                   0000000180000000     kernel32:KERNEL32.dll
 0000:fff7a000       .debug$S                   0000000180000000     kernel32:KERNEL32.dll
 0000:fff7a000       .debug$S                   0000000180000000     kernel32:KERNEL32.dll
 0000:fff7a000       .debug$S                   0000000180000000     kernel32:KERNEL32.dll
 0000:fff7a000       .debug$S                   0000000180000000     kernel32:KERNEL32.dll
 0000:fff7a000       .debug$S                   0000000180000000     kernel32:KERNEL32.dll
 0000:fff7a000       .debug$S                   0000000180000000     kernel32:KERNEL32.dll
 0000:fff7a000       .debug$S                   0000000180000000     kernel32:KERNEL32.dll
 0000:fff7a000       .debug$S                   0000000180000000     kernel32:KERNEL32.dll
 0000:fff7a000       .debug$S                   0000000180000000     kernel32:KERNEL32.dll
 0000:fff7a000       .debug$S                   0000000180000000     kernel32:KERNEL32.dll
 0000:fff7a000       .debug$S                   0000000180000000     kernel32:KERNEL32.dll
 0000:fff7a000       .debug$S                   0000000180000000     kernel32:KERNEL32.dll
 0000:fff7a000       .debug$S                   0000000180000000     kernel32:KERNEL32.dll
 0000:fff7a000       .debug$S                   0000000180000000     kernel32:KERNEL32.dll
 0000:fff7a000       .debug$S                   0000000180000000     kernel32:KERNEL32.dll
 0000:fff7a000       .debug$S                   0000000180000000     kernel32:KERNEL32.dll
 0000:fff7a000       .debug$S                   0000000180000000     kernel32:KERNEL32.dll
 0000:fff7a000       .debug$S                   0000000180000000     kernel32:KERNEL32.dll
 0000:fff7a000       .debug$S                   0000000180000000     kernel32:KERNEL32.dll
 0000:fff7a000       .debug$S                   0000000180000000     kernel32:KERNEL32.dll
 0000:fff7a000       .debug$S                   0000000180000000     kernel32:KERNEL32.dll
 0001:000000c0       _register_pkcs11           00000001800010c0 f   * CIL library *:* CIL module *
 0001:00000650       UTF8toWCHAR                0000000180001650 f   * CIL library *:* CIL module *
 0001:00010b10       ?attr_set_value@@YAXPEAUCK_ATTRIBUTE@@PEBDI@Z 0000000180011b10 f   * CIL library *:* CIL module *
 0001:00010b70       ?v2c_ATTRIBUTE@@YA?AV?$shared_ptr@UCK_ATTRIBUTE@@@std@@V?$Local@VValue@v8@@@v8@@@Z 0000000180011b70 f   * CIL library *:* CIL module *
 0001:00011210       ?c2v_ATTRIBUTE@@YA?AV?$Local@VObject@v8@@@v8@@PEAUCK_ATTRIBUTE@@@Z 0000000180012210 f   * CIL library *:* CIL module *
 0001:00012894       $LN1024                    0000000180013894     * CIL library *:* CIL module *
 0001:00016cd0       ?get_pkcs11_error@@YA?AV?$shared_ptr@V?$basic_string@DU?$char_traits@D@std@@V?$allocator@D@2@@std@@@std@@K@Z 0000000180017cd0 f   * CIL library *:* CIL module *
 0001:0001acc0       $LN3025                    000000018001bcc0     * CIL library *:* CIL module *
 0001:0001adbc       $LN3024                    000000018001bdbc     * CIL library *:* CIL module *
 0001:0001aeb0       $LN3023                    000000018001beb0     * CIL library *:* CIL module *
 0001:0001aef0       $LN3022                    000000018001bef0     * CIL library *:* CIL module *
 0001:0001af50       $LN3021                    000000018001bf50     * CIL library *:* CIL module *
 0001:0001af70       $LN3020                    000000018001bf70     * CIL library *:* CIL module *
 0001:0001e220       ?crypto_init@@YAXP6AKKPEAUCK_MECHANISM@@K@ZKV?$shared_ptr@VMechanism@@@std@@K@Z 000000018001f220 f   * CIL library *:* CIL module *
 0001:0001e3a0       ?crypto_update@@YA?AV?$shared_ptr@V?$basic_string@DU?$char_traits@D@std@@V?$allocator@D@2@@std@@@std@@P6AKKPEAEK0PEAK@ZKV12@3@Z 000000018001f3a0 f   * CIL library *:* CIL module *
 0001:0001e610       ?crypto_update@@YAXP6AKKPEAEK@ZKV?$shared_ptr@V?$basic_string@DU?$char_traits@D@std@@V?$allocator@D@2@@std@@@std@@@Z 000000018001f610 f   * CIL library *:* CIL module *
 0001:0001e7a0       ?crypto_final@@YA?AV?$shared_ptr@V?$basic_string@DU?$char_traits@D@std@@V?$allocator@D@2@@std@@@std@@P6AKKPEAEPEAK@ZKV12@@Z 000000018001f7a0 f   * CIL library *:* CIL module *
 0001:00021c30       ?handle_to_v8@@YA?AV?$Local@VObject@v8@@@v8@@K@Z 0000000180022c30 f   * CIL library *:* CIL module *
 0001:00021c30       ?handle_to_v8@@YA?AV?$Local@VObject@v8@@@v8@@K@Z 0000000180022c30 f   * CIL library *:* CIL module *
 0001:00022c80       ?FunctionCallbackWrapper@imp@Nan@@YAXAEBV?$FunctionCallbackInfo@VValue@v8@@@v8@@@Z 0000000180023c80 f   * CIL library *:* CIL module *
 0001:00022d50       ?GetterCallbackWrapper@imp@Nan@@YAXV?$Local@VName@v8@@@v8@@AEBV?$PropertyCallbackInfo@VValue@v8@@@4@@Z 0000000180023d50 f   * CIL library *:* CIL module *
 0001:000249e0       ?buffer_to_string@@YA?AV?$shared_ptr@V?$basic_string@DU?$char_traits@D@std@@V?$allocator@D@2@@std@@@std@@V?$Local@VValue@v8@@@v8@@@Z 00000001800259e0 f   * CIL library *:* CIL module *
 0001:00024af0       ?v8_to_handle@@YAKV?$Local@VValue@v8@@@v8@@@Z 0000000180025af0 f   * CIL library *:* CIL module *
 0001:00024c30       ?get_string@@YA?AV?$shared_ptr@V?$basic_string@DU?$char_traits@D@std@@V?$allocator@D@2@@std@@@std@@V?$Local@VValue@v8@@@v8@@PEBD@Z 0000000180025c30 f   * CIL library *:* CIL module *
 0001:00024e60       ?GetVersion@@YA?AV?$Local@VObject@v8@@@v8@@AEAUCK_VERSION@@@Z 0000000180025e60 f   * CIL library *:* CIL module *
 0001:0003d040       ?load_exe_hook@@YAP6A_JXZIPEAUDelayLoadInfo@@@Z 000000018003e040 f   * CIL library *:* CIL module *
 0001:0003d6a0       $$000000                   000000018003e6a0     LIBCMT:amdsecgs.obj
 0001:0003d6d0       $$000000                   000000018003e6d0     LIBCMT:memcpy.obj
 0001:0003d7c0       MoveSmall                  000000018003e7c0     LIBCMT:memcpy.obj
 0001:0003ea7c       swprintf                   000000018003fa7c f   LIBCMT:wassert.obj
 0001:0003ee28       __DllMainCRTStartup        000000018003fe28 f   LIBCMT:dllcrt0.obj
 0001:0003ef50       $$000000                   000000018003ff50     LIBCMT:strlen.obj
 0001:0003ff00       _initterm                  0000000180040f00 f   LIBCMT:crt0dat.obj
 0001:0003ffb4       doexit                     0000000180040fb4 f   LIBCMT:crt0dat.obj
 0001:00041540       $$000000                   0000000180042540     LIBCMT:memset.obj
 0001:000416e5       MsetTab                    00000001800426e5     LIBCMT:memset.obj
 0001:00041a90       $$000000                   0000000180042a90     LIBCMT:strcmp.obj
 0001:00041e5c       xtow_s                     0000000180042e5c f   LIBCMT:xtows.obj
 0001:00042260       flsall                     0000000180043260 f   LIBCMT:fflush.obj
 0001:00042f70       ?getSystemCP@@YAHH@Z       0000000180043f70 f   LIBCMT:mbctype.obj
 0001:00042ff0       ?setSBCS@@YAXPEAUthreadmbcinfostruct@@@Z 0000000180043ff0 f   LIBCMT:mbctype.obj
 0001:00043080       ?setSBUpLow@@YAXPEAUthreadmbcinfostruct@@@Z 0000000180044080 f   LIBCMT:mbctype.obj
 0001:000443c8       parse_cmdline              00000001800453c8 f   LIBCMT:stdargv.obj
 0001:00044fcc       ?CatchIt@@YAXPEAUEHExceptionRecord@@PEA_KPEAU_CONTEXT@@PEAU_xDISPATCHER_CONTEXT@@PEBU_s_FuncInfo@@PEBU_s_HandlerType@@PEBU_s_CatchableType@@PEBU_s_TryBlockMapEntry@@H1EE@Z 0000000180045fcc f   LIBCMT:frame.obj
 0001:00045090       ?FindHandler@@YAXPEAUEHExceptionRecord@@PEA_KPEAU_CONTEXT@@PEAU_xDISPATCHER_CONTEXT@@PEBU_s_FuncInfo@@EH1@Z 0000000180046090 f   LIBCMT:frame.obj
 0001:00045544       ?FindHandlerForForeignException@@YAXPEAUEHExceptionRecord@@PEA_KPEAU_CONTEXT@@PEAU_xDISPATCHER_CONTEXT@@PEBU_s_FuncInfo@@HH1@Z 0000000180046544 f   LIBCMT:frame.obj
 0001:000457ac       ?IsInExceptionSpec@@YAEPEAUEHExceptionRecord@@PEBU_s_ESTypeList@@@Z 00000001800467ac f   LIBCMT:frame.obj
 0001:000468d4       _cftoe2_l                  00000001800478d4 f   LIBCMT:cvt.obj
 0001:00046bc8       _cftof2_l                  0000000180047bc8 f   LIBCMT:cvt.obj
 0001:000475f0       $$000000                   00000001800485f0     LIBCMT:jmpuwind.obj
 0001:00047810       $$000000                   0000000180048810     LIBCMT:fpsr.obj
 0001:00048dc8       write_char                 0000000180049dc8 f   LIBCMT:outputs.obj
 0001:00048dc8       write_char                 0000000180049dc8 f   LIBCMT:outputs.obj
 0001:00048e10       write_multi_char           0000000180049e10 f   LIBCMT:outputs.obj
 0001:00048e10       write_multi_char           0000000180049e10 f   LIBCMT:outputs.obj
 0001:00048e64       write_string               0000000180049e64 f   LIBCMT:outputs.obj
 0001:00048e64       write_string               0000000180049e64 f   LIBCMT:outputs.obj
 0001:00049e58       write_char                 000000018004ae58 f   LIBCMT:woutput.obj
 0001:00049e90       write_multi_char           000000018004ae90 f   LIBCMT:woutput.obj
 0001:00049ee4       write_string               000000018004aee4 f   LIBCMT:woutput.obj
 0001:0004a4f4       ?__crtLCMapStringA_stat@@YAHPEAUlocaleinfo_struct@@PEB_WKPEBDHPEADHHH@Z 000000018004b4f4 f   LIBCMT:a_map.obj
 0001:0004a878       ?__crtGetStringTypeA_stat@@YAHPEAUlocaleinfo_struct@@KPEBDHPEAGHH@Z 000000018004b878 f   LIBCMT:a_str.obj
 0001:0004ab50       $$000000                   000000018004bb50     LIBCMT:memcmp.obj
 0001:0004ac28       ?x_ismbbtype_l@@YAHPEAUlocaleinfo_struct@@IHH@Z 000000018004bc28 f   LIBCMT:ismbbyte.obj
 0001:0004acd0       $$000000                   000000018004bcd0     LIBCMT:handlers.obj
 0001:0004b2f0       $$000000                   000000018004c2f0     LIBCMT:chkstk.obj
 0001:0004e140       ?dtor$0@?0??init@@YAXV?$Local@VObject@v8@@@v8@@@Z@4HA 000000018004f140 f   * CIL library *:* CIL module *
 0001:0004e140       ?dtor$0@?0??ThrowTypeError@Nan@@YAXV?$Local@VString@v8@@@v8@@@Z@4HA 000000018004f140 f   * CIL library *:* CIL module *
 0001:0004e150       ?dtor$0@?0??DefineOwnProperty@Nan@@YA?AV?$Maybe@_N@v8@@V?$Local@VObject@v8@@@3@V?$Local@VString@v8@@@3@V?$Local@VValue@v8@@@3@W4PropertyAttribute@3@@Z@4HA 000000018004f150 f   * CIL library *:* CIL module *
 0001:0004e160       ?dtor$0@?0??ToString@Error@@QEAA?AV?$shared_ptr@V?$basic_string@DU?$char_traits@D@std@@V?$allocator@D@2@@std@@@std@@XZ@4HA 000000018004f160 f   * CIL library *:* CIL module *
 0001:0004e16c       ?dtor$1@?0??ToString@Error@@QEAA?AV?$shared_ptr@V?$basic_string@DU?$char_traits@D@std@@V?$allocator@D@2@@std@@@std@@XZ@4HA 000000018004f16c f   * CIL library *:* CIL module *
 0001:0004e192       ?dtor$2@?0??ToString@Error@@QEAA?AV?$shared_ptr@V?$basic_string@DU?$char_traits@D@std@@V?$allocator@D@2@@std@@@std@@XZ@4HA 000000018004f192 f   * CIL library *:* CIL module *
 0001:0004e1a0       ?dtor$0@?0??Stack@Error@@IEAA?AV?$shared_ptr@V?$basic_string@DU?$char_traits@D@std@@V?$allocator@D@2@@std@@@std@@XZ@4HA 000000018004f1a0 f   * CIL library *:* CIL module *
 0001:0004e1ac       ?dtor$1@?0??Stack@Error@@IEAA?AV?$shared_ptr@V?$basic_string@DU?$char_traits@D@std@@V?$allocator@D@2@@std@@@std@@XZ@4HA 000000018004f1ac f   * CIL library *:* CIL module *
 0001:0004e1d2       ?dtor$2@?0??Stack@Error@@IEAA?AV?$shared_ptr@V?$basic_string@DU?$char_traits@D@std@@V?$allocator@D@2@@std@@@std@@XZ@4HA 000000018004f1d2 f   * CIL library *:* CIL module *
 0001:0004e1de       ?dtor$3@?0??Stack@Error@@IEAA?AV?$shared_ptr@V?$basic_string@DU?$char_traits@D@std@@V?$allocator@D@2@@std@@@std@@XZ@4HA 000000018004f1de f   * CIL library *:* CIL module *
 0001:0004e1ea       ?dtor$4@?0??Stack@Error@@IEAA?AV?$shared_ptr@V?$basic_string@DU?$char_traits@D@std@@V?$allocator@D@2@@std@@@std@@XZ@4HA 000000018004f1ea f   * CIL library *:* CIL module *
 0001:0004e1f6       ?dtor$5@?0??Stack@Error@@IEAA?AV?$shared_ptr@V?$basic_string@DU?$char_traits@D@std@@V?$allocator@D@2@@std@@@std@@XZ@4HA 000000018004f1f6 f   * CIL library *:* CIL module *
 0001:0004e202       ?dtor$6@?0??Stack@Error@@IEAA?AV?$shared_ptr@V?$basic_string@DU?$char_traits@D@std@@V?$allocator@D@2@@std@@@std@@XZ@4HA 000000018004f202 f   * CIL library *:* CIL module *
 0001:0004e210       ?dtor$0@?0??convert@?$ToFactory@VInt32@v8@@@imp@Nan@@SA?AV?$MaybeLocal@VInt32@v8@@@v8@@V?$Local@VValue@v8@@@5@@Z@4HA 000000018004f210 f   * CIL library *:* CIL module *
 0001:0004e210       ?dtor$0@?0??convert@?$ToFactory@VNumber@v8@@@imp@Nan@@SA?AV?$MaybeLocal@VNumber@v8@@@v8@@V?$Local@VValue@v8@@@5@@Z@4HA 000000018004f210 f   * CIL library *:* CIL module *
 0001:0004e210       ?dtor$0@?0??GetFunction@Nan@@YA?AV?$MaybeLocal@VFunction@v8@@@v8@@V?$Local@VFunctionTemplate@v8@@@3@@Z@4HA 000000018004f210 f   * CIL library *:* CIL module *
 0001:0004e210       ?dtor$0@?0??convert@?$ToFactory@VUint32@v8@@@imp@Nan@@SA?AV?$MaybeLocal@VUint32@v8@@@v8@@V?$Local@VValue@v8@@@5@@Z@4HA 000000018004f210 f   * CIL library *:* CIL module *
 0001:0004e210       ?dtor$0@?0??NewInstance@Nan@@YA?AV?$MaybeLocal@VObject@v8@@@v8@@V?$Local@VObjectTemplate@v8@@@3@@Z@4HA 000000018004f210 f   * CIL library *:* CIL module *
 0001:0004e220       ?dtor$0@?0???0Error@@QEAA@PEBDV?$shared_ptr@VError@@@std@@0H@Z@4HA 000000018004f220 f   * CIL library *:* CIL module *
 0001:0004e22c       ?dtor$1@?0???0Error@@QEAA@PEBDV?$shared_ptr@VError@@@std@@0H@Z@4HA 000000018004f22c f   * CIL library *:* CIL module *
 0001:0004e238       ?dtor$2@?0???0Error@@QEAA@PEBDV?$shared_ptr@VError@@@std@@0H@Z@4HA 000000018004f238 f   * CIL library *:* CIL module *
 0001:0004e244       ?dtor$3@?0???0Error@@QEAA@PEBDV?$shared_ptr@VError@@@std@@0H@Z@4HA 000000018004f244 f   * CIL library *:* CIL module *
 0001:0004e254       ?dtor$4@?0???0Error@@QEAA@PEBDV?$shared_ptr@VError@@@std@@0H@Z@4HA 000000018004f254 f   * CIL library *:* CIL module *
 0001:0004e260       ?dtor$0@?0??v2c_ATTRIBUTE@@YA?AV?$shared_ptr@UCK_ATTRIBUTE@@@std@@V?$Local@VValue@v8@@@v8@@@Z@4HA 000000018004f260 f   * CIL library *:* CIL module *
 0001:0004e26c       ?dtor$2@?0??v2c_ATTRIBUTE@@YA?AV?$shared_ptr@UCK_ATTRIBUTE@@@std@@V?$Local@VValue@v8@@@v8@@@Z@4HA 000000018004f26c f   * CIL library *:* CIL module *
 0001:0004e278       ?dtor$4@?0??v2c_ATTRIBUTE@@YA?AV?$shared_ptr@UCK_ATTRIBUTE@@@std@@V?$Local@VValue@v8@@@v8@@@Z@4HA 000000018004f278 f   * CIL library *:* CIL module *
 0001:0004e284       ?dtor$6@?0??v2c_ATTRIBUTE@@YA?AV?$shared_ptr@UCK_ATTRIBUTE@@@std@@V?$Local@VValue@v8@@@v8@@@Z@4HA 000000018004f284 f   * CIL library *:* CIL module *
 0001:0004e290       ?dtor$7@?0??v2c_ATTRIBUTE@@YA?AV?$shared_ptr@UCK_ATTRIBUTE@@@std@@V?$Local@VValue@v8@@@v8@@@Z@4HA 000000018004f290 f   * CIL library *:* CIL module *
 0001:0004e29e       ?catch$0@?0??v2c_ATTRIBUTE@@YA?AV?$shared_ptr@UCK_ATTRIBUTE@@@std@@V?$Local@VValue@v8@@@v8@@@Z@4HA 000000018004f29e f   * CIL library *:* CIL module *
 0001:0004e2ac       __catch$?v2c_ATTRIBUTE@@YA?AV?$shared_ptr@UCK_ATTRIBUTE@@@std@@V?$Local@VValue@v8@@@v8@@@Z$0 000000018004f2ac f   * CIL library *:* CIL module *
 0001:0004e320       ?dtor$9@?0??v2c_ATTRIBUTE@@YA?AV?$shared_ptr@UCK_ATTRIBUTE@@@std@@V?$Local@VValue@v8@@@v8@@@Z@4HA 000000018004f320 f   * CIL library *:* CIL module *
 0001:0004e32c       ?catch$1@?0??v2c_ATTRIBUTE@@YA?AV?$shared_ptr@UCK_ATTRIBUTE@@@std@@V?$Local@VValue@v8@@@v8@@@Z@4HA 000000018004f32c f   * CIL library *:* CIL module *
 0001:0004e33c       __catch$?v2c_ATTRIBUTE@@YA?AV?$shared_ptr@UCK_ATTRIBUTE@@@std@@V?$Local@VValue@v8@@@v8@@@Z$1 000000018004f33c f   * CIL library *:* CIL module *
 0001:0004e411       ?dtor$10@?0??v2c_ATTRIBUTE@@YA?AV?$shared_ptr@UCK_ATTRIBUTE@@@std@@V?$Local@VValue@v8@@@v8@@@Z@4HA 000000018004f411 f   * CIL library *:* CIL module *
 0001:0004e420       ?dtor$1@?0??c2v_ATTRIBUTE@@YA?AV?$Local@VObject@v8@@@v8@@PEAUCK_ATTRIBUTE@@@Z@4HA 000000018004f420 f   * CIL library *:* CIL module *
 0001:0004e42c       ?catch$0@?0??c2v_ATTRIBUTE@@YA?AV?$Local@VObject@v8@@@v8@@PEAUCK_ATTRIBUTE@@@Z@4HA 000000018004f42c f   * CIL library *:* CIL module *
 0001:0004e43a       __catch$?c2v_ATTRIBUTE@@YA?AV?$Local@VObject@v8@@@v8@@PEAUCK_ATTRIBUTE@@@Z$0 000000018004f43a f   * CIL library *:* CIL module *
 0001:0004e496       ?dtor$3@?0??c2v_ATTRIBUTE@@YA?AV?$Local@VObject@v8@@@v8@@PEAUCK_ATTRIBUTE@@@Z@4HA 000000018004f496 f   * CIL library *:* CIL module *
 0001:0004e4a2       ?catch$1@?0??c2v_ATTRIBUTE@@YA?AV?$Local@VObject@v8@@@v8@@PEAUCK_ATTRIBUTE@@@Z@4HA 000000018004f4a2 f   * CIL library *:* CIL module *
 0001:0004e4b2       __catch$?c2v_ATTRIBUTE@@YA?AV?$Local@VObject@v8@@@v8@@PEAUCK_ATTRIBUTE@@@Z$1 000000018004f4b2 f   * CIL library *:* CIL module *
 0001:0004e578       ?dtor$4@?0??c2v_ATTRIBUTE@@YA?AV?$Local@VObject@v8@@@v8@@PEAUCK_ATTRIBUTE@@@Z@4HA 000000018004f578 f   * CIL library *:* CIL module *
 0001:0004e590       ?dtor$0@?0??Push@Attributes@@QEAAXPEAUCK_ATTRIBUTE@@@Z@4HA 000000018004f590 f   * CIL library *:* CIL module *
 0001:0004e59c       ?catch$1@?0??Push@Attributes@@QEAAXPEAUCK_ATTRIBUTE@@@Z@4HA 000000018004f59c f   * CIL library *:* CIL module *
 0001:0004e5aa       __catch$?Push@Attributes@@QEAAXPEAUCK_ATTRIBUTE@@@Z$0 000000018004f5aa f   * CIL library *:* CIL module *
 0001:0004e606       ?dtor$2@?0??Push@Attributes@@QEAAXPEAUCK_ATTRIBUTE@@@Z@4HA 000000018004f606 f   * CIL library *:* CIL module *
 0001:0004e612       ?catch$0@?0??Push@Attributes@@QEAAXPEAUCK_ATTRIBUTE@@@Z@4HA 000000018004f612 f   * CIL library *:* CIL module *
 0001:0004e622       __catch$?Push@Attributes@@QEAAXPEAUCK_ATTRIBUTE@@@Z$1 000000018004f622 f   * CIL library *:* CIL module *
 0001:0004e6e8       ?dtor$3@?0??Push@Attributes@@QEAAXPEAUCK_ATTRIBUTE@@@Z@4HA 000000018004f6e8 f   * CIL library *:* CIL module *
 0001:0004e700       ?dtor$1@?0??FromV8@Attributes@@UEAAXV?$Local@VValue@v8@@@v8@@@Z@4HA 000000018004f700 f   * CIL library *:* CIL module *
 0001:0004e70c       ?dtor$3@?0??FromV8@Attributes@@UEAAXV?$Local@VValue@v8@@@v8@@@Z@4HA 000000018004f70c f   * CIL library *:* CIL module *
 0001:0004e718       ?catch$0@?0??FromV8@Attributes@@UEAAXV?$Local@VValue@v8@@@v8@@@Z@4HA 000000018004f718 f   * CIL library *:* CIL module *
 0001:0004e726       __catch$?FromV8@Attributes@@UEAAXV?$Local@VValue@v8@@@v8@@@Z$0 000000018004f726 f   * CIL library *:* CIL module *
 0001:0004e782       ?dtor$4@?0??FromV8@Attributes@@UEAAXV?$Local@VValue@v8@@@v8@@@Z@4HA 000000018004f782 f   * CIL library *:* CIL module *
 0001:0004e78e       ?catch$1@?0??FromV8@Attributes@@UEAAXV?$Local@VValue@v8@@@v8@@@Z@4HA 000000018004f78e f   * CIL library *:* CIL module *
 0001:0004e79e       __catch$?FromV8@Attributes@@UEAAXV?$Local@VValue@v8@@@v8@@@Z$1 000000018004f79e f   * CIL library *:* CIL module *
 0001:0004e864       ?dtor$5@?0??FromV8@Attributes@@UEAAXV?$Local@VValue@v8@@@v8@@@Z@4HA 000000018004f864 f   * CIL library *:* CIL module *
 0001:0004e870       ?catch$0@?0??ToV8@Attributes@@UEAA?AV?$Local@VObject@v8@@@v8@@XZ@4HA 000000018004f870 f   * CIL library *:* CIL module *
 0001:0004e87e       __catch$?ToV8@Attributes@@UEAA?AV?$Local@VObject@v8@@@v8@@XZ$0 000000018004f87e f   * CIL library *:* CIL module *
 0001:0004e8da       ?dtor$1@?0??ToV8@Attributes@@UEAA?AV?$Local@VObject@v8@@@v8@@XZ@4HA 000000018004f8da f   * CIL library *:* CIL module *
 0001:0004e8e6       ?catch$1@?0??ToV8@Attributes@@UEAA?AV?$Local@VObject@v8@@@v8@@XZ@4HA 000000018004f8e6 f   * CIL library *:* CIL module *
 0001:0004e8f6       __catch$?ToV8@Attributes@@UEAA?AV?$Local@VObject@v8@@@v8@@XZ$1 000000018004f8f6 f   * CIL library *:* CIL module *
 0001:0004e9b3       ?dtor$2@?0??ToV8@Attributes@@UEAA?AV?$Local@VObject@v8@@@v8@@XZ@4HA 000000018004f9b3 f   * CIL library *:* CIL module *
 0001:0004e9c0       ?dtor$1@?0??FromV8@Mechanism@@UEAAXV?$Local@VValue@v8@@@v8@@@Z@4HA 000000018004f9c0 f   * CIL library *:* CIL module *
 0001:0004e9cc       ?dtor$3@?0??FromV8@Mechanism@@UEAAXV?$Local@VValue@v8@@@v8@@@Z@4HA 000000018004f9cc f   * CIL library *:* CIL module *
 0001:0004e9d8       ?dtor$5@?0??FromV8@Mechanism@@UEAAXV?$Local@VValue@v8@@@v8@@@Z@4HA 000000018004f9d8 f   * CIL library *:* CIL module *
 0001:0004e9e4       ?dtor$21@?0??FromV8@Mechanism@@UEAAXV?$Local@VValue@v8@@@v8@@@Z@4HA 000000018004f9e4 f   * CIL library *:* CIL module *
 0001:0004e9f0       ?catch$0@?0??FromV8@Mechanism@@UEAAXV?$Local@VValue@v8@@@v8@@@Z@4HA 000000018004f9f0 f   * CIL library *:* CIL module *
 0001:0004e9fe       __catch$?FromV8@Mechanism@@UEAAXV?$Local@VValue@v8@@@v8@@@Z$0 000000018004f9fe f   * CIL library *:* CIL module *
 0001:0004ea72       ?dtor$25@?0??FromV8@Mechanism@@UEAAXV?$Local@VValue@v8@@@v8@@@Z@4HA 000000018004fa72 f   * CIL library *:* CIL module *
 0001:0004ea7e       ?catch$1@?0??FromV8@Mechanism@@UEAAXV?$Local@VValue@v8@@@v8@@@Z@4HA 000000018004fa7e f   * CIL library *:* CIL module *
 0001:0004ea8e       __catch$?FromV8@Mechanism@@UEAAXV?$Local@VValue@v8@@@v8@@@Z$1 000000018004fa8e f   * CIL library *:* CIL module *
 0001:0004eb63       ?dtor$26@?0??FromV8@Mechanism@@UEAAXV?$Local@VValue@v8@@@v8@@@Z@4HA 000000018004fb63 f   * CIL library *:* CIL module *
 0001:0004eb70       ?catch$0@?0??ToV8@Mechanism@@UEAA?AV?$Local@VObject@v8@@@v8@@XZ@4HA 000000018004fb70 f   * CIL library *:* CIL module *
 0001:0004eb7e       __catch$?ToV8@Mechanism@@UEAA?AV?$Local@VObject@v8@@@v8@@XZ$0 000000018004fb7e f   * CIL library *:* CIL module *
 0001:0004ebda       ?dtor$1@?0??ToV8@Mechanism@@UEAA?AV?$Local@VObject@v8@@@v8@@XZ@4HA 000000018004fbda f   * CIL library *:* CIL module *
 0001:0004ebe6       ?catch$1@?0??ToV8@Mechanism@@UEAA?AV?$Local@VObject@v8@@@v8@@XZ@4HA 000000018004fbe6 f   * CIL library *:* CIL module *
 0001:0004ebf6       __catch$?ToV8@Mechanism@@UEAA?AV?$Local@VObject@v8@@@v8@@XZ$1 000000018004fbf6 f   * CIL library *:* CIL module *
 0001:0004ecb9       ?dtor$2@?0??ToV8@Mechanism@@UEAA?AV?$Local@VObject@v8@@@v8@@XZ@4HA 000000018004fcb9 f   * CIL library *:* CIL module *
 0001:0004ecd0       ?dtor$1@?0??buffer_to_string@@YA?AV?$shared_ptr@V?$basic_string@DU?$char_traits@D@std@@V?$allocator@D@2@@std@@@std@@V?$Local@VValue@v8@@@v8@@@Z@4HA 000000018004fcd0 f   * CIL library *:* CIL module *
 0001:0004ecd0       ?dtor$0@?0??FromV8@ParamBuffer@@UEAAXV?$Local@VValue@v8@@@v8@@@Z@4HA 000000018004fcd0 f   * CIL library *:* CIL module *
 0001:0004ece0       ?dtor$1@?0??FromV8@ParamAesCBC@@UEAAXV?$Local@VValue@v8@@@v8@@@Z@4HA 000000018004fce0 f   * CIL library *:* CIL module *
 0001:0004ecec       ?dtor$3@?0??FromV8@ParamAesCBC@@UEAAXV?$Local@VValue@v8@@@v8@@@Z@4HA 000000018004fcec f   * CIL library *:* CIL module *
 0001:0004ecf8       ?dtor$5@?0??FromV8@ParamAesCBC@@UEAAXV?$Local@VValue@v8@@@v8@@@Z@4HA 000000018004fcf8 f   * CIL library *:* CIL module *
 0001:0004ed04       ?catch$0@?0??FromV8@ParamAesCBC@@UEAAXV?$Local@VValue@v8@@@v8@@@Z@4HA 000000018004fd04 f   * CIL library *:* CIL module *
 0001:0004ed12       __catch$?FromV8@ParamAesCBC@@UEAAXV?$Local@VValue@v8@@@v8@@@Z$0 000000018004fd12 f   * CIL library *:* CIL module *
 0001:0004ed86       ?dtor$7@?0??FromV8@ParamAesCBC@@UEAAXV?$Local@VValue@v8@@@v8@@@Z@4HA 000000018004fd86 f   * CIL library *:* CIL module *
 0001:0004ed92       ?catch$1@?0??FromV8@ParamAesCBC@@UEAAXV?$Local@VValue@v8@@@v8@@@Z@4HA 000000018004fd92 f   * CIL library *:* CIL module *
 0001:0004eda2       __catch$?FromV8@ParamAesCBC@@UEAAXV?$Local@VValue@v8@@@v8@@@Z$1 000000018004fda2 f   * CIL library *:* CIL module *
 0001:0004ee77       ?dtor$8@?0??FromV8@ParamAesCBC@@UEAAXV?$Local@VValue@v8@@@v8@@@Z@4HA 000000018004fe77 f   * CIL library *:* CIL module *
 0001:0004ee90       ?dtor$1@?0??FromV8@ParamAesCCM@@UEAAXV?$Local@VValue@v8@@@v8@@@Z@4HA 000000018004fe90 f   * CIL library *:* CIL module *
 0001:0004ee9c       ?dtor$3@?0??FromV8@ParamAesCCM@@UEAAXV?$Local@VValue@v8@@@v8@@@Z@4HA 000000018004fe9c f   * CIL library *:* CIL module *
 0001:0004eea8       ?dtor$5@?0??FromV8@ParamAesCCM@@UEAAXV?$Local@VValue@v8@@@v8@@@Z@4HA 000000018004fea8 f   * CIL library *:* CIL module *
 0001:0004eeb4       ?dtor$7@?0??FromV8@ParamAesCCM@@UEAAXV?$Local@VValue@v8@@@v8@@@Z@4HA 000000018004feb4 f   * CIL library *:* CIL module *
 0001:0004eec0       ?dtor$9@?0??FromV8@ParamAesCCM@@UEAAXV?$Local@VValue@v8@@@v8@@@Z@4HA 000000018004fec0 f   * CIL library *:* CIL module *
 0001:0004eecc       ?catch$0@?0??FromV8@ParamAesCCM@@UEAAXV?$Local@VValue@v8@@@v8@@@Z@4HA 000000018004fecc f   * CIL library *:* CIL module *
 0001:0004eeda       __catch$?FromV8@ParamAesCCM@@UEAAXV?$Local@VValue@v8@@@v8@@@Z$0 000000018004feda f   * CIL library *:* CIL module *
 0001:0004ef4e       ?dtor$11@?0??FromV8@ParamAesCCM@@UEAAXV?$Local@VValue@v8@@@v8@@@Z@4HA 000000018004ff4e f   * CIL library *:* CIL module *
 0001:0004ef5a       ?catch$1@?0??FromV8@ParamAesCCM@@UEAAXV?$Local@VValue@v8@@@v8@@@Z@4HA 000000018004ff5a f   * CIL library *:* CIL module *
 0001:0004ef6a       __catch$?FromV8@ParamAesCCM@@UEAAXV?$Local@VValue@v8@@@v8@@@Z$1 000000018004ff6a f   * CIL library *:* CIL module *
 0001:0004f03f       ?dtor$12@?0??FromV8@ParamAesCCM@@UEAAXV?$Local@VValue@v8@@@v8@@@Z@4HA 000000018005003f f   * CIL library *:* CIL module *
 0001:0004f050       ?dtor$1@?0??FromV8@ParamAesGCM@@UEAAXV?$Local@VValue@v8@@@v8@@@Z@4HA 0000000180050050 f   * CIL library *:* CIL module *
 0001:0004f05c       ?dtor$3@?0??FromV8@ParamAesGCM@@UEAAXV?$Local@VValue@v8@@@v8@@@Z@4HA 000000018005005c f   * CIL library *:* CIL module *
 0001:0004f068       ?dtor$5@?0??FromV8@ParamAesGCM@@UEAAXV?$Local@VValue@v8@@@v8@@@Z@4HA 0000000180050068 f   * CIL library *:* CIL module *
 0001:0004f074       ?dtor$7@?0??FromV8@ParamAesGCM@@UEAAXV?$Local@VValue@v8@@@v8@@@Z@4HA 0000000180050074 f   * CIL library *:* CIL module *
 0001:0004f080       ?dtor$9@?0??FromV8@ParamAesGCM@@UEAAXV?$Local@VValue@v8@@@v8@@@Z@4HA 0000000180050080 f   * CIL library *:* CIL module *
 0001:0004f08c       ?catch$0@?0??FromV8@ParamAesGCM@@UEAAXV?$Local@VValue@v8@@@v8@@@Z@4HA 000000018005008c f   * CIL library *:* CIL module *
 0001:0004f09a       __catch$?FromV8@ParamAesGCM@@UEAAXV?$Local@VValue@v8@@@v8@@@Z$0 000000018005009a f   * CIL library *:* CIL module *
 0001:0004f10e       ?dtor$11@?0??FromV8@ParamAesGCM@@UEAAXV?$Local@VValue@v8@@@v8@@@Z@4HA 000000018005010e f   * CIL library *:* CIL module *
 0001:0004f11a       ?catch$1@?0??FromV8@ParamAesGCM@@UEAAXV?$Local@VValue@v8@@@v8@@@Z@4HA 000000018005011a f   * CIL library *:* CIL module *
 0001:0004f12a       __catch$?FromV8@ParamAesGCM@@UEAAXV?$Local@VValue@v8@@@v8@@@Z$1 000000018005012a f   * CIL library *:* CIL module *
 0001:0004f1ff       ?dtor$12@?0??FromV8@ParamAesGCM@@UEAAXV?$Local@VValue@v8@@@v8@@@Z@4HA 00000001800501ff f   * CIL library *:* CIL module *
 0001:0004f210       ?dtor$1@?0??FromV8@ParamAesGCMv240@@UEAAXV?$Local@VValue@v8@@@v8@@@Z@4HA 0000000180050210 f   * CIL library *:* CIL module *
 0001:0004f21c       ?dtor$3@?0??FromV8@ParamAesGCMv240@@UEAAXV?$Local@VValue@v8@@@v8@@@Z@4HA 000000018005021c f   * CIL library *:* CIL module *
 0001:0004f228       ?dtor$5@?0??FromV8@ParamAesGCMv240@@UEAAXV?$Local@VValue@v8@@@v8@@@Z@4HA 0000000180050228 f   * CIL library *:* CIL module *
 0001:0004f234       ?dtor$7@?0??FromV8@ParamAesGCMv240@@UEAAXV?$Local@VValue@v8@@@v8@@@Z@4HA 0000000180050234 f   * CIL library *:* CIL module *
 0001:0004f240       ?dtor$9@?0??FromV8@ParamAesGCMv240@@UEAAXV?$Local@VValue@v8@@@v8@@@Z@4HA 0000000180050240 f   * CIL library *:* CIL module *
 0001:0004f24c       ?catch$0@?0??FromV8@ParamAesGCMv240@@UEAAXV?$Local@VValue@v8@@@v8@@@Z@4HA 000000018005024c f   * CIL library *:* CIL module *
 0001:0004f25a       __catch$?FromV8@ParamAesGCMv240@@UEAAXV?$Local@VValue@v8@@@v8@@@Z$0 000000018005025a f   * CIL library *:* CIL module *
 0001:0004f2ce       ?dtor$11@?0??FromV8@ParamAesGCMv240@@UEAAXV?$Local@VValue@v8@@@v8@@@Z@4HA 00000001800502ce f   * CIL library *:* CIL module *
 0001:0004f2da       ?catch$1@?0??FromV8@ParamAesGCMv240@@UEAAXV?$Local@VValue@v8@@@v8@@@Z@4HA 00000001800502da f   * CIL library *:* CIL module *
 0001:0004f2ea       __catch$?FromV8@ParamAesGCMv240@@UEAAXV?$Local@VValue@v8@@@v8@@@Z$1 00000001800502ea f   * CIL library *:* CIL module *
 0001:0004f3bf       ?dtor$12@?0??FromV8@ParamAesGCMv240@@UEAAXV?$Local@VValue@v8@@@v8@@@Z@4HA 00000001800503bf f   * CIL library *:* CIL module *
 0001:0004f3d0       ?dtor$1@?0??FromV8@ParamRsaOAEP@@UEAAXV?$Local@VValue@v8@@@v8@@@Z@4HA 00000001800503d0 f   * CIL library *:* CIL module *
 0001:0004f3dc       ?dtor$3@?0??FromV8@ParamRsaOAEP@@UEAAXV?$Local@VValue@v8@@@v8@@@Z@4HA 00000001800503dc f   * CIL library *:* CIL module *
 0001:0004f3e8       ?dtor$5@?0??FromV8@ParamRsaOAEP@@UEAAXV?$Local@VValue@v8@@@v8@@@Z@4HA 00000001800503e8 f   * CIL library *:* CIL module *
 0001:0004f3f4       ?dtor$7@?0??FromV8@ParamRsaOAEP@@UEAAXV?$Local@VValue@v8@@@v8@@@Z@4HA 00000001800503f4 f   * CIL library *:* CIL module *
 0001:0004f400       ?dtor$9@?0??FromV8@ParamRsaOAEP@@UEAAXV?$Local@VValue@v8@@@v8@@@Z@4HA 0000000180050400 f   * CIL library *:* CIL module *
 0001:0004f40c       ?catch$0@?0??FromV8@ParamRsaOAEP@@UEAAXV?$Local@VValue@v8@@@v8@@@Z@4HA 000000018005040c f   * CIL library *:* CIL module *
 0001:0004f41a       __catch$?FromV8@ParamRsaOAEP@@UEAAXV?$Local@VValue@v8@@@v8@@@Z$0 000000018005041a f   * CIL library *:* CIL module *
 0001:0004f48e       ?dtor$11@?0??FromV8@ParamRsaOAEP@@UEAAXV?$Local@VValue@v8@@@v8@@@Z@4HA 000000018005048e f   * CIL library *:* CIL module *
 0001:0004f49a       ?catch$1@?0??FromV8@ParamRsaOAEP@@UEAAXV?$Local@VValue@v8@@@v8@@@Z@4HA 000000018005049a f   * CIL library *:* CIL module *
 0001:0004f4aa       __catch$?FromV8@ParamRsaOAEP@@UEAAXV?$Local@VValue@v8@@@v8@@@Z$1 00000001800504aa f   * CIL library *:* CIL module *
 0001:0004f57f       ?dtor$12@?0??FromV8@ParamRsaOAEP@@UEAAXV?$Local@VValue@v8@@@v8@@@Z@4HA 000000018005057f f   * CIL library *:* CIL module *
 0001:0004f590       ?dtor$1@?0??FromV8@ParamRsaPSS@@UEAAXV?$Local@VValue@v8@@@v8@@@Z@4HA 0000000180050590 f   * CIL library *:* CIL module *
 0001:0004f59c       ?dtor$3@?0??FromV8@ParamRsaPSS@@UEAAXV?$Local@VValue@v8@@@v8@@@Z@4HA 000000018005059c f   * CIL library *:* CIL module *
 0001:0004f5a8       ?dtor$5@?0??FromV8@ParamRsaPSS@@UEAAXV?$Local@VValue@v8@@@v8@@@Z@4HA 00000001800505a8 f   * CIL library *:* CIL module *
 0001:0004f5b4       ?dtor$7@?0??FromV8@ParamRsaPSS@@UEAAXV?$Local@VValue@v8@@@v8@@@Z@4HA 00000001800505b4 f   * CIL library *:* CIL module *
 0001:0004f5c0       ?catch$0@?0??FromV8@ParamRsaPSS@@UEAAXV?$Local@VValue@v8@@@v8@@@Z@4HA 00000001800505c0 f   * CIL library *:* CIL module *
 0001:0004f5ce       __catch$?FromV8@ParamRsaPSS@@UEAAXV?$Local@VValue@v8@@@v8@@@Z$0 00000001800505ce f   * CIL library *:* CIL module *
 0001:0004f642       ?dtor$9@?0??FromV8@ParamRsaPSS@@UEAAXV?$Local@VValue@v8@@@v8@@@Z@4HA 0000000180050642 f   * CIL library *:* CIL module *
 0001:0004f64e       ?catch$1@?0??FromV8@ParamRsaPSS@@UEAAXV?$Local@VValue@v8@@@v8@@@Z@4HA 000000018005064e f   * CIL library *:* CIL module *
 0001:0004f65e       __catch$?FromV8@ParamRsaPSS@@UEAAXV?$Local@VValue@v8@@@v8@@@Z$1 000000018005065e f   * CIL library *:* CIL module *
 0001:0004f733       ?dtor$10@?0??FromV8@ParamRsaPSS@@UEAAXV?$Local@VValue@v8@@@v8@@@Z@4HA 0000000180050733 f   * CIL library *:* CIL module *
 0001:0004f740       ?dtor$1@?0??FromV8@ParamEcdh1@@UEAAXV?$Local@VValue@v8@@@v8@@@Z@4HA 0000000180050740 f   * CIL library *:* CIL module *
 0001:0004f74c       ?dtor$3@?0??FromV8@ParamEcdh1@@UEAAXV?$Local@VValue@v8@@@v8@@@Z@4HA 000000018005074c f   * CIL library *:* CIL module *
 0001:0004f758       ?dtor$5@?0??FromV8@ParamEcdh1@@UEAAXV?$Local@VValue@v8@@@v8@@@Z@4HA 0000000180050758 f   * CIL library *:* CIL module *
 0001:0004f764       ?dtor$7@?0??FromV8@ParamEcdh1@@UEAAXV?$Local@VValue@v8@@@v8@@@Z@4HA 0000000180050764 f   * CIL library *:* CIL module *
 0001:0004f770       ?catch$0@?0??FromV8@ParamEcdh1@@UEAAXV?$Local@VValue@v8@@@v8@@@Z@4HA 0000000180050770 f   * CIL library *:* CIL module *
 0001:0004f77e       __catch$?FromV8@ParamEcdh1@@UEAAXV?$Local@VValue@v8@@@v8@@@Z$0 000000018005077e f   * CIL library *:* CIL module *
 0001:0004f7f2       ?dtor$9@?0??FromV8@ParamEcdh1@@UEAAXV?$Local@VValue@v8@@@v8@@@Z@4HA 00000001800507f2 f   * CIL library *:* CIL module *
 0001:0004f7fe       ?catch$1@?0??FromV8@ParamEcdh1@@UEAAXV?$Local@VValue@v8@@@v8@@@Z@4HA 00000001800507fe f   * CIL library *:* CIL module *
 0001:0004f80e       __catch$?FromV8@ParamEcdh1@@UEAAXV?$Local@VValue@v8@@@v8@@@Z$1 000000018005080e f   * CIL library *:* CIL module *
 0001:0004f8e3       ?dtor$10@?0??FromV8@ParamEcdh1@@UEAAXV?$Local@VValue@v8@@@v8@@@Z@4HA 00000001800508e3 f   * CIL library *:* CIL module *
 0001:0004f8f0       ?dtor$0@?0??get_pkcs11_error@@YA?AV?$shared_ptr@V?$basic_string@DU?$char_traits@D@std@@V?$allocator@D@2@@std@@@std@@K@Z@4HA 00000001800508f0 f   * CIL library *:* CIL module *
 0001:0004f8fc       ?dtor$1@?0??get_pkcs11_error@@YA?AV?$shared_ptr@V?$basic_string@DU?$char_traits@D@std@@V?$allocator@D@2@@std@@@std@@K@Z@4HA 00000001800508fc f   * CIL library *:* CIL module *
 0001:0004f908       ?dtor$2@?0??get_pkcs11_error@@YA?AV?$shared_ptr@V?$basic_string@DU?$char_traits@D@std@@V?$allocator@D@2@@std@@@std@@K@Z@4HA 0000000180050908 f   * CIL library *:* CIL module *
 0001:0004f914       ?dtor$4@?0??get_pkcs11_error@@YA?AV?$shared_ptr@V?$basic_string@DU?$char_traits@D@std@@V?$allocator@D@2@@std@@@std@@K@Z@4HA 0000000180050914 f   * CIL library *:* CIL module *
 0001:0004f920       ?dtor$5@?0??get_pkcs11_error@@YA?AV?$shared_ptr@V?$basic_string@DU?$char_traits@D@std@@V?$allocator@D@2@@std@@@std@@K@Z@4HA 0000000180050920 f   * CIL library *:* CIL module *
 0001:0004f92c       ?dtor$6@?0??get_pkcs11_error@@YA?AV?$shared_ptr@V?$basic_string@DU?$char_traits@D@std@@V?$allocator@D@2@@std@@@std@@K@Z@4HA 000000018005092c f   * CIL library *:* CIL module *
 0001:0004f938       ?dtor$7@?0??get_pkcs11_error@@YA?AV?$shared_ptr@V?$basic_string@DU?$char_traits@D@std@@V?$allocator@D@2@@std@@@std@@K@Z@4HA 0000000180050938 f   * CIL library *:* CIL module *
 0001:0004f944       ?dtor$8@?0??get_pkcs11_error@@YA?AV?$shared_ptr@V?$basic_string@DU?$char_traits@D@std@@V?$allocator@D@2@@std@@@std@@K@Z@4HA 0000000180050944 f   * CIL library *:* CIL module *
 0001:0004f950       ?dtor$9@?0??get_pkcs11_error@@YA?AV?$shared_ptr@V?$basic_string@DU?$char_traits@D@std@@V?$allocator@D@2@@std@@@std@@K@Z@4HA 0000000180050950 f   * CIL library *:* CIL module *
 0001:0004f95c       ?dtor$10@?0??get_pkcs11_error@@YA?AV?$shared_ptr@V?$basic_string@DU?$char_traits@D@std@@V?$allocator@D@2@@std@@@std@@K@Z@4HA 000000018005095c f   * CIL library *:* CIL module *
 0001:0004f968       ?dtor$11@?0??get_pkcs11_error@@YA?AV?$shared_ptr@V?$basic_string@DU?$char_traits@D@std@@V?$allocator@D@2@@std@@@std@@K@Z@4HA 0000000180050968 f   * CIL library *:* CIL module *
 0001:0004f974       ?dtor$12@?0??get_pkcs11_error@@YA?AV?$shared_ptr@V?$basic_string@DU?$char_traits@D@std@@V?$allocator@D@2@@std@@@std@@K@Z@4HA 0000000180050974 f   * CIL library *:* CIL module *
 0001:0004f980       ?dtor$13@?0??get_pkcs11_error@@YA?AV?$shared_ptr@V?$basic_string@DU?$char_traits@D@std@@V?$allocator@D@2@@std@@@std@@K@Z@4HA 0000000180050980 f   * CIL library *:* CIL module *
 0001:0004f98c       ?dtor$14@?0??get_pkcs11_error@@YA?AV?$shared_ptr@V?$basic_string@DU?$char_traits@D@std@@V?$allocator@D@2@@std@@@std@@K@Z@4HA 000000018005098c f   * CIL library *:* CIL module *
 0001:0004f998       ?dtor$15@?0??get_pkcs11_error@@YA?AV?$shared_ptr@V?$basic_string@DU?$char_traits@D@std@@V?$allocator@D@2@@std@@@std@@K@Z@4HA 0000000180050998 f   * CIL library *:* CIL module *
 0001:0004f9a4       ?dtor$16@?0??get_pkcs11_error@@YA?AV?$shared_ptr@V?$basic_string@DU?$char_traits@D@std@@V?$allocator@D@2@@std@@@std@@K@Z@4HA 00000001800509a4 f   * CIL library *:* CIL module *
 0001:0004f9b0       ?dtor$17@?0??get_pkcs11_error@@YA?AV?$shared_ptr@V?$basic_string@DU?$char_traits@D@std@@V?$allocator@D@2@@std@@@std@@K@Z@4HA 00000001800509b0 f   * CIL library *:* CIL module *
 0001:0004f9bc       ?dtor$18@?0??get_pkcs11_error@@YA?AV?$shared_ptr@V?$basic_string@DU?$char_traits@D@std@@V?$allocator@D@2@@std@@@std@@K@Z@4HA 00000001800509bc f   * CIL library *:* CIL module *
 0001:0004f9c8       ?dtor$19@?0??get_pkcs11_error@@YA?AV?$shared_ptr@V?$basic_string@DU?$char_traits@D@std@@V?$allocator@D@2@@std@@@std@@K@Z@4HA 00000001800509c8 f   * CIL library *:* CIL module *
 0001:0004f9d4       ?dtor$20@?0??get_pkcs11_error@@YA?AV?$shared_ptr@V?$basic_string@DU?$char_traits@D@std@@V?$allocator@D@2@@std@@@std@@K@Z@4HA 00000001800509d4 f   * CIL library *:* CIL module *
 0001:0004f9e0       ?dtor$21@?0??get_pkcs11_error@@YA?AV?$shared_ptr@V?$basic_string@DU?$char_traits@D@std@@V?$allocator@D@2@@std@@@std@@K@Z@4HA 00000001800509e0 f   * CIL library *:* CIL module *
 0001:0004f9ec       ?dtor$22@?0??get_pkcs11_error@@YA?AV?$shared_ptr@V?$basic_string@DU?$char_traits@D@std@@V?$allocator@D@2@@std@@@std@@K@Z@4HA 00000001800509ec f   * CIL library *:* CIL module *
 0001:0004f9f8       ?dtor$23@?0??get_pkcs11_error@@YA?AV?$shared_ptr@V?$basic_string@DU?$char_traits@D@std@@V?$allocator@D@2@@std@@@std@@K@Z@4HA 00000001800509f8 f   * CIL library *:* CIL module *
 0001:0004fa04       ?dtor$24@?0??get_pkcs11_error@@YA?AV?$shared_ptr@V?$basic_string@DU?$char_traits@D@std@@V?$allocator@D@2@@std@@@std@@K@Z@4HA 0000000180050a04 f   * CIL library *:* CIL module *
 0001:0004fa10       ?dtor$25@?0??get_pkcs11_error@@YA?AV?$shared_ptr@V?$basic_string@DU?$char_traits@D@std@@V?$allocator@D@2@@std@@@std@@K@Z@4HA 0000000180050a10 f   * CIL library *:* CIL module *
 0001:0004fa1c       ?dtor$26@?0??get_pkcs11_error@@YA?AV?$shared_ptr@V?$basic_string@DU?$char_traits@D@std@@V?$allocator@D@2@@std@@@std@@K@Z@4HA 0000000180050a1c f   * CIL library *:* CIL module *
 0001:0004fa28       ?dtor$27@?0??get_pkcs11_error@@YA?AV?$shared_ptr@V?$basic_string@DU?$char_traits@D@std@@V?$allocator@D@2@@std@@@std@@K@Z@4HA 0000000180050a28 f   * CIL library *:* CIL module *
 0001:0004fa34       ?dtor$28@?0??get_pkcs11_error@@YA?AV?$shared_ptr@V?$basic_string@DU?$char_traits@D@std@@V?$allocator@D@2@@std@@@std@@K@Z@4HA 0000000180050a34 f   * CIL library *:* CIL module *
 0001:0004fa40       ?dtor$29@?0??get_pkcs11_error@@YA?AV?$shared_ptr@V?$basic_string@DU?$char_traits@D@std@@V?$allocator@D@2@@std@@@std@@K@Z@4HA 0000000180050a40 f   * CIL library *:* CIL module *
 0001:0004fa4c       ?dtor$30@?0??get_pkcs11_error@@YA?AV?$shared_ptr@V?$basic_string@DU?$char_traits@D@std@@V?$allocator@D@2@@std@@@std@@K@Z@4HA 0000000180050a4c f   * CIL library *:* CIL module *
 0001:0004fa58       ?dtor$31@?0??get_pkcs11_error@@YA?AV?$shared_ptr@V?$basic_string@DU?$char_traits@D@std@@V?$allocator@D@2@@std@@@std@@K@Z@4HA 0000000180050a58 f   * CIL library *:* CIL module *
 0001:0004fa64       ?dtor$32@?0??get_pkcs11_error@@YA?AV?$shared_ptr@V?$basic_string@DU?$char_traits@D@std@@V?$allocator@D@2@@std@@@std@@K@Z@4HA 0000000180050a64 f   * CIL library *:* CIL module *
 0001:0004fa70       ?dtor$33@?0??get_pkcs11_error@@YA?AV?$shared_ptr@V?$basic_string@DU?$char_traits@D@std@@V?$allocator@D@2@@std@@@std@@K@Z@4HA 0000000180050a70 f   * CIL library *:* CIL module *
 0001:0004fa7c       ?dtor$34@?0??get_pkcs11_error@@YA?AV?$shared_ptr@V?$basic_string@DU?$char_traits@D@std@@V?$allocator@D@2@@std@@@std@@K@Z@4HA 0000000180050a7c f   * CIL library *:* CIL module *
 0001:0004fa88       ?dtor$35@?0??get_pkcs11_error@@YA?AV?$shared_ptr@V?$basic_string@DU?$char_traits@D@std@@V?$allocator@D@2@@std@@@std@@K@Z@4HA 0000000180050a88 f   * CIL library *:* CIL module *
 0001:0004fa94       ?dtor$36@?0??get_pkcs11_error@@YA?AV?$shared_ptr@V?$basic_string@DU?$char_traits@D@std@@V?$allocator@D@2@@std@@@std@@K@Z@4HA 0000000180050a94 f   * CIL library *:* CIL module *
 0001:0004faa0       ?dtor$37@?0??get_pkcs11_error@@YA?AV?$shared_ptr@V?$basic_string@DU?$char_traits@D@std@@V?$allocator@D@2@@std@@@std@@K@Z@4HA 0000000180050aa0 f   * CIL library *:* CIL module *
 0001:0004faac       ?dtor$38@?0??get_pkcs11_error@@YA?AV?$shared_ptr@V?$basic_string@DU?$char_traits@D@std@@V?$allocator@D@2@@std@@@std@@K@Z@4HA 0000000180050aac f   * CIL library *:* CIL module *
 0001:0004fab8       ?dtor$39@?0??get_pkcs11_error@@YA?AV?$shared_ptr@V?$basic_string@DU?$char_traits@D@std@@V?$allocator@D@2@@std@@@std@@K@Z@4HA 0000000180050ab8 f   * CIL library *:* CIL module *
 0001:0004fac4       ?dtor$40@?0??get_pkcs11_error@@YA?AV?$shared_ptr@V?$basic_string@DU?$char_traits@D@std@@V?$allocator@D@2@@std@@@std@@K@Z@4HA 0000000180050ac4 f   * CIL library *:* CIL module *
 0001:0004fad0       ?dtor$41@?0??get_pkcs11_error@@YA?AV?$shared_ptr@V?$basic_string@DU?$char_traits@D@std@@V?$allocator@D@2@@std@@@std@@K@Z@4HA 0000000180050ad0 f   * CIL library *:* CIL module *
 0001:0004fadc       ?dtor$42@?0??get_pkcs11_error@@YA?AV?$shared_ptr@V?$basic_string@DU?$char_traits@D@std@@V?$allocator@D@2@@std@@@std@@K@Z@4HA 0000000180050adc f   * CIL library *:* CIL module *
 0001:0004fae8       ?dtor$43@?0??get_pkcs11_error@@YA?AV?$shared_ptr@V?$basic_string@DU?$char_traits@D@std@@V?$allocator@D@2@@std@@@std@@K@Z@4HA 0000000180050ae8 f   * CIL library *:* CIL module *
 0001:0004faf4       ?dtor$44@?0??get_pkcs11_error@@YA?AV?$shared_ptr@V?$basic_string@DU?$char_traits@D@std@@V?$allocator@D@2@@std@@@std@@K@Z@4HA 0000000180050af4 f   * CIL library *:* CIL module *
 0001:0004fb00       ?dtor$45@?0??get_pkcs11_error@@YA?AV?$shared_ptr@V?$basic_string@DU?$char_traits@D@std@@V?$allocator@D@2@@std@@@std@@K@Z@4HA 0000000180050b00 f   * CIL library *:* CIL module *
 0001:0004fb0c       ?dtor$46@?0??get_pkcs11_error@@YA?AV?$shared_ptr@V?$basic_string@DU?$char_traits@D@std@@V?$allocator@D@2@@std@@@std@@K@Z@4HA 0000000180050b0c f   * CIL library *:* CIL module *
 0001:0004fb18       ?dtor$47@?0??get_pkcs11_error@@YA?AV?$shared_ptr@V?$basic_string@DU?$char_traits@D@std@@V?$allocator@D@2@@std@@@std@@K@Z@4HA 0000000180050b18 f   * CIL library *:* CIL module *
 0001:0004fb24       ?dtor$48@?0??get_pkcs11_error@@YA?AV?$shared_ptr@V?$basic_string@DU?$char_traits@D@std@@V?$allocator@D@2@@std@@@std@@K@Z@4HA 0000000180050b24 f   * CIL library *:* CIL module *
 0001:0004fb30       ?dtor$49@?0??get_pkcs11_error@@YA?AV?$shared_ptr@V?$basic_string@DU?$char_traits@D@std@@V?$allocator@D@2@@std@@@std@@K@Z@4HA 0000000180050b30 f   * CIL library *:* CIL module *
 0001:0004fb3c       ?dtor$50@?0??get_pkcs11_error@@YA?AV?$shared_ptr@V?$basic_string@DU?$char_traits@D@std@@V?$allocator@D@2@@std@@@std@@K@Z@4HA 0000000180050b3c f   * CIL library *:* CIL module *
 0001:0004fb48       ?dtor$51@?0??get_pkcs11_error@@YA?AV?$shared_ptr@V?$basic_string@DU?$char_traits@D@std@@V?$allocator@D@2@@std@@@std@@K@Z@4HA 0000000180050b48 f   * CIL library *:* CIL module *
 0001:0004fb54       ?dtor$52@?0??get_pkcs11_error@@YA?AV?$shared_ptr@V?$basic_string@DU?$char_traits@D@std@@V?$allocator@D@2@@std@@@std@@K@Z@4HA 0000000180050b54 f   * CIL library *:* CIL module *
 0001:0004fb60       ?dtor$53@?0??get_pkcs11_error@@YA?AV?$shared_ptr@V?$basic_string@DU?$char_traits@D@std@@V?$allocator@D@2@@std@@@std@@K@Z@4HA 0000000180050b60 f   * CIL library *:* CIL module *
 0001:0004fb6c       ?dtor$54@?0??get_pkcs11_error@@YA?AV?$shared_ptr@V?$basic_string@DU?$char_traits@D@std@@V?$allocator@D@2@@std@@@std@@K@Z@4HA 0000000180050b6c f   * CIL library *:* CIL module *
 0001:0004fb78       ?dtor$55@?0??get_pkcs11_error@@YA?AV?$shared_ptr@V?$basic_string@DU?$char_traits@D@std@@V?$allocator@D@2@@std@@@std@@K@Z@4HA 0000000180050b78 f   * CIL library *:* CIL module *
 0001:0004fb84       ?dtor$56@?0??get_pkcs11_error@@YA?AV?$shared_ptr@V?$basic_string@DU?$char_traits@D@std@@V?$allocator@D@2@@std@@@std@@K@Z@4HA 0000000180050b84 f   * CIL library *:* CIL module *
 0001:0004fb90       ?dtor$57@?0??get_pkcs11_error@@YA?AV?$shared_ptr@V?$basic_string@DU?$char_traits@D@std@@V?$allocator@D@2@@std@@@std@@K@Z@4HA 0000000180050b90 f   * CIL library *:* CIL module *
 0001:0004fb9c       ?dtor$58@?0??get_pkcs11_error@@YA?AV?$shared_ptr@V?$basic_string@DU?$char_traits@D@std@@V?$allocator@D@2@@std@@@std@@K@Z@4HA 0000000180050b9c f   * CIL library *:* CIL module *
 0001:0004fba8       ?dtor$59@?0??get_pkcs11_error@@YA?AV?$shared_ptr@V?$basic_string@DU?$char_traits@D@std@@V?$allocator@D@2@@std@@@std@@K@Z@4HA 0000000180050ba8 f   * CIL library *:* CIL module *
 0001:0004fbb4       ?dtor$60@?0??get_pkcs11_error@@YA?AV?$shared_ptr@V?$basic_string@DU?$char_traits@D@std@@V?$allocator@D@2@@std@@@std@@K@Z@4HA 0000000180050bb4 f   * CIL library *:* CIL module *
 0001:0004fbc0       ?dtor$61@?0??get_pkcs11_error@@YA?AV?$shared_ptr@V?$basic_string@DU?$char_traits@D@std@@V?$allocator@D@2@@std@@@std@@K@Z@4HA 0000000180050bc0 f   * CIL library *:* CIL module *
 0001:0004fbcc       ?dtor$62@?0??get_pkcs11_error@@YA?AV?$shared_ptr@V?$basic_string@DU?$char_traits@D@std@@V?$allocator@D@2@@std@@@std@@K@Z@4HA 0000000180050bcc f   * CIL library *:* CIL module *
 0001:0004fbd8       ?dtor$63@?0??get_pkcs11_error@@YA?AV?$shared_ptr@V?$basic_string@DU?$char_traits@D@std@@V?$allocator@D@2@@std@@@std@@K@Z@4HA 0000000180050bd8 f   * CIL library *:* CIL module *
 0001:0004fbe4       ?dtor$64@?0??get_pkcs11_error@@YA?AV?$shared_ptr@V?$basic_string@DU?$char_traits@D@std@@V?$allocator@D@2@@std@@@std@@K@Z@4HA 0000000180050be4 f   * CIL library *:* CIL module *
 0001:0004fbf0       ?dtor$65@?0??get_pkcs11_error@@YA?AV?$shared_ptr@V?$basic_string@DU?$char_traits@D@std@@V?$allocator@D@2@@std@@@std@@K@Z@4HA 0000000180050bf0 f   * CIL library *:* CIL module *
 0001:0004fbfc       ?dtor$66@?0??get_pkcs11_error@@YA?AV?$shared_ptr@V?$basic_string@DU?$char_traits@D@std@@V?$allocator@D@2@@std@@@std@@K@Z@4HA 0000000180050bfc f   * CIL library *:* CIL module *
 0001:0004fc08       ?dtor$67@?0??get_pkcs11_error@@YA?AV?$shared_ptr@V?$basic_string@DU?$char_traits@D@std@@V?$allocator@D@2@@std@@@std@@K@Z@4HA 0000000180050c08 f   * CIL library *:* CIL module *
 0001:0004fc14       ?dtor$68@?0??get_pkcs11_error@@YA?AV?$shared_ptr@V?$basic_string@DU?$char_traits@D@std@@V?$allocator@D@2@@std@@@std@@K@Z@4HA 0000000180050c14 f   * CIL library *:* CIL module *
 0001:0004fc20       ?dtor$69@?0??get_pkcs11_error@@YA?AV?$shared_ptr@V?$basic_string@DU?$char_traits@D@std@@V?$allocator@D@2@@std@@@std@@K@Z@4HA 0000000180050c20 f   * CIL library *:* CIL module *
 0001:0004fc2c       ?dtor$70@?0??get_pkcs11_error@@YA?AV?$shared_ptr@V?$basic_string@DU?$char_traits@D@std@@V?$allocator@D@2@@std@@@std@@K@Z@4HA 0000000180050c2c f   * CIL library *:* CIL module *
 0001:0004fc38       ?dtor$71@?0??get_pkcs11_error@@YA?AV?$shared_ptr@V?$basic_string@DU?$char_traits@D@std@@V?$allocator@D@2@@std@@@std@@K@Z@4HA 0000000180050c38 f   * CIL library *:* CIL module *
 0001:0004fc44       ?dtor$72@?0??get_pkcs11_error@@YA?AV?$shared_ptr@V?$basic_string@DU?$char_traits@D@std@@V?$allocator@D@2@@std@@@std@@K@Z@4HA 0000000180050c44 f   * CIL library *:* CIL module *
 0001:0004fc50       ?dtor$73@?0??get_pkcs11_error@@YA?AV?$shared_ptr@V?$basic_string@DU?$char_traits@D@std@@V?$allocator@D@2@@std@@@std@@K@Z@4HA 0000000180050c50 f   * CIL library *:* CIL module *
 0001:0004fc5c       ?dtor$74@?0??get_pkcs11_error@@YA?AV?$shared_ptr@V?$basic_string@DU?$char_traits@D@std@@V?$allocator@D@2@@std@@@std@@K@Z@4HA 0000000180050c5c f   * CIL library *:* CIL module *
 0001:0004fc68       ?dtor$75@?0??get_pkcs11_error@@YA?AV?$shared_ptr@V?$basic_string@DU?$char_traits@D@std@@V?$allocator@D@2@@std@@@std@@K@Z@4HA 0000000180050c68 f   * CIL library *:* CIL module *
 0001:0004fc74       ?dtor$76@?0??get_pkcs11_error@@YA?AV?$shared_ptr@V?$basic_string@DU?$char_traits@D@std@@V?$allocator@D@2@@std@@@std@@K@Z@4HA 0000000180050c74 f   * CIL library *:* CIL module *
 0001:0004fc80       ?dtor$77@?0??get_pkcs11_error@@YA?AV?$shared_ptr@V?$basic_string@DU?$char_traits@D@std@@V?$allocator@D@2@@std@@@std@@K@Z@4HA 0000000180050c80 f   * CIL library *:* CIL module *
 0001:0004fc8c       ?dtor$78@?0??get_pkcs11_error@@YA?AV?$shared_ptr@V?$basic_string@DU?$char_traits@D@std@@V?$allocator@D@2@@std@@@std@@K@Z@4HA 0000000180050c8c f   * CIL library *:* CIL module *
 0001:0004fc98       ?dtor$79@?0??get_pkcs11_error@@YA?AV?$shared_ptr@V?$basic_string@DU?$char_traits@D@std@@V?$allocator@D@2@@std@@@std@@K@Z@4HA 0000000180050c98 f   * CIL library *:* CIL module *
 0001:0004fca4       ?dtor$80@?0??get_pkcs11_error@@YA?AV?$shared_ptr@V?$basic_string@DU?$char_traits@D@std@@V?$allocator@D@2@@std@@@std@@K@Z@4HA 0000000180050ca4 f   * CIL library *:* CIL module *
 0001:0004fcb0       ?dtor$81@?0??get_pkcs11_error@@YA?AV?$shared_ptr@V?$basic_string@DU?$char_traits@D@std@@V?$allocator@D@2@@std@@@std@@K@Z@4HA 0000000180050cb0 f   * CIL library *:* CIL module *
 0001:0004fcbc       ?dtor$82@?0??get_pkcs11_error@@YA?AV?$shared_ptr@V?$basic_string@DU?$char_traits@D@std@@V?$allocator@D@2@@std@@@std@@K@Z@4HA 0000000180050cbc f   * CIL library *:* CIL module *
 0001:0004fcc8       ?dtor$83@?0??get_pkcs11_error@@YA?AV?$shared_ptr@V?$basic_string@DU?$char_traits@D@std@@V?$allocator@D@2@@std@@@std@@K@Z@4HA 0000000180050cc8 f   * CIL library *:* CIL module *
 0001:0004fcd4       ?dtor$84@?0??get_pkcs11_error@@YA?AV?$shared_ptr@V?$basic_string@DU?$char_traits@D@std@@V?$allocator@D@2@@std@@@std@@K@Z@4HA 0000000180050cd4 f   * CIL library *:* CIL module *
 0001:0004fce0       ?dtor$85@?0??get_pkcs11_error@@YA?AV?$shared_ptr@V?$basic_string@DU?$char_traits@D@std@@V?$allocator@D@2@@std@@@std@@K@Z@4HA 0000000180050ce0 f   * CIL library *:* CIL module *
 0001:0004fcec       ?dtor$86@?0??get_pkcs11_error@@YA?AV?$shared_ptr@V?$basic_string@DU?$char_traits@D@std@@V?$allocator@D@2@@std@@@std@@K@Z@4HA 0000000180050cec f   * CIL library *:* CIL module *
 0001:0004fcf8       ?dtor$87@?0??get_pkcs11_error@@YA?AV?$shared_ptr@V?$basic_string@DU?$char_traits@D@std@@V?$allocator@D@2@@std@@@std@@K@Z@4HA 0000000180050cf8 f   * CIL library *:* CIL module *
 0001:0004fd04       ?dtor$88@?0??get_pkcs11_error@@YA?AV?$shared_ptr@V?$basic_string@DU?$char_traits@D@std@@V?$allocator@D@2@@std@@@std@@K@Z@4HA 0000000180050d04 f   * CIL library *:* CIL module *
 0001:0004fd10       ?dtor$89@?0??get_pkcs11_error@@YA?AV?$shared_ptr@V?$basic_string@DU?$char_traits@D@std@@V?$allocator@D@2@@std@@@std@@K@Z@4HA 0000000180050d10 f   * CIL library *:* CIL module *
 0001:0004fd1c       ?dtor$90@?0??get_pkcs11_error@@YA?AV?$shared_ptr@V?$basic_string@DU?$char_traits@D@std@@V?$allocator@D@2@@std@@@std@@K@Z@4HA 0000000180050d1c f   * CIL library *:* CIL module *
 0001:0004fd28       ?dtor$91@?0??get_pkcs11_error@@YA?AV?$shared_ptr@V?$basic_string@DU?$char_traits@D@std@@V?$allocator@D@2@@std@@@std@@K@Z@4HA 0000000180050d28 f   * CIL library *:* CIL module *
 0001:0004fd34       ?dtor$92@?0??get_pkcs11_error@@YA?AV?$shared_ptr@V?$basic_string@DU?$char_traits@D@std@@V?$allocator@D@2@@std@@@std@@K@Z@4HA 0000000180050d34 f   * CIL library *:* CIL module *
 0001:0004fd40       ?dtor$93@?0??get_pkcs11_error@@YA?AV?$shared_ptr@V?$basic_string@DU?$char_traits@D@std@@V?$allocator@D@2@@std@@@std@@K@Z@4HA 0000000180050d40 f   * CIL library *:* CIL module *
 0001:0004fd4c       ?dtor$94@?0??get_pkcs11_error@@YA?AV?$shared_ptr@V?$basic_string@DU?$char_traits@D@std@@V?$allocator@D@2@@std@@@std@@K@Z@4HA 0000000180050d4c f   * CIL library *:* CIL module *
 0001:0004fd58       ?dtor$95@?0??get_pkcs11_error@@YA?AV?$shared_ptr@V?$basic_string@DU?$char_traits@D@std@@V?$allocator@D@2@@std@@@std@@K@Z@4HA 0000000180050d58 f   * CIL library *:* CIL module *
 0001:0004fd64       ?dtor$96@?0??get_pkcs11_error@@YA?AV?$shared_ptr@V?$basic_string@DU?$char_traits@D@std@@V?$allocator@D@2@@std@@@std@@K@Z@4HA 0000000180050d64 f   * CIL library *:* CIL module *
 0001:0004fd70       ?dtor$97@?0??get_pkcs11_error@@YA?AV?$shared_ptr@V?$basic_string@DU?$char_traits@D@std@@V?$allocator@D@2@@std@@@std@@K@Z@4HA 0000000180050d70 f   * CIL library *:* CIL module *
 0001:0004fd7c       ?dtor$98@?0??get_pkcs11_error@@YA?AV?$shared_ptr@V?$basic_string@DU?$char_traits@D@std@@V?$allocator@D@2@@std@@@std@@K@Z@4HA 0000000180050d7c f   * CIL library *:* CIL module *
 0001:0004fd88       ?dtor$99@?0??get_pkcs11_error@@YA?AV?$shared_ptr@V?$basic_string@DU?$char_traits@D@std@@V?$allocator@D@2@@std@@@std@@K@Z@4HA 0000000180050d88 f   * CIL library *:* CIL module *
 0001:0004fd94       ?dtor$100@?0??get_pkcs11_error@@YA?AV?$shared_ptr@V?$basic_string@DU?$char_traits@D@std@@V?$allocator@D@2@@std@@@std@@K@Z@4HA 0000000180050d94 f   * CIL library *:* CIL module *
 0001:0004fda0       ?dtor$101@?0??get_pkcs11_error@@YA?AV?$shared_ptr@V?$basic_string@DU?$char_traits@D@std@@V?$allocator@D@2@@std@@@std@@K@Z@4HA 0000000180050da0 f   * CIL library *:* CIL module *
 0001:0004fdac       ?dtor$102@?0??get_pkcs11_error@@YA?AV?$shared_ptr@V?$basic_string@DU?$char_traits@D@std@@V?$allocator@D@2@@std@@@std@@K@Z@4HA 0000000180050dac f   * CIL library *:* CIL module *
 0001:0004fdb8       ?dtor$103@?0??get_pkcs11_error@@YA?AV?$shared_ptr@V?$basic_string@DU?$char_traits@D@std@@V?$allocator@D@2@@std@@@std@@K@Z@4HA 0000000180050db8 f   * CIL library *:* CIL module *
 0001:0004fdc4       ?dtor$104@?0??get_pkcs11_error@@YA?AV?$shared_ptr@V?$basic_string@DU?$char_traits@D@std@@V?$allocator@D@2@@std@@@std@@K@Z@4HA 0000000180050dc4 f   * CIL library *:* CIL module *
 0001:0004fdd0       ?dtor$105@?0??get_pkcs11_error@@YA?AV?$shared_ptr@V?$basic_string@DU?$char_traits@D@std@@V?$allocator@D@2@@std@@@std@@K@Z@4HA 0000000180050dd0 f   * CIL library *:* CIL module *
 0001:0004fddc       ?dtor$106@?0??get_pkcs11_error@@YA?AV?$shared_ptr@V?$basic_string@DU?$char_traits@D@std@@V?$allocator@D@2@@std@@@std@@K@Z@4HA 0000000180050ddc f   * CIL library *:* CIL module *
 0001:0004fde8       ?dtor$107@?0??get_pkcs11_error@@YA?AV?$shared_ptr@V?$basic_string@DU?$char_traits@D@std@@V?$allocator@D@2@@std@@@std@@K@Z@4HA 0000000180050de8 f   * CIL library *:* CIL module *
 0001:0004fdf4       ?dtor$108@?0??get_pkcs11_error@@YA?AV?$shared_ptr@V?$basic_string@DU?$char_traits@D@std@@V?$allocator@D@2@@std@@@std@@K@Z@4HA 0000000180050df4 f   * CIL library *:* CIL module *
 0001:0004fe00       ?dtor$109@?0??get_pkcs11_error@@YA?AV?$shared_ptr@V?$basic_string@DU?$char_traits@D@std@@V?$allocator@D@2@@std@@@std@@K@Z@4HA 0000000180050e00 f   * CIL library *:* CIL module *
 0001:0004fe0c       ?dtor$110@?0??get_pkcs11_error@@YA?AV?$shared_ptr@V?$basic_string@DU?$char_traits@D@std@@V?$allocator@D@2@@std@@@std@@K@Z@4HA 0000000180050e0c f   * CIL library *:* CIL module *
 0001:0004fe18       ?dtor$111@?0??get_pkcs11_error@@YA?AV?$shared_ptr@V?$basic_string@DU?$char_traits@D@std@@V?$allocator@D@2@@std@@@std@@K@Z@4HA 0000000180050e18 f   * CIL library *:* CIL module *
 0001:0004fe24       ?dtor$112@?0??get_pkcs11_error@@YA?AV?$shared_ptr@V?$basic_string@DU?$char_traits@D@std@@V?$allocator@D@2@@std@@@std@@K@Z@4HA 0000000180050e24 f   * CIL library *:* CIL module *
 0001:0004fe30       ?dtor$113@?0??get_pkcs11_error@@YA?AV?$shared_ptr@V?$basic_string@DU?$char_traits@D@std@@V?$allocator@D@2@@std@@@std@@K@Z@4HA 0000000180050e30 f   * CIL library *:* CIL module *
 0001:0004fe3c       ?dtor$114@?0??get_pkcs11_error@@YA?AV?$shared_ptr@V?$basic_string@DU?$char_traits@D@std@@V?$allocator@D@2@@std@@@std@@K@Z@4HA 0000000180050e3c f   * CIL library *:* CIL module *
 0001:0004fe48       ?dtor$115@?0??get_pkcs11_error@@YA?AV?$shared_ptr@V?$basic_string@DU?$char_traits@D@std@@V?$allocator@D@2@@std@@@std@@K@Z@4HA 0000000180050e48 f   * CIL library *:* CIL module *
 0001:0004fe54       ?dtor$116@?0??get_pkcs11_error@@YA?AV?$shared_ptr@V?$basic_string@DU?$char_traits@D@std@@V?$allocator@D@2@@std@@@std@@K@Z@4HA 0000000180050e54 f   * CIL library *:* CIL module *
 0001:0004fe60       ?dtor$117@?0??get_pkcs11_error@@YA?AV?$shared_ptr@V?$basic_string@DU?$char_traits@D@std@@V?$allocator@D@2@@std@@@std@@K@Z@4HA 0000000180050e60 f   * CIL library *:* CIL module *
 0001:0004fe6c       ?dtor$118@?0??get_pkcs11_error@@YA?AV?$shared_ptr@V?$basic_string@DU?$char_traits@D@std@@V?$allocator@D@2@@std@@@std@@K@Z@4HA 0000000180050e6c f   * CIL library *:* CIL module *
 0001:0004fe78       ?dtor$119@?0??get_pkcs11_error@@YA?AV?$shared_ptr@V?$basic_string@DU?$char_traits@D@std@@V?$allocator@D@2@@std@@@std@@K@Z@4HA 0000000180050e78 f   * CIL library *:* CIL module *
 0001:0004fe84       ?dtor$120@?0??get_pkcs11_error@@YA?AV?$shared_ptr@V?$basic_string@DU?$char_traits@D@std@@V?$allocator@D@2@@std@@@std@@K@Z@4HA 0000000180050e84 f   * CIL library *:* CIL module *
 0001:0004fe90       ?dtor$121@?0??get_pkcs11_error@@YA?AV?$shared_ptr@V?$basic_string@DU?$char_traits@D@std@@V?$allocator@D@2@@std@@@std@@K@Z@4HA 0000000180050e90 f   * CIL library *:* CIL module *
 0001:0004fe9c       ?dtor$122@?0??get_pkcs11_error@@YA?AV?$shared_ptr@V?$basic_string@DU?$char_traits@D@std@@V?$allocator@D@2@@std@@@std@@K@Z@4HA 0000000180050e9c f   * CIL library *:* CIL module *
 0001:0004fea8       ?dtor$123@?0??get_pkcs11_error@@YA?AV?$shared_ptr@V?$basic_string@DU?$char_traits@D@std@@V?$allocator@D@2@@std@@@std@@K@Z@4HA 0000000180050ea8 f   * CIL library *:* CIL module *
 0001:0004feb4       ?dtor$124@?0??get_pkcs11_error@@YA?AV?$shared_ptr@V?$basic_string@DU?$char_traits@D@std@@V?$allocator@D@2@@std@@@std@@K@Z@4HA 0000000180050eb4 f   * CIL library *:* CIL module *
 0001:0004fec0       ?dtor$125@?0??get_pkcs11_error@@YA?AV?$shared_ptr@V?$basic_string@DU?$char_traits@D@std@@V?$allocator@D@2@@std@@@std@@K@Z@4HA 0000000180050ec0 f   * CIL library *:* CIL module *
 0001:0004fecc       ?dtor$126@?0??get_pkcs11_error@@YA?AV?$shared_ptr@V?$basic_string@DU?$char_traits@D@std@@V?$allocator@D@2@@std@@@std@@K@Z@4HA 0000000180050ecc f   * CIL library *:* CIL module *
 0001:0004fed8       ?dtor$127@?0??get_pkcs11_error@@YA?AV?$shared_ptr@V?$basic_string@DU?$char_traits@D@std@@V?$allocator@D@2@@std@@@std@@K@Z@4HA 0000000180050ed8 f   * CIL library *:* CIL module *
 0001:0004fee4       ?dtor$128@?0??get_pkcs11_error@@YA?AV?$shared_ptr@V?$basic_string@DU?$char_traits@D@std@@V?$allocator@D@2@@std@@@std@@K@Z@4HA 0000000180050ee4 f   * CIL library *:* CIL module *
 0001:0004fef0       ?dtor$129@?0??get_pkcs11_error@@YA?AV?$shared_ptr@V?$basic_string@DU?$char_traits@D@std@@V?$allocator@D@2@@std@@@std@@K@Z@4HA 0000000180050ef0 f   * CIL library *:* CIL module *
 0001:0004fefc       ?dtor$130@?0??get_pkcs11_error@@YA?AV?$shared_ptr@V?$basic_string@DU?$char_traits@D@std@@V?$allocator@D@2@@std@@@std@@K@Z@4HA 0000000180050efc f   * CIL library *:* CIL module *
 0001:0004ff08       ?dtor$131@?0??get_pkcs11_error@@YA?AV?$shared_ptr@V?$basic_string@DU?$char_traits@D@std@@V?$allocator@D@2@@std@@@std@@K@Z@4HA 0000000180050f08 f   * CIL library *:* CIL module *
 0001:0004ff14       ?dtor$132@?0??get_pkcs11_error@@YA?AV?$shared_ptr@V?$basic_string@DU?$char_traits@D@std@@V?$allocator@D@2@@std@@@std@@K@Z@4HA 0000000180050f14 f   * CIL library *:* CIL module *
 0001:0004ff20       ?dtor$133@?0??get_pkcs11_error@@YA?AV?$shared_ptr@V?$basic_string@DU?$char_traits@D@std@@V?$allocator@D@2@@std@@@std@@K@Z@4HA 0000000180050f20 f   * CIL library *:* CIL module *
 0001:0004ff2c       ?dtor$134@?0??get_pkcs11_error@@YA?AV?$shared_ptr@V?$basic_string@DU?$char_traits@D@std@@V?$allocator@D@2@@std@@@std@@K@Z@4HA 0000000180050f2c f   * CIL library *:* CIL module *
 0001:0004ff38       ?dtor$135@?0??get_pkcs11_error@@YA?AV?$shared_ptr@V?$basic_string@DU?$char_traits@D@std@@V?$allocator@D@2@@std@@@std@@K@Z@4HA 0000000180050f38 f   * CIL library *:* CIL module *
 0001:0004ff44       ?dtor$136@?0??get_pkcs11_error@@YA?AV?$shared_ptr@V?$basic_string@DU?$char_traits@D@std@@V?$allocator@D@2@@std@@@std@@K@Z@4HA 0000000180050f44 f   * CIL library *:* CIL module *
 0001:0004ff50       ?dtor$137@?0??get_pkcs11_error@@YA?AV?$shared_ptr@V?$basic_string@DU?$char_traits@D@std@@V?$allocator@D@2@@std@@@std@@K@Z@4HA 0000000180050f50 f   * CIL library *:* CIL module *
 0001:0004ff5c       ?dtor$138@?0??get_pkcs11_error@@YA?AV?$shared_ptr@V?$basic_string@DU?$char_traits@D@std@@V?$allocator@D@2@@std@@@std@@K@Z@4HA 0000000180050f5c f   * CIL library *:* CIL module *
 0001:0004ff68       ?dtor$139@?0??get_pkcs11_error@@YA?AV?$shared_ptr@V?$basic_string@DU?$char_traits@D@std@@V?$allocator@D@2@@std@@@std@@K@Z@4HA 0000000180050f68 f   * CIL library *:* CIL module *
 0001:0004ff74       ?dtor$140@?0??get_pkcs11_error@@YA?AV?$shared_ptr@V?$basic_string@DU?$char_traits@D@std@@V?$allocator@D@2@@std@@@std@@K@Z@4HA 0000000180050f74 f   * CIL library *:* CIL module *
 0001:0004ff80       ?dtor$141@?0??get_pkcs11_error@@YA?AV?$shared_ptr@V?$basic_string@DU?$char_traits@D@std@@V?$allocator@D@2@@std@@@std@@K@Z@4HA 0000000180050f80 f   * CIL library *:* CIL module *
 0001:0004ff8c       ?dtor$142@?0??get_pkcs11_error@@YA?AV?$shared_ptr@V?$basic_string@DU?$char_traits@D@std@@V?$allocator@D@2@@std@@@std@@K@Z@4HA 0000000180050f8c f   * CIL library *:* CIL module *
 0001:0004ff98       ?dtor$143@?0??get_pkcs11_error@@YA?AV?$shared_ptr@V?$basic_string@DU?$char_traits@D@std@@V?$allocator@D@2@@std@@@std@@K@Z@4HA 0000000180050f98 f   * CIL library *:* CIL module *
 0001:0004ffa4       ?dtor$144@?0??get_pkcs11_error@@YA?AV?$shared_ptr@V?$basic_string@DU?$char_traits@D@std@@V?$allocator@D@2@@std@@@std@@K@Z@4HA 0000000180050fa4 f   * CIL library *:* CIL module *
 0001:0004ffb0       ?dtor$145@?0??get_pkcs11_error@@YA?AV?$shared_ptr@V?$basic_string@DU?$char_traits@D@std@@V?$allocator@D@2@@std@@@std@@K@Z@4HA 0000000180050fb0 f   * CIL library *:* CIL module *
 0001:0004ffbc       ?dtor$146@?0??get_pkcs11_error@@YA?AV?$shared_ptr@V?$basic_string@DU?$char_traits@D@std@@V?$allocator@D@2@@std@@@std@@K@Z@4HA 0000000180050fbc f   * CIL library *:* CIL module *
 0001:0004ffc8       ?dtor$147@?0??get_pkcs11_error@@YA?AV?$shared_ptr@V?$basic_string@DU?$char_traits@D@std@@V?$allocator@D@2@@std@@@std@@K@Z@4HA 0000000180050fc8 f   * CIL library *:* CIL module *
 0001:0004ffd4       ?dtor$148@?0??get_pkcs11_error@@YA?AV?$shared_ptr@V?$basic_string@DU?$char_traits@D@std@@V?$allocator@D@2@@std@@@std@@K@Z@4HA 0000000180050fd4 f   * CIL library *:* CIL module *
 0001:0004ffe0       ?dtor$149@?0??get_pkcs11_error@@YA?AV?$shared_ptr@V?$basic_string@DU?$char_traits@D@std@@V?$allocator@D@2@@std@@@std@@K@Z@4HA 0000000180050fe0 f   * CIL library *:* CIL module *
 0001:0004ffec       ?dtor$150@?0??get_pkcs11_error@@YA?AV?$shared_ptr@V?$basic_string@DU?$char_traits@D@std@@V?$allocator@D@2@@std@@@std@@K@Z@4HA 0000000180050fec f   * CIL library *:* CIL module *
 0001:0004fff8       ?dtor$151@?0??get_pkcs11_error@@YA?AV?$shared_ptr@V?$basic_string@DU?$char_traits@D@std@@V?$allocator@D@2@@std@@@std@@K@Z@4HA 0000000180050ff8 f   * CIL library *:* CIL module *
 0001:00050004       ?dtor$152@?0??get_pkcs11_error@@YA?AV?$shared_ptr@V?$basic_string@DU?$char_traits@D@std@@V?$allocator@D@2@@std@@@std@@K@Z@4HA 0000000180051004 f   * CIL library *:* CIL module *
 0001:00050010       ?dtor$153@?0??get_pkcs11_error@@YA?AV?$shared_ptr@V?$basic_string@DU?$char_traits@D@std@@V?$allocator@D@2@@std@@@std@@K@Z@4HA 0000000180051010 f   * CIL library *:* CIL module *
 0001:0005001c       ?dtor$154@?0??get_pkcs11_error@@YA?AV?$shared_ptr@V?$basic_string@DU?$char_traits@D@std@@V?$allocator@D@2@@std@@@std@@K@Z@4HA 000000018005101c f   * CIL library *:* CIL module *
 0001:00050028       ?dtor$155@?0??get_pkcs11_error@@YA?AV?$shared_ptr@V?$basic_string@DU?$char_traits@D@std@@V?$allocator@D@2@@std@@@std@@K@Z@4HA 0000000180051028 f   * CIL library *:* CIL module *
 0001:00050034       ?dtor$156@?0??get_pkcs11_error@@YA?AV?$shared_ptr@V?$basic_string@DU?$char_traits@D@std@@V?$allocator@D@2@@std@@@std@@K@Z@4HA 0000000180051034 f   * CIL library *:* CIL module *
 0001:00050040       ?dtor$157@?0??get_pkcs11_error@@YA?AV?$shared_ptr@V?$basic_string@DU?$char_traits@D@std@@V?$allocator@D@2@@std@@@std@@K@Z@4HA 0000000180051040 f   * CIL library *:* CIL module *
 0001:0005004c       ?dtor$158@?0??get_pkcs11_error@@YA?AV?$shared_ptr@V?$basic_string@DU?$char_traits@D@std@@V?$allocator@D@2@@std@@@std@@K@Z@4HA 000000018005104c f   * CIL library *:* CIL module *
 0001:00050058       ?dtor$159@?0??get_pkcs11_error@@YA?AV?$shared_ptr@V?$basic_string@DU?$char_traits@D@std@@V?$allocator@D@2@@std@@@std@@K@Z@4HA 0000000180051058 f   * CIL library *:* CIL module *
 0001:00050064       ?dtor$160@?0??get_pkcs11_error@@YA?AV?$shared_ptr@V?$basic_string@DU?$char_traits@D@std@@V?$allocator@D@2@@std@@@std@@K@Z@4HA 0000000180051064 f   * CIL library *:* CIL module *
 0001:00050070       ?dtor$161@?0??get_pkcs11_error@@YA?AV?$shared_ptr@V?$basic_string@DU?$char_traits@D@std@@V?$allocator@D@2@@std@@@std@@K@Z@4HA 0000000180051070 f   * CIL library *:* CIL module *
 0001:0005007c       ?dtor$162@?0??get_pkcs11_error@@YA?AV?$shared_ptr@V?$basic_string@DU?$char_traits@D@std@@V?$allocator@D@2@@std@@@std@@K@Z@4HA 000000018005107c f   * CIL library *:* CIL module *
 0001:00050088       ?dtor$163@?0??get_pkcs11_error@@YA?AV?$shared_ptr@V?$basic_string@DU?$char_traits@D@std@@V?$allocator@D@2@@std@@@std@@K@Z@4HA 0000000180051088 f   * CIL library *:* CIL module *
 0001:00050094       ?dtor$164@?0??get_pkcs11_error@@YA?AV?$shared_ptr@V?$basic_string@DU?$char_traits@D@std@@V?$allocator@D@2@@std@@@std@@K@Z@4HA 0000000180051094 f   * CIL library *:* CIL module *
 0001:000500a0       ?dtor$165@?0??get_pkcs11_error@@YA?AV?$shared_ptr@V?$basic_string@DU?$char_traits@D@std@@V?$allocator@D@2@@std@@@std@@K@Z@4HA 00000001800510a0 f   * CIL library *:* CIL module *
 0001:000500ac       ?dtor$166@?0??get_pkcs11_error@@YA?AV?$shared_ptr@V?$basic_string@DU?$char_traits@D@std@@V?$allocator@D@2@@std@@@std@@K@Z@4HA 00000001800510ac f   * CIL library *:* CIL module *
 0001:000500b8       ?dtor$167@?0??get_pkcs11_error@@YA?AV?$shared_ptr@V?$basic_string@DU?$char_traits@D@std@@V?$allocator@D@2@@std@@@std@@K@Z@4HA 00000001800510b8 f   * CIL library *:* CIL module *
 0001:000500c4       ?dtor$168@?0??get_pkcs11_error@@YA?AV?$shared_ptr@V?$basic_string@DU?$char_traits@D@std@@V?$allocator@D@2@@std@@@std@@K@Z@4HA 00000001800510c4 f   * CIL library *:* CIL module *
 0001:000500d0       ?dtor$169@?0??get_pkcs11_error@@YA?AV?$shared_ptr@V?$basic_string@DU?$char_traits@D@std@@V?$allocator@D@2@@std@@@std@@K@Z@4HA 00000001800510d0 f   * CIL library *:* CIL module *
 0001:000500dc       ?dtor$170@?0??get_pkcs11_error@@YA?AV?$shared_ptr@V?$basic_string@DU?$char_traits@D@std@@V?$allocator@D@2@@std@@@std@@K@Z@4HA 00000001800510dc f   * CIL library *:* CIL module *
 0001:000500e8       ?dtor$171@?0??get_pkcs11_error@@YA?AV?$shared_ptr@V?$basic_string@DU?$char_traits@D@std@@V?$allocator@D@2@@std@@@std@@K@Z@4HA 00000001800510e8 f   * CIL library *:* CIL module *
 0001:000500f4       ?dtor$172@?0??get_pkcs11_error@@YA?AV?$shared_ptr@V?$basic_string@DU?$char_traits@D@std@@V?$allocator@D@2@@std@@@std@@K@Z@4HA 00000001800510f4 f   * CIL library *:* CIL module *
 0001:00050100       ?dtor$173@?0??get_pkcs11_error@@YA?AV?$shared_ptr@V?$basic_string@DU?$char_traits@D@std@@V?$allocator@D@2@@std@@@std@@K@Z@4HA 0000000180051100 f   * CIL library *:* CIL module *
 0001:0005010c       ?dtor$174@?0??get_pkcs11_error@@YA?AV?$shared_ptr@V?$basic_string@DU?$char_traits@D@std@@V?$allocator@D@2@@std@@@std@@K@Z@4HA 000000018005110c f   * CIL library *:* CIL module *
 0001:00050118       ?dtor$175@?0??get_pkcs11_error@@YA?AV?$shared_ptr@V?$basic_string@DU?$char_traits@D@std@@V?$allocator@D@2@@std@@@std@@K@Z@4HA 0000000180051118 f   * CIL library *:* CIL module *
 0001:00050124       ?dtor$176@?0??get_pkcs11_error@@YA?AV?$shared_ptr@V?$basic_string@DU?$char_traits@D@std@@V?$allocator@D@2@@std@@@std@@K@Z@4HA 0000000180051124 f   * CIL library *:* CIL module *
 0001:00050130       ?dtor$177@?0??get_pkcs11_error@@YA?AV?$shared_ptr@V?$basic_string@DU?$char_traits@D@std@@V?$allocator@D@2@@std@@@std@@K@Z@4HA 0000000180051130 f   * CIL library *:* CIL module *
 0001:0005013c       ?dtor$178@?0??get_pkcs11_error@@YA?AV?$shared_ptr@V?$basic_string@DU?$char_traits@D@std@@V?$allocator@D@2@@std@@@std@@K@Z@4HA 000000018005113c f   * CIL library *:* CIL module *
 0001:00050148       ?dtor$179@?0??get_pkcs11_error@@YA?AV?$shared_ptr@V?$basic_string@DU?$char_traits@D@std@@V?$allocator@D@2@@std@@@std@@K@Z@4HA 0000000180051148 f   * CIL library *:* CIL module *
 0001:00050154       ?dtor$180@?0??get_pkcs11_error@@YA?AV?$shared_ptr@V?$basic_string@DU?$char_traits@D@std@@V?$allocator@D@2@@std@@@std@@K@Z@4HA 0000000180051154 f   * CIL library *:* CIL module *
 0001:00050160       ?dtor$181@?0??get_pkcs11_error@@YA?AV?$shared_ptr@V?$basic_string@DU?$char_traits@D@std@@V?$allocator@D@2@@std@@@std@@K@Z@4HA 0000000180051160 f   * CIL library *:* CIL module *
 0001:0005016c       ?dtor$182@?0??get_pkcs11_error@@YA?AV?$shared_ptr@V?$basic_string@DU?$char_traits@D@std@@V?$allocator@D@2@@std@@@std@@K@Z@4HA 000000018005116c f   * CIL library *:* CIL module *
 0001:00050178       ?dtor$183@?0??get_pkcs11_error@@YA?AV?$shared_ptr@V?$basic_string@DU?$char_traits@D@std@@V?$allocator@D@2@@std@@@std@@K@Z@4HA 0000000180051178 f   * CIL library *:* CIL module *
 0001:00050184       ?dtor$184@?0??get_pkcs11_error@@YA?AV?$shared_ptr@V?$basic_string@DU?$char_traits@D@std@@V?$allocator@D@2@@std@@@std@@K@Z@4HA 0000000180051184 f   * CIL library *:* CIL module *
 0001:00050190       ?dtor$185@?0??get_pkcs11_error@@YA?AV?$shared_ptr@V?$basic_string@DU?$char_traits@D@std@@V?$allocator@D@2@@std@@@std@@K@Z@4HA 0000000180051190 f   * CIL library *:* CIL module *
 0001:0005019c       ?dtor$186@?0??get_pkcs11_error@@YA?AV?$shared_ptr@V?$basic_string@DU?$char_traits@D@std@@V?$allocator@D@2@@std@@@std@@K@Z@4HA 000000018005119c f   * CIL library *:* CIL module *
 0001:000501a8       ?dtor$187@?0??get_pkcs11_error@@YA?AV?$shared_ptr@V?$basic_string@DU?$char_traits@D@std@@V?$allocator@D@2@@std@@@std@@K@Z@4HA 00000001800511a8 f   * CIL library *:* CIL module *
 0001:000501b4       ?dtor$188@?0??get_pkcs11_error@@YA?AV?$shared_ptr@V?$basic_string@DU?$char_traits@D@std@@V?$allocator@D@2@@std@@@std@@K@Z@4HA 00000001800511b4 f   * CIL library *:* CIL module *
 0001:000501c0       ?dtor$189@?0??get_pkcs11_error@@YA?AV?$shared_ptr@V?$basic_string@DU?$char_traits@D@std@@V?$allocator@D@2@@std@@@std@@K@Z@4HA 00000001800511c0 f   * CIL library *:* CIL module *
 0001:000501cc       ?dtor$190@?0??get_pkcs11_error@@YA?AV?$shared_ptr@V?$basic_string@DU?$char_traits@D@std@@V?$allocator@D@2@@std@@@std@@K@Z@4HA 00000001800511cc f   * CIL library *:* CIL module *
 0001:000501d8       ?dtor$191@?0??get_pkcs11_error@@YA?AV?$shared_ptr@V?$basic_string@DU?$char_traits@D@std@@V?$allocator@D@2@@std@@@std@@K@Z@4HA 00000001800511d8 f   * CIL library *:* CIL module *
 0001:000501e4       ?dtor$192@?0??get_pkcs11_error@@YA?AV?$shared_ptr@V?$basic_string@DU?$char_traits@D@std@@V?$allocator@D@2@@std@@@std@@K@Z@4HA 00000001800511e4 f   * CIL library *:* CIL module *
 0001:000501f0       ?dtor$193@?0??get_pkcs11_error@@YA?AV?$shared_ptr@V?$basic_string@DU?$char_traits@D@std@@V?$allocator@D@2@@std@@@std@@K@Z@4HA 00000001800511f0 f   * CIL library *:* CIL module *
 0001:000501fc       ?dtor$194@?0??get_pkcs11_error@@YA?AV?$shared_ptr@V?$basic_string@DU?$char_traits@D@std@@V?$allocator@D@2@@std@@@std@@K@Z@4HA 00000001800511fc f   * CIL library *:* CIL module *
 0001:00050208       ?dtor$195@?0??get_pkcs11_error@@YA?AV?$shared_ptr@V?$basic_string@DU?$char_traits@D@std@@V?$allocator@D@2@@std@@@std@@K@Z@4HA 0000000180051208 f   * CIL library *:* CIL module *
 0001:00050214       ?dtor$196@?0??get_pkcs11_error@@YA?AV?$shared_ptr@V?$basic_string@DU?$char_traits@D@std@@V?$allocator@D@2@@std@@@std@@K@Z@4HA 0000000180051214 f   * CIL library *:* CIL module *
 0001:00050220       ?dtor$197@?0??get_pkcs11_error@@YA?AV?$shared_ptr@V?$basic_string@DU?$char_traits@D@std@@V?$allocator@D@2@@std@@@std@@K@Z@4HA 0000000180051220 f   * CIL library *:* CIL module *
 0001:0005022c       ?dtor$198@?0??get_pkcs11_error@@YA?AV?$shared_ptr@V?$basic_string@DU?$char_traits@D@std@@V?$allocator@D@2@@std@@@std@@K@Z@4HA 000000018005122c f   * CIL library *:* CIL module *
 0001:00050238       ?dtor$199@?0??get_pkcs11_error@@YA?AV?$shared_ptr@V?$basic_string@DU?$char_traits@D@std@@V?$allocator@D@2@@std@@@std@@K@Z@4HA 0000000180051238 f   * CIL library *:* CIL module *
 0001:00050244       ?dtor$200@?0??get_pkcs11_error@@YA?AV?$shared_ptr@V?$basic_string@DU?$char_traits@D@std@@V?$allocator@D@2@@std@@@std@@K@Z@4HA 0000000180051244 f   * CIL library *:* CIL module *
 0001:00050250       ?dtor$201@?0??get_pkcs11_error@@YA?AV?$shared_ptr@V?$basic_string@DU?$char_traits@D@std@@V?$allocator@D@2@@std@@@std@@K@Z@4HA 0000000180051250 f   * CIL library *:* CIL module *
 0001:0005025c       ?dtor$202@?0??get_pkcs11_error@@YA?AV?$shared_ptr@V?$basic_string@DU?$char_traits@D@std@@V?$allocator@D@2@@std@@@std@@K@Z@4HA 000000018005125c f   * CIL library *:* CIL module *
 0001:00050268       ?dtor$203@?0??get_pkcs11_error@@YA?AV?$shared_ptr@V?$basic_string@DU?$char_traits@D@std@@V?$allocator@D@2@@std@@@std@@K@Z@4HA 0000000180051268 f   * CIL library *:* CIL module *
 0001:00050274       ?dtor$204@?0??get_pkcs11_error@@YA?AV?$shared_ptr@V?$basic_string@DU?$char_traits@D@std@@V?$allocator@D@2@@std@@@std@@K@Z@4HA 0000000180051274 f   * CIL library *:* CIL module *
 0001:00050280       ?dtor$205@?0??get_pkcs11_error@@YA?AV?$shared_ptr@V?$basic_string@DU?$char_traits@D@std@@V?$allocator@D@2@@std@@@std@@K@Z@4HA 0000000180051280 f   * CIL library *:* CIL module *
 0001:0005028c       ?dtor$206@?0??get_pkcs11_error@@YA?AV?$shared_ptr@V?$basic_string@DU?$char_traits@D@std@@V?$allocator@D@2@@std@@@std@@K@Z@4HA 000000018005128c f   * CIL library *:* CIL module *
 0001:00050298       ?dtor$207@?0??get_pkcs11_error@@YA?AV?$shared_ptr@V?$basic_string@DU?$char_traits@D@std@@V?$allocator@D@2@@std@@@std@@K@Z@4HA 0000000180051298 f   * CIL library *:* CIL module *
 0001:000502a4       ?dtor$208@?0??get_pkcs11_error@@YA?AV?$shared_ptr@V?$basic_string@DU?$char_traits@D@std@@V?$allocator@D@2@@std@@@std@@K@Z@4HA 00000001800512a4 f   * CIL library *:* CIL module *
 0001:000502b0       ?dtor$209@?0??get_pkcs11_error@@YA?AV?$shared_ptr@V?$basic_string@DU?$char_traits@D@std@@V?$allocator@D@2@@std@@@std@@K@Z@4HA 00000001800512b0 f   * CIL library *:* CIL module *
 0001:000502bc       ?dtor$210@?0??get_pkcs11_error@@YA?AV?$shared_ptr@V?$basic_string@DU?$char_traits@D@std@@V?$allocator@D@2@@std@@@std@@K@Z@4HA 00000001800512bc f   * CIL library *:* CIL module *
 0001:000502c8       ?dtor$211@?0??get_pkcs11_error@@YA?AV?$shared_ptr@V?$basic_string@DU?$char_traits@D@std@@V?$allocator@D@2@@std@@@std@@K@Z@4HA 00000001800512c8 f   * CIL library *:* CIL module *
 0001:000502d4       ?dtor$212@?0??get_pkcs11_error@@YA?AV?$shared_ptr@V?$basic_string@DU?$char_traits@D@std@@V?$allocator@D@2@@std@@@std@@K@Z@4HA 00000001800512d4 f   * CIL library *:* CIL module *
 0001:000502e0       ?dtor$213@?0??get_pkcs11_error@@YA?AV?$shared_ptr@V?$basic_string@DU?$char_traits@D@std@@V?$allocator@D@2@@std@@@std@@K@Z@4HA 00000001800512e0 f   * CIL library *:* CIL module *
 0001:000502ec       ?dtor$214@?0??get_pkcs11_error@@YA?AV?$shared_ptr@V?$basic_string@DU?$char_traits@D@std@@V?$allocator@D@2@@std@@@std@@K@Z@4HA 00000001800512ec f   * CIL library *:* CIL module *
 0001:000502f8       ?dtor$215@?0??get_pkcs11_error@@YA?AV?$shared_ptr@V?$basic_string@DU?$char_traits@D@std@@V?$allocator@D@2@@std@@@std@@K@Z@4HA 00000001800512f8 f   * CIL library *:* CIL module *
 0001:00050304       ?dtor$216@?0??get_pkcs11_error@@YA?AV?$shared_ptr@V?$basic_string@DU?$char_traits@D@std@@V?$allocator@D@2@@std@@@std@@K@Z@4HA 0000000180051304 f   * CIL library *:* CIL module *
 0001:00050310       ?dtor$217@?0??get_pkcs11_error@@YA?AV?$shared_ptr@V?$basic_string@DU?$char_traits@D@std@@V?$allocator@D@2@@std@@@std@@K@Z@4HA 0000000180051310 f   * CIL library *:* CIL module *
 0001:0005031c       ?dtor$218@?0??get_pkcs11_error@@YA?AV?$shared_ptr@V?$basic_string@DU?$char_traits@D@std@@V?$allocator@D@2@@std@@@std@@K@Z@4HA 000000018005131c f   * CIL library *:* CIL module *
 0001:00050328       ?dtor$219@?0??get_pkcs11_error@@YA?AV?$shared_ptr@V?$basic_string@DU?$char_traits@D@std@@V?$allocator@D@2@@std@@@std@@K@Z@4HA 0000000180051328 f   * CIL library *:* CIL module *
 0001:00050334       ?dtor$220@?0??get_pkcs11_error@@YA?AV?$shared_ptr@V?$basic_string@DU?$char_traits@D@std@@V?$allocator@D@2@@std@@@std@@K@Z@4HA 0000000180051334 f   * CIL library *:* CIL module *
 0001:00050340       ?dtor$221@?0??get_pkcs11_error@@YA?AV?$shared_ptr@V?$basic_string@DU?$char_traits@D@std@@V?$allocator@D@2@@std@@@std@@K@Z@4HA 0000000180051340 f   * CIL library *:* CIL module *
 0001:0005034c       ?dtor$222@?0??get_pkcs11_error@@YA?AV?$shared_ptr@V?$basic_string@DU?$char_traits@D@std@@V?$allocator@D@2@@std@@@std@@K@Z@4HA 000000018005134c f   * CIL library *:* CIL module *
 0001:00050358       ?dtor$223@?0??get_pkcs11_error@@YA?AV?$shared_ptr@V?$basic_string@DU?$char_traits@D@std@@V?$allocator@D@2@@std@@@std@@K@Z@4HA 0000000180051358 f   * CIL library *:* CIL module *
 0001:00050364       ?dtor$224@?0??get_pkcs11_error@@YA?AV?$shared_ptr@V?$basic_string@DU?$char_traits@D@std@@V?$allocator@D@2@@std@@@std@@K@Z@4HA 0000000180051364 f   * CIL library *:* CIL module *
 0001:00050370       ?dtor$225@?0??get_pkcs11_error@@YA?AV?$shared_ptr@V?$basic_string@DU?$char_traits@D@std@@V?$allocator@D@2@@std@@@std@@K@Z@4HA 0000000180051370 f   * CIL library *:* CIL module *
 0001:0005037c       ?dtor$226@?0??get_pkcs11_error@@YA?AV?$shared_ptr@V?$basic_string@DU?$char_traits@D@std@@V?$allocator@D@2@@std@@@std@@K@Z@4HA 000000018005137c f   * CIL library *:* CIL module *
 0001:00050388       ?dtor$227@?0??get_pkcs11_error@@YA?AV?$shared_ptr@V?$basic_string@DU?$char_traits@D@std@@V?$allocator@D@2@@std@@@std@@K@Z@4HA 0000000180051388 f   * CIL library *:* CIL module *
 0001:00050394       ?dtor$228@?0??get_pkcs11_error@@YA?AV?$shared_ptr@V?$basic_string@DU?$char_traits@D@std@@V?$allocator@D@2@@std@@@std@@K@Z@4HA 0000000180051394 f   * CIL library *:* CIL module *
 0001:000503a0       ?dtor$229@?0??get_pkcs11_error@@YA?AV?$shared_ptr@V?$basic_string@DU?$char_traits@D@std@@V?$allocator@D@2@@std@@@std@@K@Z@4HA 00000001800513a0 f   * CIL library *:* CIL module *
 0001:000503ac       ?dtor$230@?0??get_pkcs11_error@@YA?AV?$shared_ptr@V?$basic_string@DU?$char_traits@D@std@@V?$allocator@D@2@@std@@@std@@K@Z@4HA 00000001800513ac f   * CIL library *:* CIL module *
 0001:000503b8       ?dtor$231@?0??get_pkcs11_error@@YA?AV?$shared_ptr@V?$basic_string@DU?$char_traits@D@std@@V?$allocator@D@2@@std@@@std@@K@Z@4HA 00000001800513b8 f   * CIL library *:* CIL module *
 0001:000503c4       ?dtor$232@?0??get_pkcs11_error@@YA?AV?$shared_ptr@V?$basic_string@DU?$char_traits@D@std@@V?$allocator@D@2@@std@@@std@@K@Z@4HA 00000001800513c4 f   * CIL library *:* CIL module *
 0001:000503d0       ?dtor$233@?0??get_pkcs11_error@@YA?AV?$shared_ptr@V?$basic_string@DU?$char_traits@D@std@@V?$allocator@D@2@@std@@@std@@K@Z@4HA 00000001800513d0 f   * CIL library *:* CIL module *
 0001:000503dc       ?dtor$234@?0??get_pkcs11_error@@YA?AV?$shared_ptr@V?$basic_string@DU?$char_traits@D@std@@V?$allocator@D@2@@std@@@std@@K@Z@4HA 00000001800513dc f   * CIL library *:* CIL module *
 0001:000503e8       ?dtor$235@?0??get_pkcs11_error@@YA?AV?$shared_ptr@V?$basic_string@DU?$char_traits@D@std@@V?$allocator@D@2@@std@@@std@@K@Z@4HA 00000001800513e8 f   * CIL library *:* CIL module *
 0001:000503f4       ?dtor$236@?0??get_pkcs11_error@@YA?AV?$shared_ptr@V?$basic_string@DU?$char_traits@D@std@@V?$allocator@D@2@@std@@@std@@K@Z@4HA 00000001800513f4 f   * CIL library *:* CIL module *
 0001:00050400       ?dtor$237@?0??get_pkcs11_error@@YA?AV?$shared_ptr@V?$basic_string@DU?$char_traits@D@std@@V?$allocator@D@2@@std@@@std@@K@Z@4HA 0000000180051400 f   * CIL library *:* CIL module *
 0001:0005040c       ?dtor$238@?0??get_pkcs11_error@@YA?AV?$shared_ptr@V?$basic_string@DU?$char_traits@D@std@@V?$allocator@D@2@@std@@@std@@K@Z@4HA 000000018005140c f   * CIL library *:* CIL module *
 0001:00050418       ?dtor$239@?0??get_pkcs11_error@@YA?AV?$shared_ptr@V?$basic_string@DU?$char_traits@D@std@@V?$allocator@D@2@@std@@@std@@K@Z@4HA 0000000180051418 f   * CIL library *:* CIL module *
 0001:00050424       ?dtor$240@?0??get_pkcs11_error@@YA?AV?$shared_ptr@V?$basic_string@DU?$char_traits@D@std@@V?$allocator@D@2@@std@@@std@@K@Z@4HA 0000000180051424 f   * CIL library *:* CIL module *
 0001:00050430       ?dtor$241@?0??get_pkcs11_error@@YA?AV?$shared_ptr@V?$basic_string@DU?$char_traits@D@std@@V?$allocator@D@2@@std@@@std@@K@Z@4HA 0000000180051430 f   * CIL library *:* CIL module *
 0001:0005043c       ?dtor$242@?0??get_pkcs11_error@@YA?AV?$shared_ptr@V?$basic_string@DU?$char_traits@D@std@@V?$allocator@D@2@@std@@@std@@K@Z@4HA 000000018005143c f   * CIL library *:* CIL module *
 0001:00050448       ?dtor$243@?0??get_pkcs11_error@@YA?AV?$shared_ptr@V?$basic_string@DU?$char_traits@D@std@@V?$allocator@D@2@@std@@@std@@K@Z@4HA 0000000180051448 f   * CIL library *:* CIL module *
 0001:00050454       ?dtor$244@?0??get_pkcs11_error@@YA?AV?$shared_ptr@V?$basic_string@DU?$char_traits@D@std@@V?$allocator@D@2@@std@@@std@@K@Z@4HA 0000000180051454 f   * CIL library *:* CIL module *
 0001:00050460       ?dtor$245@?0??get_pkcs11_error@@YA?AV?$shared_ptr@V?$basic_string@DU?$char_traits@D@std@@V?$allocator@D@2@@std@@@std@@K@Z@4HA 0000000180051460 f   * CIL library *:* CIL module *
 0001:0005046c       ?dtor$246@?0??get_pkcs11_error@@YA?AV?$shared_ptr@V?$basic_string@DU?$char_traits@D@std@@V?$allocator@D@2@@std@@@std@@K@Z@4HA 000000018005146c f   * CIL library *:* CIL module *
 0001:00050478       ?dtor$247@?0??get_pkcs11_error@@YA?AV?$shared_ptr@V?$basic_string@DU?$char_traits@D@std@@V?$allocator@D@2@@std@@@std@@K@Z@4HA 0000000180051478 f   * CIL library *:* CIL module *
 0001:00050484       ?dtor$248@?0??get_pkcs11_error@@YA?AV?$shared_ptr@V?$basic_string@DU?$char_traits@D@std@@V?$allocator@D@2@@std@@@std@@K@Z@4HA 0000000180051484 f   * CIL library *:* CIL module *
 0001:00050490       ?dtor$249@?0??get_pkcs11_error@@YA?AV?$shared_ptr@V?$basic_string@DU?$char_traits@D@std@@V?$allocator@D@2@@std@@@std@@K@Z@4HA 0000000180051490 f   * CIL library *:* CIL module *
 0001:0005049c       ?dtor$250@?0??get_pkcs11_error@@YA?AV?$shared_ptr@V?$basic_string@DU?$char_traits@D@std@@V?$allocator@D@2@@std@@@std@@K@Z@4HA 000000018005149c f   * CIL library *:* CIL module *
 0001:000504a8       ?dtor$251@?0??get_pkcs11_error@@YA?AV?$shared_ptr@V?$basic_string@DU?$char_traits@D@std@@V?$allocator@D@2@@std@@@std@@K@Z@4HA 00000001800514a8 f   * CIL library *:* CIL module *
 0001:000504b4       ?dtor$252@?0??get_pkcs11_error@@YA?AV?$shared_ptr@V?$basic_string@DU?$char_traits@D@std@@V?$allocator@D@2@@std@@@std@@K@Z@4HA 00000001800514b4 f   * CIL library *:* CIL module *
 0001:000504c0       ?dtor$253@?0??get_pkcs11_error@@YA?AV?$shared_ptr@V?$basic_string@DU?$char_traits@D@std@@V?$allocator@D@2@@std@@@std@@K@Z@4HA 00000001800514c0 f   * CIL library *:* CIL module *
 0001:000504cc       ?dtor$254@?0??get_pkcs11_error@@YA?AV?$shared_ptr@V?$basic_string@DU?$char_traits@D@std@@V?$allocator@D@2@@std@@@std@@K@Z@4HA 00000001800514cc f   * CIL library *:* CIL module *
 0001:000504d8       ?dtor$255@?0??get_pkcs11_error@@YA?AV?$shared_ptr@V?$basic_string@DU?$char_traits@D@std@@V?$allocator@D@2@@std@@@std@@K@Z@4HA 00000001800514d8 f   * CIL library *:* CIL module *
 0001:000504e4       ?dtor$256@?0??get_pkcs11_error@@YA?AV?$shared_ptr@V?$basic_string@DU?$char_traits@D@std@@V?$allocator@D@2@@std@@@std@@K@Z@4HA 00000001800514e4 f   * CIL library *:* CIL module *
 0001:000504f0       ?dtor$257@?0??get_pkcs11_error@@YA?AV?$shared_ptr@V?$basic_string@DU?$char_traits@D@std@@V?$allocator@D@2@@std@@@std@@K@Z@4HA 00000001800514f0 f   * CIL library *:* CIL module *
 0001:000504fc       ?dtor$258@?0??get_pkcs11_error@@YA?AV?$shared_ptr@V?$basic_string@DU?$char_traits@D@std@@V?$allocator@D@2@@std@@@std@@K@Z@4HA 00000001800514fc f   * CIL library *:* CIL module *
 0001:00050508       ?dtor$259@?0??get_pkcs11_error@@YA?AV?$shared_ptr@V?$basic_string@DU?$char_traits@D@std@@V?$allocator@D@2@@std@@@std@@K@Z@4HA 0000000180051508 f   * CIL library *:* CIL module *
 0001:00050514       ?dtor$260@?0??get_pkcs11_error@@YA?AV?$shared_ptr@V?$basic_string@DU?$char_traits@D@std@@V?$allocator@D@2@@std@@@std@@K@Z@4HA 0000000180051514 f   * CIL library *:* CIL module *
 0001:00050520       ?dtor$261@?0??get_pkcs11_error@@YA?AV?$shared_ptr@V?$basic_string@DU?$char_traits@D@std@@V?$allocator@D@2@@std@@@std@@K@Z@4HA 0000000180051520 f   * CIL library *:* CIL module *
 0001:0005052c       ?dtor$262@?0??get_pkcs11_error@@YA?AV?$shared_ptr@V?$basic_string@DU?$char_traits@D@std@@V?$allocator@D@2@@std@@@std@@K@Z@4HA 000000018005152c f   * CIL library *:* CIL module *
 0001:00050538       ?dtor$263@?0??get_pkcs11_error@@YA?AV?$shared_ptr@V?$basic_string@DU?$char_traits@D@std@@V?$allocator@D@2@@std@@@std@@K@Z@4HA 0000000180051538 f   * CIL library *:* CIL module *
 0001:00050544       ?dtor$264@?0??get_pkcs11_error@@YA?AV?$shared_ptr@V?$basic_string@DU?$char_traits@D@std@@V?$allocator@D@2@@std@@@std@@K@Z@4HA 0000000180051544 f   * CIL library *:* CIL module *
 0001:00050550       ?dtor$265@?0??get_pkcs11_error@@YA?AV?$shared_ptr@V?$basic_string@DU?$char_traits@D@std@@V?$allocator@D@2@@std@@@std@@K@Z@4HA 0000000180051550 f   * CIL library *:* CIL module *
 0001:0005055c       ?dtor$266@?0??get_pkcs11_error@@YA?AV?$shared_ptr@V?$basic_string@DU?$char_traits@D@std@@V?$allocator@D@2@@std@@@std@@K@Z@4HA 000000018005155c f   * CIL library *:* CIL module *
 0001:00050568       ?dtor$267@?0??get_pkcs11_error@@YA?AV?$shared_ptr@V?$basic_string@DU?$char_traits@D@std@@V?$allocator@D@2@@std@@@std@@K@Z@4HA 0000000180051568 f   * CIL library *:* CIL module *
 0001:00050574       ?dtor$268@?0??get_pkcs11_error@@YA?AV?$shared_ptr@V?$basic_string@DU?$char_traits@D@std@@V?$allocator@D@2@@std@@@std@@K@Z@4HA 0000000180051574 f   * CIL library *:* CIL module *
 0001:00050580       ?dtor$269@?0??get_pkcs11_error@@YA?AV?$shared_ptr@V?$basic_string@DU?$char_traits@D@std@@V?$allocator@D@2@@std@@@std@@K@Z@4HA 0000000180051580 f   * CIL library *:* CIL module *
 0001:0005058c       ?dtor$270@?0??get_pkcs11_error@@YA?AV?$shared_ptr@V?$basic_string@DU?$char_traits@D@std@@V?$allocator@D@2@@std@@@std@@K@Z@4HA 000000018005158c f   * CIL library *:* CIL module *
 0001:00050598       ?dtor$271@?0??get_pkcs11_error@@YA?AV?$shared_ptr@V?$basic_string@DU?$char_traits@D@std@@V?$allocator@D@2@@std@@@std@@K@Z@4HA 0000000180051598 f   * CIL library *:* CIL module *
 0001:000505a4       ?dtor$272@?0??get_pkcs11_error@@YA?AV?$shared_ptr@V?$basic_string@DU?$char_traits@D@std@@V?$allocator@D@2@@std@@@std@@K@Z@4HA 00000001800515a4 f   * CIL library *:* CIL module *
 0001:000505b0       ?dtor$273@?0??get_pkcs11_error@@YA?AV?$shared_ptr@V?$basic_string@DU?$char_traits@D@std@@V?$allocator@D@2@@std@@@std@@K@Z@4HA 00000001800515b0 f   * CIL library *:* CIL module *
 0001:000505bc       ?dtor$274@?0??get_pkcs11_error@@YA?AV?$shared_ptr@V?$basic_string@DU?$char_traits@D@std@@V?$allocator@D@2@@std@@@std@@K@Z@4HA 00000001800515bc f   * CIL library *:* CIL module *
 0001:000505c8       ?dtor$275@?0??get_pkcs11_error@@YA?AV?$shared_ptr@V?$basic_string@DU?$char_traits@D@std@@V?$allocator@D@2@@std@@@std@@K@Z@4HA 00000001800515c8 f   * CIL library *:* CIL module *
 0001:000505d4       ?dtor$276@?0??get_pkcs11_error@@YA?AV?$shared_ptr@V?$basic_string@DU?$char_traits@D@std@@V?$allocator@D@2@@std@@@std@@K@Z@4HA 00000001800515d4 f   * CIL library *:* CIL module *
 0001:000505e0       ?dtor$277@?0??get_pkcs11_error@@YA?AV?$shared_ptr@V?$basic_string@DU?$char_traits@D@std@@V?$allocator@D@2@@std@@@std@@K@Z@4HA 00000001800515e0 f   * CIL library *:* CIL module *
 0001:000505ec       ?dtor$278@?0??get_pkcs11_error@@YA?AV?$shared_ptr@V?$basic_string@DU?$char_traits@D@std@@V?$allocator@D@2@@std@@@std@@K@Z@4HA 00000001800515ec f   * CIL library *:* CIL module *
 0001:000505f8       ?dtor$279@?0??get_pkcs11_error@@YA?AV?$shared_ptr@V?$basic_string@DU?$char_traits@D@std@@V?$allocator@D@2@@std@@@std@@K@Z@4HA 00000001800515f8 f   * CIL library *:* CIL module *
 0001:00050604       ?dtor$280@?0??get_pkcs11_error@@YA?AV?$shared_ptr@V?$basic_string@DU?$char_traits@D@std@@V?$allocator@D@2@@std@@@std@@K@Z@4HA 0000000180051604 f   * CIL library *:* CIL module *
 0001:00050610       ?dtor$281@?0??get_pkcs11_error@@YA?AV?$shared_ptr@V?$basic_string@DU?$char_traits@D@std@@V?$allocator@D@2@@std@@@std@@K@Z@4HA 0000000180051610 f   * CIL library *:* CIL module *
 0001:0005061c       ?dtor$282@?0??get_pkcs11_error@@YA?AV?$shared_ptr@V?$basic_string@DU?$char_traits@D@std@@V?$allocator@D@2@@std@@@std@@K@Z@4HA 000000018005161c f   * CIL library *:* CIL module *
 0001:00050628       ?dtor$283@?0??get_pkcs11_error@@YA?AV?$shared_ptr@V?$basic_string@DU?$char_traits@D@std@@V?$allocator@D@2@@std@@@std@@K@Z@4HA 0000000180051628 f   * CIL library *:* CIL module *
 0001:00050640       ?dtor$0@?0???0PKCS11@@QEAA@XZ@4HA 0000000180051640 f   * CIL library *:* CIL module *
 0001:0005064c       ?dtor$1@?0???0PKCS11@@QEAA@XZ@4HA 000000018005164c f   * CIL library *:* CIL module *
 0001:00050660       ?dtor$0@?0??Load@PKCS11@@QEAAXV?$shared_ptr@V?$basic_string@DU?$char_traits@D@std@@V?$allocator@D@2@@std@@@std@@@Z@4HA 0000000180051660 f   * CIL library *:* CIL module *
 0001:0005066c       ?dtor$1@?0??Load@PKCS11@@QEAAXV?$shared_ptr@V?$basic_string@DU?$char_traits@D@std@@V?$allocator@D@2@@std@@@std@@@Z@4HA 000000018005166c f   * CIL library *:* CIL module *
 0001:00050678       ?dtor$3@?0??Load@PKCS11@@QEAAXV?$shared_ptr@V?$basic_string@DU?$char_traits@D@std@@V?$allocator@D@2@@std@@@std@@@Z@4HA 0000000180051678 f   * CIL library *:* CIL module *
 0001:00050684       ?dtor$5@?0??Load@PKCS11@@QEAAXV?$shared_ptr@V?$basic_string@DU?$char_traits@D@std@@V?$allocator@D@2@@std@@@std@@@Z@4HA 0000000180051684 f   * CIL library *:* CIL module *
 0001:00050690       ?dtor$6@?0??Load@PKCS11@@QEAAXV?$shared_ptr@V?$basic_string@DU?$char_traits@D@std@@V?$allocator@D@2@@std@@@std@@@Z@4HA 0000000180051690 f   * CIL library *:* CIL module *
 0001:0005069c       ?dtor$7@?0??Load@PKCS11@@QEAAXV?$shared_ptr@V?$basic_string@DU?$char_traits@D@std@@V?$allocator@D@2@@std@@@std@@@Z@4HA 000000018005169c f   * CIL library *:* CIL module *
 0001:000506cb       ?catch$0@?0??Load@PKCS11@@QEAAXV?$shared_ptr@V?$basic_string@DU?$char_traits@D@std@@V?$allocator@D@2@@std@@@std@@@Z@4HA 00000001800516cb f   * CIL library *:* CIL module *
 0001:000506d9       __catch$?Load@PKCS11@@QEAAXV?$shared_ptr@V?$basic_string@DU?$char_traits@D@std@@V?$allocator@D@2@@std@@@std@@@Z$0 00000001800516d9 f   * CIL library *:* CIL module *
 0001:0005073e       ?dtor$8@?0??Load@PKCS11@@QEAAXV?$shared_ptr@V?$basic_string@DU?$char_traits@D@std@@V?$allocator@D@2@@std@@@std@@@Z@4HA 000000018005173e f   * CIL library *:* CIL module *
 0001:0005074a       ?catch$1@?0??Load@PKCS11@@QEAAXV?$shared_ptr@V?$basic_string@DU?$char_traits@D@std@@V?$allocator@D@2@@std@@@std@@@Z@4HA 000000018005174a f   * CIL library *:* CIL module *
 0001:0005075a       __catch$?Load@PKCS11@@QEAAXV?$shared_ptr@V?$basic_string@DU?$char_traits@D@std@@V?$allocator@D@2@@std@@@std@@@Z$1 000000018005175a f   * CIL library *:* CIL module *
 0001:00050820       ?dtor$9@?0??Load@PKCS11@@QEAAXV?$shared_ptr@V?$basic_string@DU?$char_traits@D@std@@V?$allocator@D@2@@std@@@std@@@Z@4HA 0000000180051820 f   * CIL library *:* CIL module *
 0001:00050830       ?dtor$0@?0??C_Initialize@PKCS11@@QEAAXPEAX@Z@4HA 0000000180051830 f   * CIL library *:* CIL module *
 0001:0005083c       ?dtor$1@?0??C_Initialize@PKCS11@@QEAAXPEAX@Z@4HA 000000018005183c f   * CIL library *:* CIL module *
 0001:00050848       ?dtor$2@?0??C_Initialize@PKCS11@@QEAAXPEAX@Z@4HA 0000000180051848 f   * CIL library *:* CIL module *
 0001:00050877       ?catch$0@?0??C_Initialize@PKCS11@@QEAAXPEAX@Z@4HA 0000000180051877 f   * CIL library *:* CIL module *
 0001:00050885       __catch$?C_Initialize@PKCS11@@QEAAXPEAX@Z$0 0000000180051885 f   * CIL library *:* CIL module *
 0001:000508e1       ?dtor$3@?0??C_Initialize@PKCS11@@QEAAXPEAX@Z@4HA 00000001800518e1 f   * CIL library *:* CIL module *
 0001:000508ed       ?catch$1@?0??C_Initialize@PKCS11@@QEAAXPEAX@Z@4HA 00000001800518ed f   * CIL library *:* CIL module *
 0001:000508fd       __catch$?C_Initialize@PKCS11@@QEAAXPEAX@Z$1 00000001800518fd f   * CIL library *:* CIL module *
 0001:000509c3       ?dtor$4@?0??C_Initialize@PKCS11@@QEAAXPEAX@Z@4HA 00000001800519c3 f   * CIL library *:* CIL module *
 0001:000509d0       ?dtor$0@?0??C_Finalize@PKCS11@@QEAAXXZ@4HA 00000001800519d0 f   * CIL library *:* CIL module *
 0001:000509dc       ?dtor$1@?0??C_Finalize@PKCS11@@QEAAXXZ@4HA 00000001800519dc f   * CIL library *:* CIL module *
 0001:000509e8       ?dtor$2@?0??C_Finalize@PKCS11@@QEAAXXZ@4HA 00000001800519e8 f   * CIL library *:* CIL module *
 0001:00050a17       ?catch$0@?0??C_Finalize@PKCS11@@QEAAXXZ@4HA 0000000180051a17 f   * CIL library *:* CIL module *
 0001:00050a25       __catch$?C_Finalize@PKCS11@@QEAAXXZ$0 0000000180051a25 f   * CIL library *:* CIL module *
 0001:00050a81       ?dtor$3@?0??C_Finalize@PKCS11@@QEAAXXZ@4HA 0000000180051a81 f   * CIL library *:* CIL module *
 0001:00050a8d       ?catch$1@?0??C_Finalize@PKCS11@@QEAAXXZ@4HA 0000000180051a8d f   * CIL library *:* CIL module *
 0001:00050a9d       __catch$?C_Finalize@PKCS11@@QEAAXXZ$1 0000000180051a9d f   * CIL library *:* CIL module *
 0001:00050b63       ?dtor$4@?0??C_Finalize@PKCS11@@QEAAXXZ@4HA 0000000180051b63 f   * CIL library *:* CIL module *
 0001:00050b70       ?dtor$0@?0??C_GetInfo@PKCS11@@QEAA?AV?$shared_ptr@UCK_INFO@@@std@@XZ@4HA 0000000180051b70 f   * CIL library *:* CIL module *
 0001:00050b99       ?dtor$1@?0??C_GetInfo@PKCS11@@QEAA?AV?$shared_ptr@UCK_INFO@@@std@@XZ@4HA 0000000180051b99 f   * CIL library *:* CIL module *
 0001:00050ba5       ?dtor$2@?0??C_GetInfo@PKCS11@@QEAA?AV?$shared_ptr@UCK_INFO@@@std@@XZ@4HA 0000000180051ba5 f   * CIL library *:* CIL module *
 0001:00050bb1       ?dtor$3@?0??C_GetInfo@PKCS11@@QEAA?AV?$shared_ptr@UCK_INFO@@@std@@XZ@4HA 0000000180051bb1 f   * CIL library *:* CIL module *
 0001:00050bda       ?catch$0@?0??C_GetInfo@PKCS11@@QEAA?AV?$shared_ptr@UCK_INFO@@@std@@XZ@4HA 0000000180051bda f   * CIL library *:* CIL module *
 0001:00050be8       __catch$?C_GetInfo@PKCS11@@QEAA?AV?$shared_ptr@UCK_INFO@@@std@@XZ$0 0000000180051be8 f   * CIL library *:* CIL module *
 0001:00050c44       ?dtor$4@?0??C_GetInfo@PKCS11@@QEAA?AV?$shared_ptr@UCK_INFO@@@std@@XZ@4HA 0000000180051c44 f   * CIL library *:* CIL module *
 0001:00050c50       ?catch$1@?0??C_GetInfo@PKCS11@@QEAA?AV?$shared_ptr@UCK_INFO@@@std@@XZ@4HA 0000000180051c50 f   * CIL library *:* CIL module *
 0001:00050c60       __catch$?C_GetInfo@PKCS11@@QEAA?AV?$shared_ptr@UCK_INFO@@@std@@XZ$1 0000000180051c60 f   * CIL library *:* CIL module *
 0001:00050d26       ?dtor$5@?0??C_GetInfo@PKCS11@@QEAA?AV?$shared_ptr@UCK_INFO@@@std@@XZ@4HA 0000000180051d26 f   * CIL library *:* CIL module *
 0001:00050d40       ?dtor$0@?0??C_GetSlotList@PKCS11@@QEAA?AV?$vector@KV?$allocator@K@std@@@std@@E@Z@4HA 0000000180051d40 f   * CIL library *:* CIL module *
 0001:00050d4c       ?dtor$1@?0??C_GetSlotList@PKCS11@@QEAA?AV?$vector@KV?$allocator@K@std@@@std@@E@Z@4HA 0000000180051d4c f   * CIL library *:* CIL module *
 0001:00050d58       ?dtor$2@?0??C_GetSlotList@PKCS11@@QEAA?AV?$vector@KV?$allocator@K@std@@@std@@E@Z@4HA 0000000180051d58 f   * CIL library *:* CIL module *
 0001:00050d81       ?dtor$3@?0??C_GetSlotList@PKCS11@@QEAA?AV?$vector@KV?$allocator@K@std@@@std@@E@Z@4HA 0000000180051d81 f   * CIL library *:* CIL module *
 0001:00050d8d       ?dtor$4@?0??C_GetSlotList@PKCS11@@QEAA?AV?$vector@KV?$allocator@K@std@@@std@@E@Z@4HA 0000000180051d8d f   * CIL library *:* CIL module *
 0001:00050d99       ?dtor$5@?0??C_GetSlotList@PKCS11@@QEAA?AV?$vector@KV?$allocator@K@std@@@std@@E@Z@4HA 0000000180051d99 f   * CIL library *:* CIL module *
 0001:00050da5       ?dtor$6@?0??C_GetSlotList@PKCS11@@QEAA?AV?$vector@KV?$allocator@K@std@@@std@@E@Z@4HA 0000000180051da5 f   * CIL library *:* CIL module *
 0001:00050dce       ?catch$0@?0??C_GetSlotList@PKCS11@@QEAA?AV?$vector@KV?$allocator@K@std@@@std@@E@Z@4HA 0000000180051dce f   * CIL library *:* CIL module *
 0001:00050ddc       __catch$?C_GetSlotList@PKCS11@@QEAA?AV?$vector@KV?$allocator@K@std@@@std@@E@Z$0 0000000180051ddc f   * CIL library *:* CIL module *
 0001:00050e41       ?dtor$8@?0??C_GetSlotList@PKCS11@@QEAA?AV?$vector@KV?$allocator@K@std@@@std@@E@Z@4HA 0000000180051e41 f   * CIL library *:* CIL module *
 0001:00050e4d       ?catch$1@?0??C_GetSlotList@PKCS11@@QEAA?AV?$vector@KV?$allocator@K@std@@@std@@E@Z@4HA 0000000180051e4d f   * CIL library *:* CIL module *
 0001:00050e5d       __catch$?C_GetSlotList@PKCS11@@QEAA?AV?$vector@KV?$allocator@K@std@@@std@@E@Z$1 0000000180051e5d f   * CIL library *:* CIL module *
 0001:00050f23       ?dtor$9@?0??C_GetSlotList@PKCS11@@QEAA?AV?$vector@KV?$allocator@K@std@@@std@@E@Z@4HA 0000000180051f23 f   * CIL library *:* CIL module *
 0001:00050f30       ?dtor$0@?0??C_GetSlotInfo@PKCS11@@QEAA?AV?$shared_ptr@UCK_SLOT_INFO@@@std@@K@Z@4HA 0000000180051f30 f   * CIL library *:* CIL module *
 0001:00050f59       ?dtor$1@?0??C_GetSlotInfo@PKCS11@@QEAA?AV?$shared_ptr@UCK_SLOT_INFO@@@std@@K@Z@4HA 0000000180051f59 f   * CIL library *:* CIL module *
 0001:00050f65       ?dtor$2@?0??C_GetSlotInfo@PKCS11@@QEAA?AV?$shared_ptr@UCK_SLOT_INFO@@@std@@K@Z@4HA 0000000180051f65 f   * CIL library *:* CIL module *
 0001:00050f71       ?dtor$3@?0??C_GetSlotInfo@PKCS11@@QEAA?AV?$shared_ptr@UCK_SLOT_INFO@@@std@@K@Z@4HA 0000000180051f71 f   * CIL library *:* CIL module *
 0001:00050f9a       ?catch$0@?0??C_GetSlotInfo@PKCS11@@QEAA?AV?$shared_ptr@UCK_SLOT_INFO@@@std@@K@Z@4HA 0000000180051f9a f   * CIL library *:* CIL module *
 0001:00050fa8       __catch$?C_GetSlotInfo@PKCS11@@QEAA?AV?$shared_ptr@UCK_SLOT_INFO@@@std@@K@Z$0 0000000180051fa8 f   * CIL library *:* CIL module *
 0001:00051004       ?dtor$4@?0??C_GetSlotInfo@PKCS11@@QEAA?AV?$shared_ptr@UCK_SLOT_INFO@@@std@@K@Z@4HA 0000000180052004 f   * CIL library *:* CIL module *
 0001:00051010       ?catch$1@?0??C_GetSlotInfo@PKCS11@@QEAA?AV?$shared_ptr@UCK_SLOT_INFO@@@std@@K@Z@4HA 0000000180052010 f   * CIL library *:* CIL module *
 0001:00051020       __catch$?C_GetSlotInfo@PKCS11@@QEAA?AV?$shared_ptr@UCK_SLOT_INFO@@@std@@K@Z$1 0000000180052020 f   * CIL library *:* CIL module *
 0001:000510e0       ?dtor$5@?0??C_GetSlotInfo@PKCS11@@QEAA?AV?$shared_ptr@UCK_SLOT_INFO@@@std@@K@Z@4HA 00000001800520e0 f   * CIL library *:* CIL module *
 0001:000510f0       ?dtor$0@?0??C_GetTokenInfo@PKCS11@@QEAA?AV?$shared_ptr@UCK_TOKEN_INFO@@@std@@K@Z@4HA 00000001800520f0 f   * CIL library *:* CIL module *
 0001:00051119       ?dtor$1@?0??C_GetTokenInfo@PKCS11@@QEAA?AV?$shared_ptr@UCK_TOKEN_INFO@@@std@@K@Z@4HA 0000000180052119 f   * CIL library *:* CIL module *
 0001:00051125       ?dtor$2@?0??C_GetTokenInfo@PKCS11@@QEAA?AV?$shared_ptr@UCK_TOKEN_INFO@@@std@@K@Z@4HA 0000000180052125 f   * CIL library *:* CIL module *
 0001:00051131       ?dtor$3@?0??C_GetTokenInfo@PKCS11@@QEAA?AV?$shared_ptr@UCK_TOKEN_INFO@@@std@@K@Z@4HA 0000000180052131 f   * CIL library *:* CIL module *
 0001:0005115a       ?catch$0@?0??C_GetTokenInfo@PKCS11@@QEAA?AV?$shared_ptr@UCK_TOKEN_INFO@@@std@@K@Z@4HA 000000018005215a f   * CIL library *:* CIL module *
 0001:00051168       __catch$?C_GetTokenInfo@PKCS11@@QEAA?AV?$shared_ptr@UCK_TOKEN_INFO@@@std@@K@Z$0 0000000180052168 f   * CIL library *:* CIL module *
 0001:000511c4       ?dtor$4@?0??C_GetTokenInfo@PKCS11@@QEAA?AV?$shared_ptr@UCK_TOKEN_INFO@@@std@@K@Z@4HA 00000001800521c4 f   * CIL library *:* CIL module *
 0001:000511d0       ?catch$1@?0??C_GetTokenInfo@PKCS11@@QEAA?AV?$shared_ptr@UCK_TOKEN_INFO@@@std@@K@Z@4HA 00000001800521d0 f   * CIL library *:* CIL module *
 0001:000511e0       __catch$?C_GetTokenInfo@PKCS11@@QEAA?AV?$shared_ptr@UCK_TOKEN_INFO@@@std@@K@Z$1 00000001800521e0 f   * CIL library *:* CIL module *
 0001:000512a0       ?dtor$5@?0??C_GetTokenInfo@PKCS11@@QEAA?AV?$shared_ptr@UCK_TOKEN_INFO@@@std@@K@Z@4HA 00000001800522a0 f   * CIL library *:* CIL module *
 0001:000512b0       ?dtor$0@?0??C_GetMechanismList@PKCS11@@QEAA?AV?$vector@KV?$allocator@K@std@@@std@@K@Z@4HA 00000001800522b0 f   * CIL library *:* CIL module *
 0001:000512bc       ?dtor$1@?0??C_GetMechanismList@PKCS11@@QEAA?AV?$vector@KV?$allocator@K@std@@@std@@K@Z@4HA 00000001800522bc f   * CIL library *:* CIL module *
 0001:000512c8       ?dtor$2@?0??C_GetMechanismList@PKCS11@@QEAA?AV?$vector@KV?$allocator@K@std@@@std@@K@Z@4HA 00000001800522c8 f   * CIL library *:* CIL module *
 0001:000512f1       ?dtor$3@?0??C_GetMechanismList@PKCS11@@QEAA?AV?$vector@KV?$allocator@K@std@@@std@@K@Z@4HA 00000001800522f1 f   * CIL library *:* CIL module *
 0001:000512fd       ?dtor$4@?0??C_GetMechanismList@PKCS11@@QEAA?AV?$vector@KV?$allocator@K@std@@@std@@K@Z@4HA 00000001800522fd f   * CIL library *:* CIL module *
 0001:00051309       ?dtor$5@?0??C_GetMechanismList@PKCS11@@QEAA?AV?$vector@KV?$allocator@K@std@@@std@@K@Z@4HA 0000000180052309 f   * CIL library *:* CIL module *
 0001:00051315       ?dtor$6@?0??C_GetMechanismList@PKCS11@@QEAA?AV?$vector@KV?$allocator@K@std@@@std@@K@Z@4HA 0000000180052315 f   * CIL library *:* CIL module *
 0001:0005133e       ?catch$0@?0??C_GetMechanismList@PKCS11@@QEAA?AV?$vector@KV?$allocator@K@std@@@std@@K@Z@4HA 000000018005233e f   * CIL library *:* CIL module *
 0001:0005134c       __catch$?C_GetMechanismList@PKCS11@@QEAA?AV?$vector@KV?$allocator@K@std@@@std@@K@Z$0 000000018005234c f   * CIL library *:* CIL module *
 0001:000513b1       ?dtor$8@?0??C_GetMechanismList@PKCS11@@QEAA?AV?$vector@KV?$allocator@K@std@@@std@@K@Z@4HA 00000001800523b1 f   * CIL library *:* CIL module *
 0001:000513bd       ?catch$1@?0??C_GetMechanismList@PKCS11@@QEAA?AV?$vector@KV?$allocator@K@std@@@std@@K@Z@4HA 00000001800523bd f   * CIL library *:* CIL module *
 0001:000513cd       __catch$?C_GetMechanismList@PKCS11@@QEAA?AV?$vector@KV?$allocator@K@std@@@std@@K@Z$1 00000001800523cd f   * CIL library *:* CIL module *
 0001:00051493       ?dtor$9@?0??C_GetMechanismList@PKCS11@@QEAA?AV?$vector@KV?$allocator@K@std@@@std@@K@Z@4HA 0000000180052493 f   * CIL library *:* CIL module *
 0001:000514a0       ?dtor$0@?0??C_GetMechanismInfo@PKCS11@@QEAA?AV?$shared_ptr@UCK_MECHANISM_INFO@@@std@@KK@Z@4HA 00000001800524a0 f   * CIL library *:* CIL module *
 0001:000514c9       ?dtor$1@?0??C_GetMechanismInfo@PKCS11@@QEAA?AV?$shared_ptr@UCK_MECHANISM_INFO@@@std@@KK@Z@4HA 00000001800524c9 f   * CIL library *:* CIL module *
 0001:000514d5       ?dtor$2@?0??C_GetMechanismInfo@PKCS11@@QEAA?AV?$shared_ptr@UCK_MECHANISM_INFO@@@std@@KK@Z@4HA 00000001800524d5 f   * CIL library *:* CIL module *
 0001:000514e1       ?dtor$3@?0??C_GetMechanismInfo@PKCS11@@QEAA?AV?$shared_ptr@UCK_MECHANISM_INFO@@@std@@KK@Z@4HA 00000001800524e1 f   * CIL library *:* CIL module *
 0001:0005150a       ?catch$0@?0??C_GetMechanismInfo@PKCS11@@QEAA?AV?$shared_ptr@UCK_MECHANISM_INFO@@@std@@KK@Z@4HA 000000018005250a f   * CIL library *:* CIL module *
 0001:00051518       __catch$?C_GetMechanismInfo@PKCS11@@QEAA?AV?$shared_ptr@UCK_MECHANISM_INFO@@@std@@KK@Z$0 0000000180052518 f   * CIL library *:* CIL module *
 0001:00051574       ?dtor$4@?0??C_GetMechanismInfo@PKCS11@@QEAA?AV?$shared_ptr@UCK_MECHANISM_INFO@@@std@@KK@Z@4HA 0000000180052574 f   * CIL library *:* CIL module *
 0001:00051580       ?catch$1@?0??C_GetMechanismInfo@PKCS11@@QEAA?AV?$shared_ptr@UCK_MECHANISM_INFO@@@std@@KK@Z@4HA 0000000180052580 f   * CIL library *:* CIL module *
 0001:00051590       __catch$?C_GetMechanismInfo@PKCS11@@QEAA?AV?$shared_ptr@UCK_MECHANISM_INFO@@@std@@KK@Z$1 0000000180052590 f   * CIL library *:* CIL module *
 0001:00051653       ?dtor$5@?0??C_GetMechanismInfo@PKCS11@@QEAA?AV?$shared_ptr@UCK_MECHANISM_INFO@@@std@@KK@Z@4HA 0000000180052653 f   * CIL library *:* CIL module *
 0001:00051660       ?dtor$0@?0??C_InitToken@PKCS11@@QEAA?AV?$shared_ptr@V?$basic_string@DU?$char_traits@D@std@@V?$allocator@D@2@@std@@@std@@KV23@0@Z@4HA 0000000180052660 f   * CIL library *:* CIL module *
 0001:0005166c       ?dtor$1@?0??C_InitToken@PKCS11@@QEAA?AV?$shared_ptr@V?$basic_string@DU?$char_traits@D@std@@V?$allocator@D@2@@std@@@std@@KV23@0@Z@4HA 000000018005266c f   * CIL library *:* CIL module *
 0001:00051678       ?dtor$2@?0??C_InitToken@PKCS11@@QEAA?AV?$shared_ptr@V?$basic_string@DU?$char_traits@D@std@@V?$allocator@D@2@@std@@@std@@KV23@0@Z@4HA 0000000180052678 f   * CIL library *:* CIL module *
 0001:00051684       ?dtor$3@?0??C_InitToken@PKCS11@@QEAA?AV?$shared_ptr@V?$basic_string@DU?$char_traits@D@std@@V?$allocator@D@2@@std@@@std@@KV23@0@Z@4HA 0000000180052684 f   * CIL library *:* CIL module *
 0001:00051690       ?dtor$4@?0??C_InitToken@PKCS11@@QEAA?AV?$shared_ptr@V?$basic_string@DU?$char_traits@D@std@@V?$allocator@D@2@@std@@@std@@KV23@0@Z@4HA 0000000180052690 f   * CIL library *:* CIL module *
 0001:000516b9       ?catch$0@?0??C_InitToken@PKCS11@@QEAA?AV?$shared_ptr@V?$basic_string@DU?$char_traits@D@std@@V?$allocator@D@2@@std@@@std@@KV23@0@Z@4HA 00000001800526b9 f   * CIL library *:* CIL module *
 0001:000516c7       __catch$?C_InitToken@PKCS11@@QEAA?AV?$shared_ptr@V?$basic_string@DU?$char_traits@D@std@@V?$allocator@D@2@@std@@@std@@KV23@0@Z$0 00000001800526c7 f   * CIL library *:* CIL module *
 0001:00051723       ?dtor$6@?0??C_InitToken@PKCS11@@QEAA?AV?$shared_ptr@V?$basic_string@DU?$char_traits@D@std@@V?$allocator@D@2@@std@@@std@@KV23@0@Z@4HA 0000000180052723 f   * CIL library *:* CIL module *
 0001:0005172f       ?catch$1@?0??C_InitToken@PKCS11@@QEAA?AV?$shared_ptr@V?$basic_string@DU?$char_traits@D@std@@V?$allocator@D@2@@std@@@std@@KV23@0@Z@4HA 000000018005272f f   * CIL library *:* CIL module *
 0001:0005173f       __catch$?C_InitToken@PKCS11@@QEAA?AV?$shared_ptr@V?$basic_string@DU?$char_traits@D@std@@V?$allocator@D@2@@std@@@std@@KV23@0@Z$1 000000018005273f f   * CIL library *:* CIL module *
 0001:000517ff       ?dtor$7@?0??C_InitToken@PKCS11@@QEAA?AV?$shared_ptr@V?$basic_string@DU?$char_traits@D@std@@V?$allocator@D@2@@std@@@std@@KV23@0@Z@4HA 00000001800527ff f   * CIL library *:* CIL module *
 0001:00051810       ?dtor$0@?0??C_InitPIN@PKCS11@@QEAAXKV?$shared_ptr@V?$basic_string@DU?$char_traits@D@std@@V?$allocator@D@2@@std@@@std@@@Z@4HA 0000000180052810 f   * CIL library *:* CIL module *
 0001:0005181c       ?dtor$1@?0??C_InitPIN@PKCS11@@QEAAXKV?$shared_ptr@V?$basic_string@DU?$char_traits@D@std@@V?$allocator@D@2@@std@@@std@@@Z@4HA 000000018005281c f   * CIL library *:* CIL module *
 0001:00051828       ?dtor$2@?0??C_InitPIN@PKCS11@@QEAAXKV?$shared_ptr@V?$basic_string@DU?$char_traits@D@std@@V?$allocator@D@2@@std@@@std@@@Z@4HA 0000000180052828 f   * CIL library *:* CIL module *
 0001:00051834       ?dtor$3@?0??C_InitPIN@PKCS11@@QEAAXKV?$shared_ptr@V?$basic_string@DU?$char_traits@D@std@@V?$allocator@D@2@@std@@@std@@@Z@4HA 0000000180052834 f   * CIL library *:* CIL module *
 0001:00051863       ?catch$0@?0??C_InitPIN@PKCS11@@QEAAXKV?$shared_ptr@V?$basic_string@DU?$char_traits@D@std@@V?$allocator@D@2@@std@@@std@@@Z@4HA 0000000180052863 f   * CIL library *:* CIL module *
 0001:00051871       __catch$?C_InitPIN@PKCS11@@QEAAXKV?$shared_ptr@V?$basic_string@DU?$char_traits@D@std@@V?$allocator@D@2@@std@@@std@@@Z$0 0000000180052871 f   * CIL library *:* CIL module *
 0001:000518cd       ?dtor$4@?0??C_InitPIN@PKCS11@@QEAAXKV?$shared_ptr@V?$basic_string@DU?$char_traits@D@std@@V?$allocator@D@2@@std@@@std@@@Z@4HA 00000001800528cd f   * CIL library *:* CIL module *
 0001:000518d9       ?catch$1@?0??C_InitPIN@PKCS11@@QEAAXKV?$shared_ptr@V?$basic_string@DU?$char_traits@D@std@@V?$allocator@D@2@@std@@@std@@@Z@4HA 00000001800528d9 f   * CIL library *:* CIL module *
 0001:000518e9       __catch$?C_InitPIN@PKCS11@@QEAAXKV?$shared_ptr@V?$basic_string@DU?$char_traits@D@std@@V?$allocator@D@2@@std@@@std@@@Z$1 00000001800528e9 f   * CIL library *:* CIL module *
 0001:000519a9       ?dtor$5@?0??C_InitPIN@PKCS11@@QEAAXKV?$shared_ptr@V?$basic_string@DU?$char_traits@D@std@@V?$allocator@D@2@@std@@@std@@@Z@4HA 00000001800529a9 f   * CIL library *:* CIL module *
 0001:000519c0       ?dtor$0@?0??C_SetPIN@PKCS11@@QEAAXKV?$shared_ptr@V?$basic_string@DU?$char_traits@D@std@@V?$allocator@D@2@@std@@@std@@0@Z@4HA 00000001800529c0 f   * CIL library *:* CIL module *
 0001:000519cc       ?dtor$1@?0??C_SetPIN@PKCS11@@QEAAXKV?$shared_ptr@V?$basic_string@DU?$char_traits@D@std@@V?$allocator@D@2@@std@@@std@@0@Z@4HA 00000001800529cc f   * CIL library *:* CIL module *
 0001:000519d8       ?dtor$2@?0??C_SetPIN@PKCS11@@QEAAXKV?$shared_ptr@V?$basic_string@DU?$char_traits@D@std@@V?$allocator@D@2@@std@@@std@@0@Z@4HA 00000001800529d8 f   * CIL library *:* CIL module *
 0001:000519e4       ?dtor$3@?0??C_SetPIN@PKCS11@@QEAAXKV?$shared_ptr@V?$basic_string@DU?$char_traits@D@std@@V?$allocator@D@2@@std@@@std@@0@Z@4HA 00000001800529e4 f   * CIL library *:* CIL module *
 0001:000519f0       ?dtor$4@?0??C_SetPIN@PKCS11@@QEAAXKV?$shared_ptr@V?$basic_string@DU?$char_traits@D@std@@V?$allocator@D@2@@std@@@std@@0@Z@4HA 00000001800529f0 f   * CIL library *:* CIL module *
 0001:00051a1f       ?catch$0@?0??C_SetPIN@PKCS11@@QEAAXKV?$shared_ptr@V?$basic_string@DU?$char_traits@D@std@@V?$allocator@D@2@@std@@@std@@0@Z@4HA 0000000180052a1f f   * CIL library *:* CIL module *
 0001:00051a2d       __catch$?C_SetPIN@PKCS11@@QEAAXKV?$shared_ptr@V?$basic_string@DU?$char_traits@D@std@@V?$allocator@D@2@@std@@@std@@0@Z$0 0000000180052a2d f   * CIL library *:* CIL module *
 0001:00051a89       ?dtor$5@?0??C_SetPIN@PKCS11@@QEAAXKV?$shared_ptr@V?$basic_string@DU?$char_traits@D@std@@V?$allocator@D@2@@std@@@std@@0@Z@4HA 0000000180052a89 f   * CIL library *:* CIL module *
 0001:00051a95       ?catch$1@?0??C_SetPIN@PKCS11@@QEAAXKV?$shared_ptr@V?$basic_string@DU?$char_traits@D@std@@V?$allocator@D@2@@std@@@std@@0@Z@4HA 0000000180052a95 f   * CIL library *:* CIL module *
 0001:00051aa5       __catch$?C_SetPIN@PKCS11@@QEAAXKV?$shared_ptr@V?$basic_string@DU?$char_traits@D@std@@V?$allocator@D@2@@std@@@std@@0@Z$1 0000000180052aa5 f   * CIL library *:* CIL module *
 0001:00051b62       ?dtor$6@?0??C_SetPIN@PKCS11@@QEAAXKV?$shared_ptr@V?$basic_string@DU?$char_traits@D@std@@V?$allocator@D@2@@std@@@std@@0@Z@4HA 0000000180052b62 f   * CIL library *:* CIL module *
 0001:00051b70       ?dtor$0@?0??C_OpenSession@PKCS11@@QEAAKKK@Z@4HA 0000000180052b70 f   * CIL library *:* CIL module *
 0001:00051b7c       ?dtor$1@?0??C_OpenSession@PKCS11@@QEAAKKK@Z@4HA 0000000180052b7c f   * CIL library *:* CIL module *
 0001:00051b88       ?dtor$2@?0??C_OpenSession@PKCS11@@QEAAKKK@Z@4HA 0000000180052b88 f   * CIL library *:* CIL module *
 0001:00051bb7       ?catch$0@?0??C_OpenSession@PKCS11@@QEAAKKK@Z@4HA 0000000180052bb7 f   * CIL library *:* CIL module *
 0001:00051bc5       __catch$?C_OpenSession@PKCS11@@QEAAKKK@Z$0 0000000180052bc5 f   * CIL library *:* CIL module *
 0001:00051c21       ?dtor$3@?0??C_OpenSession@PKCS11@@QEAAKKK@Z@4HA 0000000180052c21 f   * CIL library *:* CIL module *
 0001:00051c2d       ?catch$1@?0??C_OpenSession@PKCS11@@QEAAKKK@Z@4HA 0000000180052c2d f   * CIL library *:* CIL module *
 0001:00051c3d       __catch$?C_OpenSession@PKCS11@@QEAAKKK@Z$1 0000000180052c3d f   * CIL library *:* CIL module *
 0001:00051cfa       ?dtor$4@?0??C_OpenSession@PKCS11@@QEAAKKK@Z@4HA 0000000180052cfa f   * CIL library *:* CIL module *
 0001:00051d10       ?dtor$0@?0??C_CloseSession@PKCS11@@QEAAXK@Z@4HA 0000000180052d10 f   * CIL library *:* CIL module *
 0001:00051d1c       ?dtor$1@?0??C_CloseSession@PKCS11@@QEAAXK@Z@4HA 0000000180052d1c f   * CIL library *:* CIL module *
 0001:00051d28       ?dtor$2@?0??C_CloseSession@PKCS11@@QEAAXK@Z@4HA 0000000180052d28 f   * CIL library *:* CIL module *
 0001:00051d57       ?catch$0@?0??C_CloseSession@PKCS11@@QEAAXK@Z@4HA 0000000180052d57 f   * CIL library *:* CIL module *
 0001:00051d65       __catch$?C_CloseSession@PKCS11@@QEAAXK@Z$0 0000000180052d65 f   * CIL library *:* CIL module *
 0001:00051dc1       ?dtor$3@?0??C_CloseSession@PKCS11@@QEAAXK@Z@4HA 0000000180052dc1 f   * CIL library *:* CIL module *
 0001:00051dcd       ?catch$1@?0??C_CloseSession@PKCS11@@QEAAXK@Z@4HA 0000000180052dcd f   * CIL library *:* CIL module *
 0001:00051ddd       __catch$?C_CloseSession@PKCS11@@QEAAXK@Z$1 0000000180052ddd f   * CIL library *:* CIL module *
 0001:00051ea3       ?dtor$4@?0??C_CloseSession@PKCS11@@QEAAXK@Z@4HA 0000000180052ea3 f   * CIL library *:* CIL module *
 0001:00051eb0       ?dtor$0@?0??C_CloseAllSessions@PKCS11@@QEAAXK@Z@4HA 0000000180052eb0 f   * CIL library *:* CIL module *
 0001:00051ebc       ?dtor$1@?0??C_CloseAllSessions@PKCS11@@QEAAXK@Z@4HA 0000000180052ebc f   * CIL library *:* CIL module *
 0001:00051ec8       ?dtor$2@?0??C_CloseAllSessions@PKCS11@@QEAAXK@Z@4HA 0000000180052ec8 f   * CIL library *:* CIL module *
 0001:00051ef7       ?catch$0@?0??C_CloseAllSessions@PKCS11@@QEAAXK@Z@4HA 0000000180052ef7 f   * CIL library *:* CIL module *
 0001:00051f05       __catch$?C_CloseAllSessions@PKCS11@@QEAAXK@Z$0 0000000180052f05 f   * CIL library *:* CIL module *
 0001:00051f61       ?dtor$3@?0??C_CloseAllSessions@PKCS11@@QEAAXK@Z@4HA 0000000180052f61 f   * CIL library *:* CIL module *
 0001:00051f6d       ?catch$1@?0??C_CloseAllSessions@PKCS11@@QEAAXK@Z@4HA 0000000180052f6d f   * CIL library *:* CIL module *
 0001:00051f7d       __catch$?C_CloseAllSessions@PKCS11@@QEAAXK@Z$1 0000000180052f7d f   * CIL library *:* CIL module *
 0001:00052043       ?dtor$4@?0??C_CloseAllSessions@PKCS11@@QEAAXK@Z@4HA 0000000180053043 f   * CIL library *:* CIL module *
 0001:00052050       ?dtor$0@?0??C_GetSessionInfo@PKCS11@@QEAA?AV?$shared_ptr@UCK_SESSION_INFO@@@std@@K@Z@4HA 0000000180053050 f   * CIL library *:* CIL module *
 0001:00052079       ?dtor$1@?0??C_GetSessionInfo@PKCS11@@QEAA?AV?$shared_ptr@UCK_SESSION_INFO@@@std@@K@Z@4HA 0000000180053079 f   * CIL library *:* CIL module *
 0001:00052085       ?dtor$2@?0??C_GetSessionInfo@PKCS11@@QEAA?AV?$shared_ptr@UCK_SESSION_INFO@@@std@@K@Z@4HA 0000000180053085 f   * CIL library *:* CIL module *
 0001:00052091       ?dtor$3@?0??C_GetSessionInfo@PKCS11@@QEAA?AV?$shared_ptr@UCK_SESSION_INFO@@@std@@K@Z@4HA 0000000180053091 f   * CIL library *:* CIL module *
 0001:000520ba       ?catch$0@?0??C_GetSessionInfo@PKCS11@@QEAA?AV?$shared_ptr@UCK_SESSION_INFO@@@std@@K@Z@4HA 00000001800530ba f   * CIL library *:* CIL module *
 0001:000520c8       __catch$?C_GetSessionInfo@PKCS11@@QEAA?AV?$shared_ptr@UCK_SESSION_INFO@@@std@@K@Z$0 00000001800530c8 f   * CIL library *:* CIL module *
 0001:00052124       ?dtor$4@?0??C_GetSessionInfo@PKCS11@@QEAA?AV?$shared_ptr@UCK_SESSION_INFO@@@std@@K@Z@4HA 0000000180053124 f   * CIL library *:* CIL module *
 0001:00052130       ?catch$1@?0??C_GetSessionInfo@PKCS11@@QEAA?AV?$shared_ptr@UCK_SESSION_INFO@@@std@@K@Z@4HA 0000000180053130 f   * CIL library *:* CIL module *
 0001:00052140       __catch$?C_GetSessionInfo@PKCS11@@QEAA?AV?$shared_ptr@UCK_SESSION_INFO@@@std@@K@Z$1 0000000180053140 f   * CIL library *:* CIL module *
 0001:00052200       ?dtor$5@?0??C_GetSessionInfo@PKCS11@@QEAA?AV?$shared_ptr@UCK_SESSION_INFO@@@std@@K@Z@4HA 0000000180053200 f   * CIL library *:* CIL module *
 0001:00052210       ?dtor$0@?0??C_Login@PKCS11@@QEAAXKKV?$shared_ptr@V?$basic_string@DU?$char_traits@D@std@@V?$allocator@D@2@@std@@@std@@@Z@4HA 0000000180053210 f   * CIL library *:* CIL module *
 0001:0005221c       ?dtor$1@?0??C_Login@PKCS11@@QEAAXKKV?$shared_ptr@V?$basic_string@DU?$char_traits@D@std@@V?$allocator@D@2@@std@@@std@@@Z@4HA 000000018005321c f   * CIL library *:* CIL module *
 0001:00052228       ?dtor$2@?0??C_Login@PKCS11@@QEAAXKKV?$shared_ptr@V?$basic_string@DU?$char_traits@D@std@@V?$allocator@D@2@@std@@@std@@@Z@4HA 0000000180053228 f   * CIL library *:* CIL module *
 0001:00052234       ?dtor$3@?0??C_Login@PKCS11@@QEAAXKKV?$shared_ptr@V?$basic_string@DU?$char_traits@D@std@@V?$allocator@D@2@@std@@@std@@@Z@4HA 0000000180053234 f   * CIL library *:* CIL module *
 0001:00052263       ?catch$0@?0??C_Login@PKCS11@@QEAAXKKV?$shared_ptr@V?$basic_string@DU?$char_traits@D@std@@V?$allocator@D@2@@std@@@std@@@Z@4HA 0000000180053263 f   * CIL library *:* CIL module *
 0001:00052271       __catch$?C_Login@PKCS11@@QEAAXKKV?$shared_ptr@V?$basic_string@DU?$char_traits@D@std@@V?$allocator@D@2@@std@@@std@@@Z$0 0000000180053271 f   * CIL library *:* CIL module *
 0001:000522cd       ?dtor$4@?0??C_Login@PKCS11@@QEAAXKKV?$shared_ptr@V?$basic_string@DU?$char_traits@D@std@@V?$allocator@D@2@@std@@@std@@@Z@4HA 00000001800532cd f   * CIL library *:* CIL module *
 0001:000522d9       ?catch$1@?0??C_Login@PKCS11@@QEAAXKKV?$shared_ptr@V?$basic_string@DU?$char_traits@D@std@@V?$allocator@D@2@@std@@@std@@@Z@4HA 00000001800532d9 f   * CIL library *:* CIL module *
 0001:000522e9       __catch$?C_Login@PKCS11@@QEAAXKKV?$shared_ptr@V?$basic_string@DU?$char_traits@D@std@@V?$allocator@D@2@@std@@@std@@@Z$1 00000001800532e9 f   * CIL library *:* CIL module *
 0001:000523a6       ?dtor$5@?0??C_Login@PKCS11@@QEAAXKKV?$shared_ptr@V?$basic_string@DU?$char_traits@D@std@@V?$allocator@D@2@@std@@@std@@@Z@4HA 00000001800533a6 f   * CIL library *:* CIL module *
 0001:000523c0       ?dtor$0@?0??C_Logout@PKCS11@@QEAAXK@Z@4HA 00000001800533c0 f   * CIL library *:* CIL module *
 0001:000523cc       ?dtor$1@?0??C_Logout@PKCS11@@QEAAXK@Z@4HA 00000001800533cc f   * CIL library *:* CIL module *
 0001:000523d8       ?dtor$2@?0??C_Logout@PKCS11@@QEAAXK@Z@4HA 00000001800533d8 f   * CIL library *:* CIL module *
 0001:00052407       ?catch$0@?0??C_Logout@PKCS11@@QEAAXK@Z@4HA 0000000180053407 f   * CIL library *:* CIL module *
 0001:00052415       __catch$?C_Logout@PKCS11@@QEAAXK@Z$0 0000000180053415 f   * CIL library *:* CIL module *
 0001:00052471       ?dtor$3@?0??C_Logout@PKCS11@@QEAAXK@Z@4HA 0000000180053471 f   * CIL library *:* CIL module *
 0001:0005247d       ?catch$1@?0??C_Logout@PKCS11@@QEAAXK@Z@4HA 000000018005347d f   * CIL library *:* CIL module *
 0001:0005248d       __catch$?C_Logout@PKCS11@@QEAAXK@Z$1 000000018005348d f   * CIL library *:* CIL module *
 0001:00052553       ?dtor$4@?0??C_Logout@PKCS11@@QEAAXK@Z@4HA 0000000180053553 f   * CIL library *:* CIL module *
 0001:00052560       ?dtor$0@?0??C_FindObjectsInit@PKCS11@@QEAAXKV?$shared_ptr@VAttributes@@@std@@@Z@4HA 0000000180053560 f   * CIL library *:* CIL module *
 0001:0005256c       ?dtor$1@?0??C_FindObjectsInit@PKCS11@@QEAAXKV?$shared_ptr@VAttributes@@@std@@@Z@4HA 000000018005356c f   * CIL library *:* CIL module *
 0001:00052578       ?dtor$2@?0??C_FindObjectsInit@PKCS11@@QEAAXKV?$shared_ptr@VAttributes@@@std@@@Z@4HA 0000000180053578 f   * CIL library *:* CIL module *
 0001:00052584       ?dtor$3@?0??C_FindObjectsInit@PKCS11@@QEAAXKV?$shared_ptr@VAttributes@@@std@@@Z@4HA 0000000180053584 f   * CIL library *:* CIL module *
 0001:000525b3       ?catch$0@?0??C_FindObjectsInit@PKCS11@@QEAAXKV?$shared_ptr@VAttributes@@@std@@@Z@4HA 00000001800535b3 f   * CIL library *:* CIL module *
 0001:000525c1       __catch$?C_FindObjectsInit@PKCS11@@QEAAXKV?$shared_ptr@VAttributes@@@std@@@Z$0 00000001800535c1 f   * CIL library *:* CIL module *
 0001:0005261d       ?dtor$4@?0??C_FindObjectsInit@PKCS11@@QEAAXKV?$shared_ptr@VAttributes@@@std@@@Z@4HA 000000018005361d f   * CIL library *:* CIL module *
 0001:00052629       ?catch$1@?0??C_FindObjectsInit@PKCS11@@QEAAXKV?$shared_ptr@VAttributes@@@std@@@Z@4HA 0000000180053629 f   * CIL library *:* CIL module *
 0001:00052639       __catch$?C_FindObjectsInit@PKCS11@@QEAAXKV?$shared_ptr@VAttributes@@@std@@@Z$1 0000000180053639 f   * CIL library *:* CIL module *
 0001:000526f9       ?dtor$5@?0??C_FindObjectsInit@PKCS11@@QEAAXKV?$shared_ptr@VAttributes@@@std@@@Z@4HA 00000001800536f9 f   * CIL library *:* CIL module *
 0001:00052710       ?catch$0@?0??C_FindObjectsInit@PKCS11@@QEAAXK@Z@4HA 0000000180053710 f   * CIL library *:* CIL module *
 0001:0005271e       __catch$?C_FindObjectsInit@PKCS11@@QEAAXK@Z$0 000000018005371e f   * CIL library *:* CIL module *
 0001:0005277a       ?dtor$2@?0??C_FindObjectsInit@PKCS11@@QEAAXK@Z@4HA 000000018005377a f   * CIL library *:* CIL module *
 0001:00052786       ?catch$1@?0??C_FindObjectsInit@PKCS11@@QEAAXK@Z@4HA 0000000180053786 f   * CIL library *:* CIL module *
 0001:00052796       __catch$?C_FindObjectsInit@PKCS11@@QEAAXK@Z$1 0000000180053796 f   * CIL library *:* CIL module *
 0001:0005285c       ?dtor$3@?0??C_FindObjectsInit@PKCS11@@QEAAXK@Z@4HA 000000018005385c f   * CIL library *:* CIL module *
 0001:00052870       ?dtor$0@?0??C_FindObjects@PKCS11@@QEAAKK@Z@4HA 0000000180053870 f   * CIL library *:* CIL module *
 0001:0005287c       ?dtor$1@?0??C_FindObjects@PKCS11@@QEAAKK@Z@4HA 000000018005387c f   * CIL library *:* CIL module *
 0001:00052888       ?dtor$2@?0??C_FindObjects@PKCS11@@QEAAKK@Z@4HA 0000000180053888 f   * CIL library *:* CIL module *
 0001:000528b7       ?catch$0@?0??C_FindObjects@PKCS11@@QEAAKK@Z@4HA 00000001800538b7 f   * CIL library *:* CIL module *
 0001:000528c5       __catch$?C_FindObjects@PKCS11@@QEAAKK@Z$0 00000001800538c5 f   * CIL library *:* CIL module *
 0001:00052921       ?dtor$3@?0??C_FindObjects@PKCS11@@QEAAKK@Z@4HA 0000000180053921 f   * CIL library *:* CIL module *
 0001:0005292d       ?catch$1@?0??C_FindObjects@PKCS11@@QEAAKK@Z@4HA 000000018005392d f   * CIL library *:* CIL module *
 0001:0005293d       __catch$?C_FindObjects@PKCS11@@QEAAKK@Z$1 000000018005393d f   * CIL library *:* CIL module *
 0001:000529fa       ?dtor$4@?0??C_FindObjects@PKCS11@@QEAAKK@Z@4HA 00000001800539fa f   * CIL library *:* CIL module *
 0001:00052a10       ?dtor$0@?0??C_FindObjectsFinal@PKCS11@@QEAAXK@Z@4HA 0000000180053a10 f   * CIL library *:* CIL module *
 0001:00052a1c       ?dtor$1@?0??C_FindObjectsFinal@PKCS11@@QEAAXK@Z@4HA 0000000180053a1c f   * CIL library *:* CIL module *
 0001:00052a28       ?dtor$2@?0??C_FindObjectsFinal@PKCS11@@QEAAXK@Z@4HA 0000000180053a28 f   * CIL library *:* CIL module *
 0001:00052a57       ?catch$0@?0??C_FindObjectsFinal@PKCS11@@QEAAXK@Z@4HA 0000000180053a57 f   * CIL library *:* CIL module *
 0001:00052a65       __catch$?C_FindObjectsFinal@PKCS11@@QEAAXK@Z$0 0000000180053a65 f   * CIL library *:* CIL module *
 0001:00052ac1       ?dtor$3@?0??C_FindObjectsFinal@PKCS11@@QEAAXK@Z@4HA 0000000180053ac1 f   * CIL library *:* CIL module *
 0001:00052acd       ?catch$1@?0??C_FindObjectsFinal@PKCS11@@QEAAXK@Z@4HA 0000000180053acd f   * CIL library *:* CIL module *
 0001:00052add       __catch$?C_FindObjectsFinal@PKCS11@@QEAAXK@Z$1 0000000180053add f   * CIL library *:* CIL module *
 0001:00052ba3       ?dtor$4@?0??C_FindObjectsFinal@PKCS11@@QEAAXK@Z@4HA 0000000180053ba3 f   * CIL library *:* CIL module *
 0001:00052bb0       ?dtor$0@?0??C_GetAttributeValue@PKCS11@@QEAA?AV?$shared_ptr@VAttributes@@@std@@KKV23@@Z@4HA 0000000180053bb0 f   * CIL library *:* CIL module *
 0001:00052bbc       ?dtor$1@?0??C_GetAttributeValue@PKCS11@@QEAA?AV?$shared_ptr@VAttributes@@@std@@KKV23@@Z@4HA 0000000180053bbc f   * CIL library *:* CIL module *
 0001:00052bc8       ?dtor$2@?0??C_GetAttributeValue@PKCS11@@QEAA?AV?$shared_ptr@VAttributes@@@std@@KKV23@@Z@4HA 0000000180053bc8 f   * CIL library *:* CIL module *
 0001:00052bd4       ?dtor$3@?0??C_GetAttributeValue@PKCS11@@QEAA?AV?$shared_ptr@VAttributes@@@std@@KKV23@@Z@4HA 0000000180053bd4 f   * CIL library *:* CIL module *
 0001:00052bfd       ?dtor$4@?0??C_GetAttributeValue@PKCS11@@QEAA?AV?$shared_ptr@VAttributes@@@std@@KKV23@@Z@4HA 0000000180053bfd f   * CIL library *:* CIL module *
 0001:00052c09       ?dtor$5@?0??C_GetAttributeValue@PKCS11@@QEAA?AV?$shared_ptr@VAttributes@@@std@@KKV23@@Z@4HA 0000000180053c09 f   * CIL library *:* CIL module *
 0001:00052c15       ?dtor$6@?0??C_GetAttributeValue@PKCS11@@QEAA?AV?$shared_ptr@VAttributes@@@std@@KKV23@@Z@4HA 0000000180053c15 f   * CIL library *:* CIL module *
 0001:00052c3e       ?catch$0@?0??C_GetAttributeValue@PKCS11@@QEAA?AV?$shared_ptr@VAttributes@@@std@@KKV23@@Z@4HA 0000000180053c3e f   * CIL library *:* CIL module *
 0001:00052c4c       __catch$?C_GetAttributeValue@PKCS11@@QEAA?AV?$shared_ptr@VAttributes@@@std@@KKV23@@Z$0 0000000180053c4c f   * CIL library *:* CIL module *
 0001:00052cae       ?dtor$8@?0??C_GetAttributeValue@PKCS11@@QEAA?AV?$shared_ptr@VAttributes@@@std@@KKV23@@Z@4HA 0000000180053cae f   * CIL library *:* CIL module *
 0001:00052cba       ?catch$1@?0??C_GetAttributeValue@PKCS11@@QEAA?AV?$shared_ptr@VAttributes@@@std@@KKV23@@Z@4HA 0000000180053cba f   * CIL library *:* CIL module *
 0001:00052cca       __catch$?C_GetAttributeValue@PKCS11@@QEAA?AV?$shared_ptr@VAttributes@@@std@@KKV23@@Z$1 0000000180053cca f   * CIL library *:* CIL module *
 0001:00052d90       ?dtor$9@?0??C_GetAttributeValue@PKCS11@@QEAA?AV?$shared_ptr@VAttributes@@@std@@KKV23@@Z@4HA 0000000180053d90 f   * CIL library *:* CIL module *
 0001:00052da0       ?dtor$0@?0??C_SetAttributeValue@PKCS11@@QEAAXKKV?$shared_ptr@VAttributes@@@std@@@Z@4HA 0000000180053da0 f   * CIL library *:* CIL module *
 0001:00052dac       ?dtor$1@?0??C_SetAttributeValue@PKCS11@@QEAAXKKV?$shared_ptr@VAttributes@@@std@@@Z@4HA 0000000180053dac f   * CIL library *:* CIL module *
 0001:00052db8       ?dtor$2@?0??C_SetAttributeValue@PKCS11@@QEAAXKKV?$shared_ptr@VAttributes@@@std@@@Z@4HA 0000000180053db8 f   * CIL library *:* CIL module *
 0001:00052dc4       ?dtor$3@?0??C_SetAttributeValue@PKCS11@@QEAAXKKV?$shared_ptr@VAttributes@@@std@@@Z@4HA 0000000180053dc4 f   * CIL library *:* CIL module *
 0001:00052df3       ?catch$0@?0??C_SetAttributeValue@PKCS11@@QEAAXKKV?$shared_ptr@VAttributes@@@std@@@Z@4HA 0000000180053df3 f   * CIL library *:* CIL module *
 0001:00052e01       __catch$?C_SetAttributeValue@PKCS11@@QEAAXKKV?$shared_ptr@VAttributes@@@std@@@Z$0 0000000180053e01 f   * CIL library *:* CIL module *
 0001:00052e5d       ?dtor$4@?0??C_SetAttributeValue@PKCS11@@QEAAXKKV?$shared_ptr@VAttributes@@@std@@@Z@4HA 0000000180053e5d f   * CIL library *:* CIL module *
 0001:00052e69       ?catch$1@?0??C_SetAttributeValue@PKCS11@@QEAAXKKV?$shared_ptr@VAttributes@@@std@@@Z@4HA 0000000180053e69 f   * CIL library *:* CIL module *
 0001:00052e79       __catch$?C_SetAttributeValue@PKCS11@@QEAAXKKV?$shared_ptr@VAttributes@@@std@@@Z$1 0000000180053e79 f   * CIL library *:* CIL module *
 0001:00052f36       ?dtor$5@?0??C_SetAttributeValue@PKCS11@@QEAAXKKV?$shared_ptr@VAttributes@@@std@@@Z@4HA 0000000180053f36 f   * CIL library *:* CIL module *
 0001:00052f50       ?dtor$0@?0??C_CreateObject@PKCS11@@QEAAKKV?$shared_ptr@VAttributes@@@std@@@Z@4HA 0000000180053f50 f   * CIL library *:* CIL module *
 0001:00052f5c       ?dtor$1@?0??C_CreateObject@PKCS11@@QEAAKKV?$shared_ptr@VAttributes@@@std@@@Z@4HA 0000000180053f5c f   * CIL library *:* CIL module *
 0001:00052f68       ?dtor$2@?0??C_CreateObject@PKCS11@@QEAAKKV?$shared_ptr@VAttributes@@@std@@@Z@4HA 0000000180053f68 f   * CIL library *:* CIL module *
 0001:00052f74       ?dtor$3@?0??C_CreateObject@PKCS11@@QEAAKKV?$shared_ptr@VAttributes@@@std@@@Z@4HA 0000000180053f74 f   * CIL library *:* CIL module *
 0001:00052fa3       ?catch$0@?0??C_CreateObject@PKCS11@@QEAAKKV?$shared_ptr@VAttributes@@@std@@@Z@4HA 0000000180053fa3 f   * CIL library *:* CIL module *
 0001:00052fb1       __catch$?C_CreateObject@PKCS11@@QEAAKKV?$shared_ptr@VAttributes@@@std@@@Z$0 0000000180053fb1 f   * CIL library *:* CIL module *
 0001:0005300d       ?dtor$4@?0??C_CreateObject@PKCS11@@QEAAKKV?$shared_ptr@VAttributes@@@std@@@Z@4HA 000000018005400d f   * CIL library *:* CIL module *
 0001:00053019       ?catch$1@?0??C_CreateObject@PKCS11@@QEAAKKV?$shared_ptr@VAttributes@@@std@@@Z@4HA 0000000180054019 f   * CIL library *:* CIL module *
 0001:00053029       __catch$?C_CreateObject@PKCS11@@QEAAKKV?$shared_ptr@VAttributes@@@std@@@Z$1 0000000180054029 f   * CIL library *:* CIL module *
 0001:000530e6       ?dtor$5@?0??C_CreateObject@PKCS11@@QEAAKKV?$shared_ptr@VAttributes@@@std@@@Z@4HA 00000001800540e6 f   * CIL library *:* CIL module *
 0001:00053100       ?dtor$0@?0??C_CopyObject@PKCS11@@QEAAKKKV?$shared_ptr@VAttributes@@@std@@@Z@4HA 0000000180054100 f   * CIL library *:* CIL module *
 0001:0005310c       ?dtor$1@?0??C_CopyObject@PKCS11@@QEAAKKKV?$shared_ptr@VAttributes@@@std@@@Z@4HA 000000018005410c f   * CIL library *:* CIL module *
 0001:00053118       ?dtor$2@?0??C_CopyObject@PKCS11@@QEAAKKKV?$shared_ptr@VAttributes@@@std@@@Z@4HA 0000000180054118 f   * CIL library *:* CIL module *
 0001:00053124       ?dtor$3@?0??C_CopyObject@PKCS11@@QEAAKKKV?$shared_ptr@VAttributes@@@std@@@Z@4HA 0000000180054124 f   * CIL library *:* CIL module *
 0001:0005314d       ?catch$0@?0??C_CopyObject@PKCS11@@QEAAKKKV?$shared_ptr@VAttributes@@@std@@@Z@4HA 000000018005414d f   * CIL library *:* CIL module *
 0001:0005315b       __catch$?C_CopyObject@PKCS11@@QEAAKKKV?$shared_ptr@VAttributes@@@std@@@Z$0 000000018005415b f   * CIL library *:* CIL module *
 0001:000531b7       ?dtor$4@?0??C_CopyObject@PKCS11@@QEAAKKKV?$shared_ptr@VAttributes@@@std@@@Z@4HA 00000001800541b7 f   * CIL library *:* CIL module *
 0001:000531c3       ?catch$1@?0??C_CopyObject@PKCS11@@QEAAKKKV?$shared_ptr@VAttributes@@@std@@@Z@4HA 00000001800541c3 f   * CIL library *:* CIL module *
 0001:000531d3       __catch$?C_CopyObject@PKCS11@@QEAAKKKV?$shared_ptr@VAttributes@@@std@@@Z$1 00000001800541d3 f   * CIL library *:* CIL module *
 0001:00053296       ?dtor$5@?0??C_CopyObject@PKCS11@@QEAAKKKV?$shared_ptr@VAttributes@@@std@@@Z@4HA 0000000180054296 f   * CIL library *:* CIL module *
 0001:000532b0       ?dtor$0@?0??C_DestroyObject@PKCS11@@QEAAXKK@Z@4HA 00000001800542b0 f   * CIL library *:* CIL module *
 0001:000532bc       ?dtor$1@?0??C_DestroyObject@PKCS11@@QEAAXKK@Z@4HA 00000001800542bc f   * CIL library *:* CIL module *
 0001:000532c8       ?dtor$2@?0??C_DestroyObject@PKCS11@@QEAAXKK@Z@4HA 00000001800542c8 f   * CIL library *:* CIL module *
 0001:000532f7       ?catch$0@?0??C_DestroyObject@PKCS11@@QEAAXKK@Z@4HA 00000001800542f7 f   * CIL library *:* CIL module *
 0001:00053305       __catch$?C_DestroyObject@PKCS11@@QEAAXKK@Z$0 0000000180054305 f   * CIL library *:* CIL module *
 0001:00053361       ?dtor$3@?0??C_DestroyObject@PKCS11@@QEAAXKK@Z@4HA 0000000180054361 f   * CIL library *:* CIL module *
 0001:0005336d       ?catch$1@?0??C_DestroyObject@PKCS11@@QEAAXKK@Z@4HA 000000018005436d f   * CIL library *:* CIL module *
 0001:0005337d       __catch$?C_DestroyObject@PKCS11@@QEAAXKK@Z$1 000000018005437d f   * CIL library *:* CIL module *
 0001:0005343d       ?dtor$4@?0??C_DestroyObject@PKCS11@@QEAAXKK@Z@4HA 000000018005443d f   * CIL library *:* CIL module *
 0001:00053450       ?dtor$0@?0??C_GetObjectSize@PKCS11@@QEAAKKK@Z@4HA 0000000180054450 f   * CIL library *:* CIL module *
 0001:0005345c       ?dtor$1@?0??C_GetObjectSize@PKCS11@@QEAAKKK@Z@4HA 000000018005445c f   * CIL library *:* CIL module *
 0001:00053468       ?dtor$2@?0??C_GetObjectSize@PKCS11@@QEAAKKK@Z@4HA 0000000180054468 f   * CIL library *:* CIL module *
 0001:00053497       ?catch$0@?0??C_GetObjectSize@PKCS11@@QEAAKKK@Z@4HA 0000000180054497 f   * CIL library *:* CIL module *
 0001:000534a5       __catch$?C_GetObjectSize@PKCS11@@QEAAKKK@Z$0 00000001800544a5 f   * CIL library *:* CIL module *
 0001:00053501       ?dtor$3@?0??C_GetObjectSize@PKCS11@@QEAAKKK@Z@4HA 0000000180054501 f   * CIL library *:* CIL module *
 0001:0005350d       ?catch$1@?0??C_GetObjectSize@PKCS11@@QEAAKKK@Z@4HA 000000018005450d f   * CIL library *:* CIL module *
 0001:0005351d       __catch$?C_GetObjectSize@PKCS11@@QEAAKKK@Z$1 000000018005451d f   * CIL library *:* CIL module *
 0001:000535da       ?dtor$4@?0??C_GetObjectSize@PKCS11@@QEAAKKK@Z@4HA 00000001800545da f   * CIL library *:* CIL module *
 0001:000535f0       ?dtor$0@?0??crypto_init@@YAXP6AKKPEAUCK_MECHANISM@@K@ZKV?$shared_ptr@VMechanism@@@std@@K@Z@4HA 00000001800545f0 f   * CIL library *:* CIL module *
 0001:000535fc       ?dtor$1@?0??crypto_init@@YAXP6AKKPEAUCK_MECHANISM@@K@ZKV?$shared_ptr@VMechanism@@@std@@K@Z@4HA 00000001800545fc f   * CIL library *:* CIL module *
 0001:00053608       ?dtor$2@?0??crypto_init@@YAXP6AKKPEAUCK_MECHANISM@@K@ZKV?$shared_ptr@VMechanism@@@std@@K@Z@4HA 0000000180054608 f   * CIL library *:* CIL module *
 0001:00053614       ?dtor$3@?0??crypto_init@@YAXP6AKKPEAUCK_MECHANISM@@K@ZKV?$shared_ptr@VMechanism@@@std@@K@Z@4HA 0000000180054614 f   * CIL library *:* CIL module *
 0001:00053643       ?catch$0@?0??crypto_init@@YAXP6AKKPEAUCK_MECHANISM@@K@ZKV?$shared_ptr@VMechanism@@@std@@K@Z@4HA 0000000180054643 f   * CIL library *:* CIL module *
 0001:00053651       __catch$?crypto_init@@YAXP6AKKPEAUCK_MECHANISM@@K@ZKV?$shared_ptr@VMechanism@@@std@@K@Z$0 0000000180054651 f   * CIL library *:* CIL module *
 0001:000536ad       ?dtor$4@?0??crypto_init@@YAXP6AKKPEAUCK_MECHANISM@@K@ZKV?$shared_ptr@VMechanism@@@std@@K@Z@4HA 00000001800546ad f   * CIL library *:* CIL module *
 0001:000536b9       ?catch$1@?0??crypto_init@@YAXP6AKKPEAUCK_MECHANISM@@K@ZKV?$shared_ptr@VMechanism@@@std@@K@Z@4HA 00000001800546b9 f   * CIL library *:* CIL module *
 0001:000536c9       __catch$?crypto_init@@YAXP6AKKPEAUCK_MECHANISM@@K@ZKV?$shared_ptr@VMechanism@@@std@@K@Z$1 00000001800546c9 f   * CIL library *:* CIL module *
 0001:00053786       ?dtor$5@?0??crypto_init@@YAXP6AKKPEAUCK_MECHANISM@@K@ZKV?$shared_ptr@VMechanism@@@std@@K@Z@4HA 0000000180054786 f   * CIL library *:* CIL module *
 0001:000537a0       ?dtor$0@?0??crypto_update@@YA?AV?$shared_ptr@V?$basic_string@DU?$char_traits@D@std@@V?$allocator@D@2@@std@@@std@@P6AKKPEAEK0PEAK@ZKV12@3@Z@4HA 00000001800547a0 f   * CIL library *:* CIL module *
 0001:000537ac       ?dtor$1@?0??crypto_update@@YA?AV?$shared_ptr@V?$basic_string@DU?$char_traits@D@std@@V?$allocator@D@2@@std@@@std@@P6AKKPEAEK0PEAK@ZKV12@3@Z@4HA 00000001800547ac f   * CIL library *:* CIL module *
 0001:000537b8       ?dtor$2@?0??crypto_update@@YA?AV?$shared_ptr@V?$basic_string@DU?$char_traits@D@std@@V?$allocator@D@2@@std@@@std@@P6AKKPEAEK0PEAK@ZKV12@3@Z@4HA 00000001800547b8 f   * CIL library *:* CIL module *
 0001:000537c4       ?dtor$3@?0??crypto_update@@YA?AV?$shared_ptr@V?$basic_string@DU?$char_traits@D@std@@V?$allocator@D@2@@std@@@std@@P6AKKPEAEK0PEAK@ZKV12@3@Z@4HA 00000001800547c4 f   * CIL library *:* CIL module *
 0001:000537d0       ?dtor$4@?0??crypto_update@@YA?AV?$shared_ptr@V?$basic_string@DU?$char_traits@D@std@@V?$allocator@D@2@@std@@@std@@P6AKKPEAEK0PEAK@ZKV12@3@Z@4HA 00000001800547d0 f   * CIL library *:* CIL module *
 0001:000537f9       ?dtor$5@?0??crypto_update@@YA?AV?$shared_ptr@V?$basic_string@DU?$char_traits@D@std@@V?$allocator@D@2@@std@@@std@@P6AKKPEAEK0PEAK@ZKV12@3@Z@4HA 00000001800547f9 f   * CIL library *:* CIL module *
 0001:00053805       ?catch$0@?0??crypto_update@@YA?AV?$shared_ptr@V?$basic_string@DU?$char_traits@D@std@@V?$allocator@D@2@@std@@@std@@P6AKKPEAEK0PEAK@ZKV12@3@Z@4HA 0000000180054805 f   * CIL library *:* CIL module *
 0001:00053813       __catch$?crypto_update@@YA?AV?$shared_ptr@V?$basic_string@DU?$char_traits@D@std@@V?$allocator@D@2@@std@@@std@@P6AKKPEAEK0PEAK@ZKV12@3@Z$0 0000000180054813 f   * CIL library *:* CIL module *
 0001:0005386f       ?dtor$7@?0??crypto_update@@YA?AV?$shared_ptr@V?$basic_string@DU?$char_traits@D@std@@V?$allocator@D@2@@std@@@std@@P6AKKPEAEK0PEAK@ZKV12@3@Z@4HA 000000018005486f f   * CIL library *:* CIL module *
 0001:0005387b       ?catch$1@?0??crypto_update@@YA?AV?$shared_ptr@V?$basic_string@DU?$char_traits@D@std@@V?$allocator@D@2@@std@@@std@@P6AKKPEAEK0PEAK@ZKV12@3@Z@4HA 000000018005487b f   * CIL library *:* CIL module *
 0001:0005388b       __catch$?crypto_update@@YA?AV?$shared_ptr@V?$basic_string@DU?$char_traits@D@std@@V?$allocator@D@2@@std@@@std@@P6AKKPEAEK0PEAK@ZKV12@3@Z$1 000000018005488b f   * CIL library *:* CIL module *
 0001:0005394e       ?dtor$8@?0??crypto_update@@YA?AV?$shared_ptr@V?$basic_string@DU?$char_traits@D@std@@V?$allocator@D@2@@std@@@std@@P6AKKPEAEK0PEAK@ZKV12@3@Z@4HA 000000018005494e f   * CIL library *:* CIL module *
 0001:00053960       ?dtor$0@?0??crypto_update@@YAXP6AKKPEAEK@ZKV?$shared_ptr@V?$basic_string@DU?$char_traits@D@std@@V?$allocator@D@2@@std@@@std@@@Z@4HA 0000000180054960 f   * CIL library *:* CIL module *
 0001:0005396c       ?dtor$1@?0??crypto_update@@YAXP6AKKPEAEK@ZKV?$shared_ptr@V?$basic_string@DU?$char_traits@D@std@@V?$allocator@D@2@@std@@@std@@@Z@4HA 000000018005496c f   * CIL library *:* CIL module *
 0001:00053978       ?dtor$2@?0??crypto_update@@YAXP6AKKPEAEK@ZKV?$shared_ptr@V?$basic_string@DU?$char_traits@D@std@@V?$allocator@D@2@@std@@@std@@@Z@4HA 0000000180054978 f   * CIL library *:* CIL module *
 0001:00053984       ?dtor$3@?0??crypto_update@@YAXP6AKKPEAEK@ZKV?$shared_ptr@V?$basic_string@DU?$char_traits@D@std@@V?$allocator@D@2@@std@@@std@@@Z@4HA 0000000180054984 f   * CIL library *:* CIL module *
 0001:000539b3       ?catch$0@?0??crypto_update@@YAXP6AKKPEAEK@ZKV?$shared_ptr@V?$basic_string@DU?$char_traits@D@std@@V?$allocator@D@2@@std@@@std@@@Z@4HA 00000001800549b3 f   * CIL library *:* CIL module *
 0001:000539c1       __catch$?crypto_update@@YAXP6AKKPEAEK@ZKV?$shared_ptr@V?$basic_string@DU?$char_traits@D@std@@V?$allocator@D@2@@std@@@std@@@Z$0 00000001800549c1 f   * CIL library *:* CIL module *
 0001:00053a1d       ?dtor$4@?0??crypto_update@@YAXP6AKKPEAEK@ZKV?$shared_ptr@V?$basic_string@DU?$char_traits@D@std@@V?$allocator@D@2@@std@@@std@@@Z@4HA 0000000180054a1d f   * CIL library *:* CIL module *
 0001:00053a29       ?catch$1@?0??crypto_update@@YAXP6AKKPEAEK@ZKV?$shared_ptr@V?$basic_string@DU?$char_traits@D@std@@V?$allocator@D@2@@std@@@std@@@Z@4HA 0000000180054a29 f   * CIL library *:* CIL module *
 0001:00053a39       __catch$?crypto_update@@YAXP6AKKPEAEK@ZKV?$shared_ptr@V?$basic_string@DU?$char_traits@D@std@@V?$allocator@D@2@@std@@@std@@@Z$1 0000000180054a39 f   * CIL library *:* CIL module *
 0001:00053af9       ?dtor$5@?0??crypto_update@@YAXP6AKKPEAEK@ZKV?$shared_ptr@V?$basic_string@DU?$char_traits@D@std@@V?$allocator@D@2@@std@@@std@@@Z@4HA 0000000180054af9 f   * CIL library *:* CIL module *
 0001:00053b10       ?dtor$0@?0??crypto_final@@YA?AV?$shared_ptr@V?$basic_string@DU?$char_traits@D@std@@V?$allocator@D@2@@std@@@std@@P6AKKPEAEPEAK@ZKV12@@Z@4HA 0000000180054b10 f   * CIL library *:* CIL module *
 0001:00053b1c       ?dtor$1@?0??crypto_final@@YA?AV?$shared_ptr@V?$basic_string@DU?$char_traits@D@std@@V?$allocator@D@2@@std@@@std@@P6AKKPEAEPEAK@ZKV12@@Z@4HA 0000000180054b1c f   * CIL library *:* CIL module *
 0001:00053b28       ?dtor$2@?0??crypto_final@@YA?AV?$shared_ptr@V?$basic_string@DU?$char_traits@D@std@@V?$allocator@D@2@@std@@@std@@P6AKKPEAEPEAK@ZKV12@@Z@4HA 0000000180054b28 f   * CIL library *:* CIL module *
 0001:00053b34       ?dtor$3@?0??crypto_final@@YA?AV?$shared_ptr@V?$basic_string@DU?$char_traits@D@std@@V?$allocator@D@2@@std@@@std@@P6AKKPEAEPEAK@ZKV12@@Z@4HA 0000000180054b34 f   * CIL library *:* CIL module *
 0001:00053b5d       ?dtor$4@?0??crypto_final@@YA?AV?$shared_ptr@V?$basic_string@DU?$char_traits@D@std@@V?$allocator@D@2@@std@@@std@@P6AKKPEAEPEAK@ZKV12@@Z@4HA 0000000180054b5d f   * CIL library *:* CIL module *
 0001:00053b69       ?catch$0@?0??crypto_final@@YA?AV?$shared_ptr@V?$basic_string@DU?$char_traits@D@std@@V?$allocator@D@2@@std@@@std@@P6AKKPEAEPEAK@ZKV12@@Z@4HA 0000000180054b69 f   * CIL library *:* CIL module *
 0001:00053b77       __catch$?crypto_final@@YA?AV?$shared_ptr@V?$basic_string@DU?$char_traits@D@std@@V?$allocator@D@2@@std@@@std@@P6AKKPEAEPEAK@ZKV12@@Z$0 0000000180054b77 f   * CIL library *:* CIL module *
 0001:00053bd3       ?dtor$6@?0??crypto_final@@YA?AV?$shared_ptr@V?$basic_string@DU?$char_traits@D@std@@V?$allocator@D@2@@std@@@std@@P6AKKPEAEPEAK@ZKV12@@Z@4HA 0000000180054bd3 f   * CIL library *:* CIL module *
 0001:00053bdf       ?catch$1@?0??crypto_final@@YA?AV?$shared_ptr@V?$basic_string@DU?$char_traits@D@std@@V?$allocator@D@2@@std@@@std@@P6AKKPEAEPEAK@ZKV12@@Z@4HA 0000000180054bdf f   * CIL library *:* CIL module *
 0001:00053bef       __catch$?crypto_final@@YA?AV?$shared_ptr@V?$basic_string@DU?$char_traits@D@std@@V?$allocator@D@2@@std@@@std@@P6AKKPEAEPEAK@ZKV12@@Z$1 0000000180054bef f   * CIL library *:* CIL module *
 0001:00053cb2       ?dtor$7@?0??crypto_final@@YA?AV?$shared_ptr@V?$basic_string@DU?$char_traits@D@std@@V?$allocator@D@2@@std@@@std@@P6AKKPEAEPEAK@ZKV12@@Z@4HA 0000000180054cb2 f   * CIL library *:* CIL module *
 0001:00053cc0       ?dtor$0@?0??C_EncryptInit@PKCS11@@QEAAXKV?$shared_ptr@VMechanism@@@std@@K@Z@4HA 0000000180054cc0 f   * CIL library *:* CIL module *
 0001:00053ccc       ?catch$0@?0??C_EncryptInit@PKCS11@@QEAAXKV?$shared_ptr@VMechanism@@@std@@K@Z@4HA 0000000180054ccc f   * CIL library *:* CIL module *
 0001:00053cda       __catch$?C_EncryptInit@PKCS11@@QEAAXKV?$shared_ptr@VMechanism@@@std@@K@Z$0 0000000180054cda f   * CIL library *:* CIL module *
 0001:00053d36       ?dtor$2@?0??C_EncryptInit@PKCS11@@QEAAXKV?$shared_ptr@VMechanism@@@std@@K@Z@4HA 0000000180054d36 f   * CIL library *:* CIL module *
 0001:00053d42       ?catch$1@?0??C_EncryptInit@PKCS11@@QEAAXKV?$shared_ptr@VMechanism@@@std@@K@Z@4HA 0000000180054d42 f   * CIL library *:* CIL module *
 0001:00053d52       __catch$?C_EncryptInit@PKCS11@@QEAAXKV?$shared_ptr@VMechanism@@@std@@K@Z$1 0000000180054d52 f   * CIL library *:* CIL module *
 0001:00053e12       ?dtor$3@?0??C_EncryptInit@PKCS11@@QEAAXKV?$shared_ptr@VMechanism@@@std@@K@Z@4HA 0000000180054e12 f   * CIL library *:* CIL module *
 0001:00053e20       ?dtor$0@?0??C_Encrypt@PKCS11@@QEAA?AV?$shared_ptr@V?$basic_string@DU?$char_traits@D@std@@V?$allocator@D@2@@std@@@std@@KV23@0@Z@4HA 0000000180054e20 f   * CIL library *:* CIL module *
 0001:00053e2c       ?dtor$1@?0??C_Encrypt@PKCS11@@QEAA?AV?$shared_ptr@V?$basic_string@DU?$char_traits@D@std@@V?$allocator@D@2@@std@@@std@@KV23@0@Z@4HA 0000000180054e2c f   * CIL library *:* CIL module *
 0001:00053e38       ?catch$0@?0??C_Encrypt@PKCS11@@QEAA?AV?$shared_ptr@V?$basic_string@DU?$char_traits@D@std@@V?$allocator@D@2@@std@@@std@@KV23@0@Z@4HA 0000000180054e38 f   * CIL library *:* CIL module *
 0001:00053e46       __catch$?C_Encrypt@PKCS11@@QEAA?AV?$shared_ptr@V?$basic_string@DU?$char_traits@D@std@@V?$allocator@D@2@@std@@@std@@KV23@0@Z$0 0000000180054e46 f   * CIL library *:* CIL module *
 0001:00053ea2       ?dtor$5@?0??C_Encrypt@PKCS11@@QEAA?AV?$shared_ptr@V?$basic_string@DU?$char_traits@D@std@@V?$allocator@D@2@@std@@@std@@KV23@0@Z@4HA 0000000180054ea2 f   * CIL library *:* CIL module *
 0001:00053eae       ?catch$1@?0??C_Encrypt@PKCS11@@QEAA?AV?$shared_ptr@V?$basic_string@DU?$char_traits@D@std@@V?$allocator@D@2@@std@@@std@@KV23@0@Z@4HA 0000000180054eae f   * CIL library *:* CIL module *
 0001:00053ebe       __catch$?C_Encrypt@PKCS11@@QEAA?AV?$shared_ptr@V?$basic_string@DU?$char_traits@D@std@@V?$allocator@D@2@@std@@@std@@KV23@0@Z$1 0000000180054ebe f   * CIL library *:* CIL module *
 0001:00053f84       ?dtor$6@?0??C_Encrypt@PKCS11@@QEAA?AV?$shared_ptr@V?$basic_string@DU?$char_traits@D@std@@V?$allocator@D@2@@std@@@std@@KV23@0@Z@4HA 0000000180054f84 f   * CIL library *:* CIL module *
 0001:00053f90       ?dtor$0@?0??C_EncryptUpdate@PKCS11@@QEAA?AV?$shared_ptr@V?$basic_string@DU?$char_traits@D@std@@V?$allocator@D@2@@std@@@std@@KV23@0@Z@4HA 0000000180054f90 f   * CIL library *:* CIL module *
 0001:00053f9c       ?dtor$1@?0??C_EncryptUpdate@PKCS11@@QEAA?AV?$shared_ptr@V?$basic_string@DU?$char_traits@D@std@@V?$allocator@D@2@@std@@@std@@KV23@0@Z@4HA 0000000180054f9c f   * CIL library *:* CIL module *
 0001:00053fa8       ?catch$0@?0??C_EncryptUpdate@PKCS11@@QEAA?AV?$shared_ptr@V?$basic_string@DU?$char_traits@D@std@@V?$allocator@D@2@@std@@@std@@KV23@0@Z@4HA 0000000180054fa8 f   * CIL library *:* CIL module *
 0001:00053fb6       __catch$?C_EncryptUpdate@PKCS11@@QEAA?AV?$shared_ptr@V?$basic_string@DU?$char_traits@D@std@@V?$allocator@D@2@@std@@@std@@KV23@0@Z$0 0000000180054fb6 f   * CIL library *:* CIL module *
 0001:00054012       ?dtor$5@?0??C_EncryptUpdate@PKCS11@@QEAA?AV?$shared_ptr@V?$basic_string@DU?$char_traits@D@std@@V?$allocator@D@2@@std@@@std@@KV23@0@Z@4HA 0000000180055012 f   * CIL library *:* CIL module *
 0001:0005401e       ?catch$1@?0??C_EncryptUpdate@PKCS11@@QEAA?AV?$shared_ptr@V?$basic_string@DU?$char_traits@D@std@@V?$allocator@D@2@@std@@@std@@KV23@0@Z@4HA 000000018005501e f   * CIL library *:* CIL module *
 0001:0005402e       __catch$?C_EncryptUpdate@PKCS11@@QEAA?AV?$shared_ptr@V?$basic_string@DU?$char_traits@D@std@@V?$allocator@D@2@@std@@@std@@KV23@0@Z$1 000000018005502e f   * CIL library *:* CIL module *
 0001:000540f4       ?dtor$6@?0??C_EncryptUpdate@PKCS11@@QEAA?AV?$shared_ptr@V?$basic_string@DU?$char_traits@D@std@@V?$allocator@D@2@@std@@@std@@KV23@0@Z@4HA 00000001800550f4 f   * CIL library *:* CIL module *
 0001:00054100       ?dtor$0@?0??C_EncryptFinal@PKCS11@@QEAA?AV?$shared_ptr@V?$basic_string@DU?$char_traits@D@std@@V?$allocator@D@2@@std@@@std@@KV23@@Z@4HA 0000000180055100 f   * CIL library *:* CIL module *
 0001:0005410c       ?catch$0@?0??C_EncryptFinal@PKCS11@@QEAA?AV?$shared_ptr@V?$basic_string@DU?$char_traits@D@std@@V?$allocator@D@2@@std@@@std@@KV23@@Z@4HA 000000018005510c f   * CIL library *:* CIL module *
 0001:0005411a       __catch$?C_EncryptFinal@PKCS11@@QEAA?AV?$shared_ptr@V?$basic_string@DU?$char_traits@D@std@@V?$allocator@D@2@@std@@@std@@KV23@@Z$0 000000018005511a f   * CIL library *:* CIL module *
 0001:00054176       ?dtor$3@?0??C_EncryptFinal@PKCS11@@QEAA?AV?$shared_ptr@V?$basic_string@DU?$char_traits@D@std@@V?$allocator@D@2@@std@@@std@@KV23@@Z@4HA 0000000180055176 f   * CIL library *:* CIL module *
 0001:00054182       ?catch$1@?0??C_EncryptFinal@PKCS11@@QEAA?AV?$shared_ptr@V?$basic_string@DU?$char_traits@D@std@@V?$allocator@D@2@@std@@@std@@KV23@@Z@4HA 0000000180055182 f   * CIL library *:* CIL module *
 0001:00054192       __catch$?C_EncryptFinal@PKCS11@@QEAA?AV?$shared_ptr@V?$basic_string@DU?$char_traits@D@std@@V?$allocator@D@2@@std@@@std@@KV23@@Z$1 0000000180055192 f   * CIL library *:* CIL module *
 0001:00054258       ?dtor$4@?0??C_EncryptFinal@PKCS11@@QEAA?AV?$shared_ptr@V?$basic_string@DU?$char_traits@D@std@@V?$allocator@D@2@@std@@@std@@KV23@@Z@4HA 0000000180055258 f   * CIL library *:* CIL module *
 0001:00054270       ?dtor$0@?0??C_DecryptInit@PKCS11@@QEAAXKV?$shared_ptr@VMechanism@@@std@@K@Z@4HA 0000000180055270 f   * CIL library *:* CIL module *
 0001:0005427c       ?catch$0@?0??C_DecryptInit@PKCS11@@QEAAXKV?$shared_ptr@VMechanism@@@std@@K@Z@4HA 000000018005527c f   * CIL library *:* CIL module *
 0001:0005428a       __catch$?C_DecryptInit@PKCS11@@QEAAXKV?$shared_ptr@VMechanism@@@std@@K@Z$0 000000018005528a f   * CIL library *:* CIL module *
 0001:000542e6       ?dtor$2@?0??C_DecryptInit@PKCS11@@QEAAXKV?$shared_ptr@VMechanism@@@std@@K@Z@4HA 00000001800552e6 f   * CIL library *:* CIL module *
 0001:000542f2       ?catch$1@?0??C_DecryptInit@PKCS11@@QEAAXKV?$shared_ptr@VMechanism@@@std@@K@Z@4HA 00000001800552f2 f   * CIL library *:* CIL module *
 0001:00054302       __catch$?C_DecryptInit@PKCS11@@QEAAXKV?$shared_ptr@VMechanism@@@std@@K@Z$1 0000000180055302 f   * CIL library *:* CIL module *
 0001:000543c2       ?dtor$3@?0??C_DecryptInit@PKCS11@@QEAAXKV?$shared_ptr@VMechanism@@@std@@K@Z@4HA 00000001800553c2 f   * CIL library *:* CIL module *
 0001:000543d0       ?dtor$0@?0??C_Decrypt@PKCS11@@QEAA?AV?$shared_ptr@V?$basic_string@DU?$char_traits@D@std@@V?$allocator@D@2@@std@@@std@@KV23@0@Z@4HA 00000001800553d0 f   * CIL library *:* CIL module *
 0001:000543dc       ?dtor$1@?0??C_Decrypt@PKCS11@@QEAA?AV?$shared_ptr@V?$basic_string@DU?$char_traits@D@std@@V?$allocator@D@2@@std@@@std@@KV23@0@Z@4HA 00000001800553dc f   * CIL library *:* CIL module *
 0001:000543e8       ?catch$0@?0??C_Decrypt@PKCS11@@QEAA?AV?$shared_ptr@V?$basic_string@DU?$char_traits@D@std@@V?$allocator@D@2@@std@@@std@@KV23@0@Z@4HA 00000001800553e8 f   * CIL library *:* CIL module *
 0001:000543f6       __catch$?C_Decrypt@PKCS11@@QEAA?AV?$shared_ptr@V?$basic_string@DU?$char_traits@D@std@@V?$allocator@D@2@@std@@@std@@KV23@0@Z$0 00000001800553f6 f   * CIL library *:* CIL module *
 0001:00054452       ?dtor$5@?0??C_Decrypt@PKCS11@@QEAA?AV?$shared_ptr@V?$basic_string@DU?$char_traits@D@std@@V?$allocator@D@2@@std@@@std@@KV23@0@Z@4HA 0000000180055452 f   * CIL library *:* CIL module *
 0001:0005445e       ?catch$1@?0??C_Decrypt@PKCS11@@QEAA?AV?$shared_ptr@V?$basic_string@DU?$char_traits@D@std@@V?$allocator@D@2@@std@@@std@@KV23@0@Z@4HA 000000018005545e f   * CIL library *:* CIL module *
 0001:0005446e       __catch$?C_Decrypt@PKCS11@@QEAA?AV?$shared_ptr@V?$basic_string@DU?$char_traits@D@std@@V?$allocator@D@2@@std@@@std@@KV23@0@Z$1 000000018005546e f   * CIL library *:* CIL module *
 0001:00054534       ?dtor$6@?0??C_Decrypt@PKCS11@@QEAA?AV?$shared_ptr@V?$basic_string@DU?$char_traits@D@std@@V?$allocator@D@2@@std@@@std@@KV23@0@Z@4HA 0000000180055534 f   * CIL library *:* CIL module *
 0001:00054540       ?dtor$0@?0??C_DecryptUpdate@PKCS11@@QEAA?AV?$shared_ptr@V?$basic_string@DU?$char_traits@D@std@@V?$allocator@D@2@@std@@@std@@KV23@0@Z@4HA 0000000180055540 f   * CIL library *:* CIL module *
 0001:0005454c       ?dtor$1@?0??C_DecryptUpdate@PKCS11@@QEAA?AV?$shared_ptr@V?$basic_string@DU?$char_traits@D@std@@V?$allocator@D@2@@std@@@std@@KV23@0@Z@4HA 000000018005554c f   * CIL library *:* CIL module *
 0001:00054558       ?catch$0@?0??C_DecryptUpdate@PKCS11@@QEAA?AV?$shared_ptr@V?$basic_string@DU?$char_traits@D@std@@V?$allocator@D@2@@std@@@std@@KV23@0@Z@4HA 0000000180055558 f   * CIL library *:* CIL module *
 0001:00054566       __catch$?C_DecryptUpdate@PKCS11@@QEAA?AV?$shared_ptr@V?$basic_string@DU?$char_traits@D@std@@V?$allocator@D@2@@std@@@std@@KV23@0@Z$0 0000000180055566 f   * CIL library *:* CIL module *
 0001:000545c2       ?dtor$5@?0??C_DecryptUpdate@PKCS11@@QEAA?AV?$shared_ptr@V?$basic_string@DU?$char_traits@D@std@@V?$allocator@D@2@@std@@@std@@KV23@0@Z@4HA 00000001800555c2 f   * CIL library *:* CIL module *
 0001:000545ce       ?catch$1@?0??C_DecryptUpdate@PKCS11@@QEAA?AV?$shared_ptr@V?$basic_string@DU?$char_traits@D@std@@V?$allocator@D@2@@std@@@std@@KV23@0@Z@4HA 00000001800555ce f   * CIL library *:* CIL module *
 0001:000545de       __catch$?C_DecryptUpdate@PKCS11@@QEAA?AV?$shared_ptr@V?$basic_string@DU?$char_traits@D@std@@V?$allocator@D@2@@std@@@std@@KV23@0@Z$1 00000001800555de f   * CIL library *:* CIL module *
 0001:000546a4       ?dtor$6@?0??C_DecryptUpdate@PKCS11@@QEAA?AV?$shared_ptr@V?$basic_string@DU?$char_traits@D@std@@V?$allocator@D@2@@std@@@std@@KV23@0@Z@4HA 00000001800556a4 f   * CIL library *:* CIL module *
 0001:000546b0       ?dtor$0@?0??C_DecryptFinal@PKCS11@@QEAA?AV?$shared_ptr@V?$basic_string@DU?$char_traits@D@std@@V?$allocator@D@2@@std@@@std@@KV23@@Z@4HA 00000001800556b0 f   * CIL library *:* CIL module *
 0001:000546bc       ?catch$0@?0??C_DecryptFinal@PKCS11@@QEAA?AV?$shared_ptr@V?$basic_string@DU?$char_traits@D@std@@V?$allocator@D@2@@std@@@std@@KV23@@Z@4HA 00000001800556bc f   * CIL library *:* CIL module *
 0001:000546ca       __catch$?C_DecryptFinal@PKCS11@@QEAA?AV?$shared_ptr@V?$basic_string@DU?$char_traits@D@std@@V?$allocator@D@2@@std@@@std@@KV23@@Z$0 00000001800556ca f   * CIL library *:* CIL module *
 0001:00054726       ?dtor$3@?0??C_DecryptFinal@PKCS11@@QEAA?AV?$shared_ptr@V?$basic_string@DU?$char_traits@D@std@@V?$allocator@D@2@@std@@@std@@KV23@@Z@4HA 0000000180055726 f   * CIL library *:* CIL module *
 0001:00054732       ?catch$1@?0??C_DecryptFinal@PKCS11@@QEAA?AV?$shared_ptr@V?$basic_string@DU?$char_traits@D@std@@V?$allocator@D@2@@std@@@std@@KV23@@Z@4HA 0000000180055732 f   * CIL library *:* CIL module *
 0001:00054742       __catch$?C_DecryptFinal@PKCS11@@QEAA?AV?$shared_ptr@V?$basic_string@DU?$char_traits@D@std@@V?$allocator@D@2@@std@@@std@@KV23@@Z$1 0000000180055742 f   * CIL library *:* CIL module *
